Archive member included to satisfy reference by file (symbol)

/opt/gcc-linaro-7.2.1-2017.11-x86_64_arm-eabi/arm-eabi/libc/usr/lib/libc.a(lib_a-atoi.o)
                              ./../../../build/tcc70xx/gcc/tcc70xx-freertos-debug/obj/audio_test.o (atoi)
/opt/gcc-linaro-7.2.1-2017.11-x86_64_arm-eabi/arm-eabi/libc/usr/lib/libc.a(lib_a-memcmp.o)
                              ./../../../build/tcc70xx/gcc/tcc70xx-freertos-debug/obj/FreeRTOS_ARP.o (memcmp)
/opt/gcc-linaro-7.2.1-2017.11-x86_64_arm-eabi/arm-eabi/libc/usr/lib/libc.a(lib_a-memcpy-stub.o)
                              ./../../../build/tcc70xx/gcc/tcc70xx-freertos-debug/obj/iperf_task_v3_0d.o (memcpy)
/opt/gcc-linaro-7.2.1-2017.11-x86_64_arm-eabi/arm-eabi/libc/usr/lib/libc.a(lib_a-memmove.o)
                              ./../../../build/tcc70xx/gcc/tcc70xx-freertos-debug/obj/FreeRTOS_IP.o (memmove)
/opt/gcc-linaro-7.2.1-2017.11-x86_64_arm-eabi/arm-eabi/libc/usr/lib/libc.a(lib_a-memset.o)
                              ./../../../build/tcc70xx/gcc/tcc70xx-freertos-debug/obj/console.o (memset)
/opt/gcc-linaro-7.2.1-2017.11-x86_64_arm-eabi/arm-eabi/libc/usr/lib/libc.a(lib_a-snprintf.o)
                              ./../../../build/tcc70xx/gcc/tcc70xx-freertos-debug/obj/iperf_task_v3_0d.o (snprintf)
/opt/gcc-linaro-7.2.1-2017.11-x86_64_arm-eabi/arm-eabi/libc/usr/lib/libc.a(lib_a-sprintf.o)
                              ./../../../build/tcc70xx/gcc/tcc70xx-freertos-debug/obj/iperf_task_v3_0d.o (sprintf)
/opt/gcc-linaro-7.2.1-2017.11-x86_64_arm-eabi/arm-eabi/libc/usr/lib/libc.a(lib_a-sscanf.o)
                              ./../../../build/tcc70xx/gcc/tcc70xx-freertos-debug/obj/iperf_task_v3_0d.o (sscanf)
/opt/gcc-linaro-7.2.1-2017.11-x86_64_arm-eabi/arm-eabi/libc/usr/lib/libc.a(lib_a-stdio.o)
                              /opt/gcc-linaro-7.2.1-2017.11-x86_64_arm-eabi/arm-eabi/libc/usr/lib/libc.a(lib_a-sscanf.o) (__seofread)
/opt/gcc-linaro-7.2.1-2017.11-x86_64_arm-eabi/arm-eabi/libc/usr/lib/libc.a(lib_a-strcmp.o)
                              ./../../../build/tcc70xx/gcc/tcc70xx-freertos-debug/obj/FreeRTOS_DNS.o (strcmp)
/opt/gcc-linaro-7.2.1-2017.11-x86_64_arm-eabi/arm-eabi/libc/usr/lib/libc.a(lib_a-strcpy.o)
                              ./../../../build/tcc70xx/gcc/tcc70xx-freertos-debug/obj/FreeRTOS_DNS.o (strcpy)
/opt/gcc-linaro-7.2.1-2017.11-x86_64_arm-eabi/arm-eabi/libc/usr/lib/libc.a(lib_a-strlen-stub.o)
                              ./../../../build/tcc70xx/gcc/tcc70xx-freertos-debug/obj/tasks.o (strlen)
/opt/gcc-linaro-7.2.1-2017.11-x86_64_arm-eabi/arm-eabi/libc/usr/lib/libc.a(lib_a-strncmp.o)
                              ./../../../build/tcc70xx/gcc/tcc70xx-freertos-debug/obj/iperf_task_v3_0d.o (strncmp)
/opt/gcc-linaro-7.2.1-2017.11-x86_64_arm-eabi/arm-eabi/libc/usr/lib/libc.a(lib_a-strncpy.o)
                              ./../../../build/tcc70xx/gcc/tcc70xx-freertos-debug/obj/iperf_task_v3_0d.o (strncpy)
/opt/gcc-linaro-7.2.1-2017.11-x86_64_arm-eabi/arm-eabi/libc/usr/lib/libc.a(lib_a-strnlen.o)
                              ./../../../build/tcc70xx/gcc/tcc70xx-freertos-debug/obj/sal_freertos_impl.o (strnlen)
/opt/gcc-linaro-7.2.1-2017.11-x86_64_arm-eabi/arm-eabi/libc/usr/lib/libc.a(lib_a-strtol.o)
                              /opt/gcc-linaro-7.2.1-2017.11-x86_64_arm-eabi/arm-eabi/libc/usr/lib/libc.a(lib_a-atoi.o) (_strtol_r)
/opt/gcc-linaro-7.2.1-2017.11-x86_64_arm-eabi/arm-eabi/libc/usr/lib/libc.a(lib_a-strtoul.o)
                              ./../../../build/tcc70xx/gcc/tcc70xx-freertos-debug/obj/console.o (strtoul)
/opt/gcc-linaro-7.2.1-2017.11-x86_64_arm-eabi/arm-eabi/libc/usr/lib/libc.a(lib_a-svfprintf.o)
                              /opt/gcc-linaro-7.2.1-2017.11-x86_64_arm-eabi/arm-eabi/libc/usr/lib/libc.a(lib_a-snprintf.o) (_svfprintf_r)
/opt/gcc-linaro-7.2.1-2017.11-x86_64_arm-eabi/arm-eabi/libc/usr/lib/libc.a(lib_a-svfscanf.o)
                              /opt/gcc-linaro-7.2.1-2017.11-x86_64_arm-eabi/arm-eabi/libc/usr/lib/libc.a(lib_a-sscanf.o) (__ssvfscanf_r)
/opt/gcc-linaro-7.2.1-2017.11-x86_64_arm-eabi/arm-eabi/libc/usr/lib/libc.a(lib_a-wcrtomb.o)
                              /opt/gcc-linaro-7.2.1-2017.11-x86_64_arm-eabi/arm-eabi/libc/usr/lib/libc.a(lib_a-svfprintf.o) (_wcrtomb_r)
/opt/gcc-linaro-7.2.1-2017.11-x86_64_arm-eabi/arm-eabi/libc/usr/lib/libc.a(lib_a-wcsrtombs.o)
                              /opt/gcc-linaro-7.2.1-2017.11-x86_64_arm-eabi/arm-eabi/libc/usr/lib/libc.a(lib_a-svfprintf.o) (_wcsrtombs_r)
/opt/gcc-linaro-7.2.1-2017.11-x86_64_arm-eabi/arm-eabi/libc/usr/lib/libc.a(lib_a-writer.o)
                              /opt/gcc-linaro-7.2.1-2017.11-x86_64_arm-eabi/arm-eabi/libc/usr/lib/libc.a(lib_a-stdio.o) (_write_r)
/opt/gcc-linaro-7.2.1-2017.11-x86_64_arm-eabi/arm-eabi/libc/usr/lib/libc.a(lib_a-closer.o)
                              /opt/gcc-linaro-7.2.1-2017.11-x86_64_arm-eabi/arm-eabi/libc/usr/lib/libc.a(lib_a-stdio.o) (_close_r)
/opt/gcc-linaro-7.2.1-2017.11-x86_64_arm-eabi/arm-eabi/libc/usr/lib/libc.a(lib_a-dtoa.o)
                              /opt/gcc-linaro-7.2.1-2017.11-x86_64_arm-eabi/arm-eabi/libc/usr/lib/libc.a(lib_a-svfprintf.o) (_dtoa_r)
/opt/gcc-linaro-7.2.1-2017.11-x86_64_arm-eabi/arm-eabi/libc/usr/lib/libc.a(lib_a-freer.o)
                              /opt/gcc-linaro-7.2.1-2017.11-x86_64_arm-eabi/arm-eabi/libc/usr/lib/libc.a(lib_a-svfprintf.o) (_free_r)
/opt/gcc-linaro-7.2.1-2017.11-x86_64_arm-eabi/arm-eabi/libc/usr/lib/libc.a(lib_a-impure.o)
                              /opt/gcc-linaro-7.2.1-2017.11-x86_64_arm-eabi/arm-eabi/libc/usr/lib/libc.a(lib_a-snprintf.o) (_impure_ptr)
/opt/gcc-linaro-7.2.1-2017.11-x86_64_arm-eabi/arm-eabi/libc/usr/lib/libc.a(lib_a-iswspace.o)
                              /opt/gcc-linaro-7.2.1-2017.11-x86_64_arm-eabi/arm-eabi/libc/usr/lib/libc.a(lib_a-svfscanf.o) (iswspace)
/opt/gcc-linaro-7.2.1-2017.11-x86_64_arm-eabi/arm-eabi/libc/usr/lib/libc.a(lib_a-jp2uc.o)
                              /opt/gcc-linaro-7.2.1-2017.11-x86_64_arm-eabi/arm-eabi/libc/usr/lib/libc.a(lib_a-iswspace.o) (_jp2uc)
/opt/gcc-linaro-7.2.1-2017.11-x86_64_arm-eabi/arm-eabi/libc/usr/lib/libc.a(lib_a-locale.o)
                              /opt/gcc-linaro-7.2.1-2017.11-x86_64_arm-eabi/arm-eabi/libc/usr/lib/libc.a(lib_a-svfprintf.o) (__locale_mb_cur_max)
/opt/gcc-linaro-7.2.1-2017.11-x86_64_arm-eabi/arm-eabi/libc/usr/lib/libc.a(lib_a-localeconv.o)
                              /opt/gcc-linaro-7.2.1-2017.11-x86_64_arm-eabi/arm-eabi/libc/usr/lib/libc.a(lib_a-svfprintf.o) (_localeconv_r)
/opt/gcc-linaro-7.2.1-2017.11-x86_64_arm-eabi/arm-eabi/libc/usr/lib/libc.a(lib_a-lseekr.o)
                              /opt/gcc-linaro-7.2.1-2017.11-x86_64_arm-eabi/arm-eabi/libc/usr/lib/libc.a(lib_a-stdio.o) (_lseek_r)
/opt/gcc-linaro-7.2.1-2017.11-x86_64_arm-eabi/arm-eabi/libc/usr/lib/libc.a(lib_a-mallocr.o)
                              /opt/gcc-linaro-7.2.1-2017.11-x86_64_arm-eabi/arm-eabi/libc/usr/lib/libc.a(lib_a-svfprintf.o) (_malloc_r)
/opt/gcc-linaro-7.2.1-2017.11-x86_64_arm-eabi/arm-eabi/libc/usr/lib/libc.a(lib_a-mbrtowc.o)
                              /opt/gcc-linaro-7.2.1-2017.11-x86_64_arm-eabi/arm-eabi/libc/usr/lib/libc.a(lib_a-svfscanf.o) (_mbrtowc_r)
/opt/gcc-linaro-7.2.1-2017.11-x86_64_arm-eabi/arm-eabi/libc/usr/lib/libc.a(lib_a-mbtowc_r.o)
                              /opt/gcc-linaro-7.2.1-2017.11-x86_64_arm-eabi/arm-eabi/libc/usr/lib/libc.a(lib_a-locale.o) (__ascii_mbtowc)
/opt/gcc-linaro-7.2.1-2017.11-x86_64_arm-eabi/arm-eabi/libc/usr/lib/libc.a(lib_a-memchr-stub.o)
                              /opt/gcc-linaro-7.2.1-2017.11-x86_64_arm-eabi/arm-eabi/libc/usr/lib/libc.a(lib_a-svfprintf.o) (memchr)
/opt/gcc-linaro-7.2.1-2017.11-x86_64_arm-eabi/arm-eabi/libc/usr/lib/libc.a(lib_a-mlock.o)
                              /opt/gcc-linaro-7.2.1-2017.11-x86_64_arm-eabi/arm-eabi/libc/usr/lib/libc.a(lib_a-freer.o) (__malloc_lock)
/opt/gcc-linaro-7.2.1-2017.11-x86_64_arm-eabi/arm-eabi/libc/usr/lib/libc.a(lib_a-mprec.o)
                              /opt/gcc-linaro-7.2.1-2017.11-x86_64_arm-eabi/arm-eabi/libc/usr/lib/libc.a(lib_a-dtoa.o) (_Balloc)
/opt/gcc-linaro-7.2.1-2017.11-x86_64_arm-eabi/arm-eabi/libc/usr/lib/libc.a(lib_a-readr.o)
                              /opt/gcc-linaro-7.2.1-2017.11-x86_64_arm-eabi/arm-eabi/libc/usr/lib/libc.a(lib_a-stdio.o) (_read_r)
/opt/gcc-linaro-7.2.1-2017.11-x86_64_arm-eabi/arm-eabi/libc/usr/lib/libc.a(lib_a-reent.o)
                              /opt/gcc-linaro-7.2.1-2017.11-x86_64_arm-eabi/arm-eabi/libc/usr/lib/libc.a(lib_a-writer.o) (errno)
/opt/gcc-linaro-7.2.1-2017.11-x86_64_arm-eabi/arm-eabi/libc/usr/lib/libc.a(lib_a-s_frexp.o)
                              /opt/gcc-linaro-7.2.1-2017.11-x86_64_arm-eabi/arm-eabi/libc/usr/lib/libc.a(lib_a-svfprintf.o) (frexp)
/opt/gcc-linaro-7.2.1-2017.11-x86_64_arm-eabi/arm-eabi/libc/usr/lib/libc.a(lib_a-sbrkr.o)
                              /opt/gcc-linaro-7.2.1-2017.11-x86_64_arm-eabi/arm-eabi/libc/usr/lib/libc.a(lib_a-freer.o) (_sbrk_r)
/opt/gcc-linaro-7.2.1-2017.11-x86_64_arm-eabi/arm-eabi/libc/usr/lib/libc.a(lib_a-sccl.o)
                              /opt/gcc-linaro-7.2.1-2017.11-x86_64_arm-eabi/arm-eabi/libc/usr/lib/libc.a(lib_a-svfscanf.o) (__sccl)
/opt/gcc-linaro-7.2.1-2017.11-x86_64_arm-eabi/arm-eabi/libc/usr/lib/libc.a(lib_a-sf_nan.o)
                              /opt/gcc-linaro-7.2.1-2017.11-x86_64_arm-eabi/arm-eabi/libc/usr/lib/libc.a(lib_a-svfscanf.o) (nanf)
/opt/gcc-linaro-7.2.1-2017.11-x86_64_arm-eabi/arm-eabi/libc/usr/lib/libc.a(lib_a-stpncpy.o)
                              /opt/gcc-linaro-7.2.1-2017.11-x86_64_arm-eabi/arm-eabi/libc/usr/lib/libc.a(lib_a-svfscanf.o) (stpncpy)
/opt/gcc-linaro-7.2.1-2017.11-x86_64_arm-eabi/arm-eabi/libc/usr/lib/libc.a(lib_a-strcasecmp.o)
                              /opt/gcc-linaro-7.2.1-2017.11-x86_64_arm-eabi/arm-eabi/libc/usr/lib/libc.a(lib_a-locale.o) (strcasecmp)
/opt/gcc-linaro-7.2.1-2017.11-x86_64_arm-eabi/arm-eabi/libc/usr/lib/libc.a(lib_a-strcat.o)
                              /opt/gcc-linaro-7.2.1-2017.11-x86_64_arm-eabi/arm-eabi/libc/usr/lib/libc.a(lib_a-locale.o) (strcat)
/opt/gcc-linaro-7.2.1-2017.11-x86_64_arm-eabi/arm-eabi/libc/usr/lib/libc.a(lib_a-strchr.o)
                              /opt/gcc-linaro-7.2.1-2017.11-x86_64_arm-eabi/arm-eabi/libc/usr/lib/libc.a(lib_a-locale.o) (strchr)
/opt/gcc-linaro-7.2.1-2017.11-x86_64_arm-eabi/arm-eabi/libc/usr/lib/libc.a(lib_a-strlcpy.o)
                              /opt/gcc-linaro-7.2.1-2017.11-x86_64_arm-eabi/arm-eabi/libc/usr/lib/libc.a(lib_a-locale.o) (strlcpy)
/opt/gcc-linaro-7.2.1-2017.11-x86_64_arm-eabi/arm-eabi/libc/usr/lib/libc.a(lib_a-strncasecmp.o)
                              /opt/gcc-linaro-7.2.1-2017.11-x86_64_arm-eabi/arm-eabi/libc/usr/lib/libc.a(lib_a-locale.o) (strncasecmp)
/opt/gcc-linaro-7.2.1-2017.11-x86_64_arm-eabi/arm-eabi/libc/usr/lib/libc.a(lib_a-strtod.o)
                              /opt/gcc-linaro-7.2.1-2017.11-x86_64_arm-eabi/arm-eabi/libc/usr/lib/libc.a(lib_a-svfscanf.o) (_strtod_r)
/opt/gcc-linaro-7.2.1-2017.11-x86_64_arm-eabi/arm-eabi/libc/usr/lib/libc.a(lib_a-strtoll.o)
                              /opt/gcc-linaro-7.2.1-2017.11-x86_64_arm-eabi/arm-eabi/libc/usr/lib/libc.a(lib_a-svfscanf.o) (_strtoll_r)
/opt/gcc-linaro-7.2.1-2017.11-x86_64_arm-eabi/arm-eabi/libc/usr/lib/libc.a(lib_a-strtoull.o)
                              /opt/gcc-linaro-7.2.1-2017.11-x86_64_arm-eabi/arm-eabi/libc/usr/lib/libc.a(lib_a-svfscanf.o) (_strtoull_r)
/opt/gcc-linaro-7.2.1-2017.11-x86_64_arm-eabi/arm-eabi/libc/usr/lib/libc.a(lib_a-svfiprintf.o)
                              /opt/gcc-linaro-7.2.1-2017.11-x86_64_arm-eabi/arm-eabi/libc/usr/lib/libc.a(lib_a-svfprintf.o) (__ssprint_r)
/opt/gcc-linaro-7.2.1-2017.11-x86_64_arm-eabi/arm-eabi/libc/usr/lib/libc.a(lib_a-svfiscanf.o)
                              /opt/gcc-linaro-7.2.1-2017.11-x86_64_arm-eabi/arm-eabi/libc/usr/lib/libc.a(lib_a-svfscanf.o) (_sungetc_r)
/opt/gcc-linaro-7.2.1-2017.11-x86_64_arm-eabi/arm-eabi/libc/usr/lib/libc.a(lib_a-syscalls.o)
                              /opt/gcc-linaro-7.2.1-2017.11-x86_64_arm-eabi/arm-eabi/libc/usr/lib/libc.a(lib_a-readr.o) (_read)
/opt/gcc-linaro-7.2.1-2017.11-x86_64_arm-eabi/arm-eabi/libc/usr/lib/libc.a(lib_a-ungetc.o)
                              /opt/gcc-linaro-7.2.1-2017.11-x86_64_arm-eabi/arm-eabi/libc/usr/lib/libc.a(lib_a-svfiscanf.o) (__submore)
/opt/gcc-linaro-7.2.1-2017.11-x86_64_arm-eabi/arm-eabi/libc/usr/lib/libc.a(lib_a-wcsnrtombs.o)
                              /opt/gcc-linaro-7.2.1-2017.11-x86_64_arm-eabi/arm-eabi/libc/usr/lib/libc.a(lib_a-wcsrtombs.o) (_wcsnrtombs_r)
/opt/gcc-linaro-7.2.1-2017.11-x86_64_arm-eabi/arm-eabi/libc/usr/lib/libc.a(lib_a-wctomb_r.o)
                              /opt/gcc-linaro-7.2.1-2017.11-x86_64_arm-eabi/arm-eabi/libc/usr/lib/libc.a(lib_a-locale.o) (__ascii_wctomb)
/opt/gcc-linaro-7.2.1-2017.11-x86_64_arm-eabi/arm-eabi/libc/usr/lib/libc.a(lib_a-callocr.o)
                              /opt/gcc-linaro-7.2.1-2017.11-x86_64_arm-eabi/arm-eabi/libc/usr/lib/libc.a(lib_a-mprec.o) (_calloc_r)
/opt/gcc-linaro-7.2.1-2017.11-x86_64_arm-eabi/arm-eabi/libc/usr/lib/libc.a(lib_a-ctype_.o)
                              /opt/gcc-linaro-7.2.1-2017.11-x86_64_arm-eabi/arm-eabi/libc/usr/lib/libc.a(lib_a-locale.o) (__set_ctype)
/opt/gcc-linaro-7.2.1-2017.11-x86_64_arm-eabi/arm-eabi/libc/usr/lib/libc.a(lib_a-errno.o)
                              /opt/gcc-linaro-7.2.1-2017.11-x86_64_arm-eabi/arm-eabi/libc/usr/lib/libc.a(lib_a-syscalls.o) (__errno)
/opt/gcc-linaro-7.2.1-2017.11-x86_64_arm-eabi/arm-eabi/libc/usr/lib/libc.a(lib_a-fflush.o)
                              /opt/gcc-linaro-7.2.1-2017.11-x86_64_arm-eabi/arm-eabi/libc/usr/lib/libc.a(lib_a-ungetc.o) (_fflush_r)
/opt/gcc-linaro-7.2.1-2017.11-x86_64_arm-eabi/arm-eabi/libc/usr/lib/libc.a(lib_a-findfp.o)
                              /opt/gcc-linaro-7.2.1-2017.11-x86_64_arm-eabi/arm-eabi/libc/usr/lib/libc.a(lib_a-syscalls.o) (__sinit)
/opt/gcc-linaro-7.2.1-2017.11-x86_64_arm-eabi/arm-eabi/libc/usr/lib/libc.a(lib_a-fwalk.o)
                              /opt/gcc-linaro-7.2.1-2017.11-x86_64_arm-eabi/arm-eabi/libc/usr/lib/libc.a(lib_a-findfp.o) (_fwalk)
/opt/gcc-linaro-7.2.1-2017.11-x86_64_arm-eabi/arm-eabi/libc/usr/lib/libc.a(lib_a-gdtoa-gethex.o)
                              /opt/gcc-linaro-7.2.1-2017.11-x86_64_arm-eabi/arm-eabi/libc/usr/lib/libc.a(lib_a-strtod.o) (__gethex)
/opt/gcc-linaro-7.2.1-2017.11-x86_64_arm-eabi/arm-eabi/libc/usr/lib/libc.a(lib_a-gdtoa-hexnan.o)
                              /opt/gcc-linaro-7.2.1-2017.11-x86_64_arm-eabi/arm-eabi/libc/usr/lib/libc.a(lib_a-strtod.o) (__match)
/opt/gcc-linaro-7.2.1-2017.11-x86_64_arm-eabi/arm-eabi/libc/usr/lib/libc.a(lib_a-getenv_r.o)
                              /opt/gcc-linaro-7.2.1-2017.11-x86_64_arm-eabi/arm-eabi/libc/usr/lib/libc.a(lib_a-locale.o) (_getenv_r)
/opt/gcc-linaro-7.2.1-2017.11-x86_64_arm-eabi/arm-eabi/libc/usr/lib/libc.a(lib_a-reallocr.o)
                              /opt/gcc-linaro-7.2.1-2017.11-x86_64_arm-eabi/arm-eabi/libc/usr/lib/libc.a(lib_a-svfiprintf.o) (_realloc_r)
/opt/gcc-linaro-7.2.1-2017.11-x86_64_arm-eabi/arm-eabi/libc/usr/lib/libc.a(lib_a-environ.o)
                              /opt/gcc-linaro-7.2.1-2017.11-x86_64_arm-eabi/arm-eabi/libc/usr/lib/libc.a(lib_a-getenv_r.o) (environ)
/opt/gcc-linaro-7.2.1-2017.11-x86_64_arm-eabi/arm-eabi/libc/usr/lib/libc.a(lib_a-envlock.o)
                              /opt/gcc-linaro-7.2.1-2017.11-x86_64_arm-eabi/arm-eabi/libc/usr/lib/libc.a(lib_a-getenv_r.o) (__env_lock)
/opt/gcc-linaro-7.2.1-2017.11-x86_64_arm-eabi/arm-eabi/libc/usr/lib/libc.a(lib_a-fclose.o)
                              /opt/gcc-linaro-7.2.1-2017.11-x86_64_arm-eabi/arm-eabi/libc/usr/lib/libc.a(lib_a-findfp.o) (_fclose_r)
/opt/gcc-linaro-7.2.1-2017.11-x86_64_arm-eabi/arm-eabi/libc/usr/lib/libm.a(lib_a-sf_fabs.o)
                              ./../../../build/tcc70xx/gcc/tcc70xx-freertos-debug/obj/cpu_test.o (fabsf)
/opt/gcc-linaro-7.2.1-2017.11-x86_64_arm-eabi/arm-eabi/libc/usr/lib/libgcc.a(_udivsi3.o)
                              /opt/gcc-linaro-7.2.1-2017.11-x86_64_arm-eabi/arm-eabi/libc/usr/lib/libc.a(lib_a-strtoul.o) (__aeabi_uidiv)
/opt/gcc-linaro-7.2.1-2017.11-x86_64_arm-eabi/arm-eabi/libc/usr/lib/libgcc.a(_dvmd_tls.o)
                              /opt/gcc-linaro-7.2.1-2017.11-x86_64_arm-eabi/arm-eabi/libc/usr/lib/libgcc.a(_udivsi3.o) (__aeabi_idiv0)
/opt/gcc-linaro-7.2.1-2017.11-x86_64_arm-eabi/arm-eabi/libc/usr/lib/libgcc.a(_arm_addsubdf3.o)
                              /opt/gcc-linaro-7.2.1-2017.11-x86_64_arm-eabi/arm-eabi/libc/usr/lib/libc.a(lib_a-svfprintf.o) (__aeabi_dsub)
/opt/gcc-linaro-7.2.1-2017.11-x86_64_arm-eabi/arm-eabi/libc/usr/lib/libgcc.a(_arm_muldivdf3.o)
                              /opt/gcc-linaro-7.2.1-2017.11-x86_64_arm-eabi/arm-eabi/libc/usr/lib/libc.a(lib_a-svfprintf.o) (__aeabi_dmul)
/opt/gcc-linaro-7.2.1-2017.11-x86_64_arm-eabi/arm-eabi/libc/usr/lib/libgcc.a(_arm_cmpdf2.o)
                              /opt/gcc-linaro-7.2.1-2017.11-x86_64_arm-eabi/arm-eabi/libc/usr/lib/libc.a(lib_a-svfprintf.o) (__aeabi_dcmpeq)
/opt/gcc-linaro-7.2.1-2017.11-x86_64_arm-eabi/arm-eabi/libc/usr/lib/libgcc.a(_arm_unorddf2.o)
                              /opt/gcc-linaro-7.2.1-2017.11-x86_64_arm-eabi/arm-eabi/libc/usr/lib/libc.a(lib_a-svfprintf.o) (__aeabi_dcmpun)
/opt/gcc-linaro-7.2.1-2017.11-x86_64_arm-eabi/arm-eabi/libc/usr/lib/libgcc.a(_arm_fixdfsi.o)
                              /opt/gcc-linaro-7.2.1-2017.11-x86_64_arm-eabi/arm-eabi/libc/usr/lib/libc.a(lib_a-svfprintf.o) (__aeabi_d2iz)
/opt/gcc-linaro-7.2.1-2017.11-x86_64_arm-eabi/arm-eabi/libc/usr/lib/libgcc.a(_arm_fixunsdfsi.o)
                              /opt/gcc-linaro-7.2.1-2017.11-x86_64_arm-eabi/arm-eabi/libc/usr/lib/libc.a(lib_a-strtod.o) (__aeabi_d2uiz)
/opt/gcc-linaro-7.2.1-2017.11-x86_64_arm-eabi/arm-eabi/libc/usr/lib/libgcc.a(_arm_truncdfsf2.o)
                              /opt/gcc-linaro-7.2.1-2017.11-x86_64_arm-eabi/arm-eabi/libc/usr/lib/libc.a(lib_a-svfscanf.o) (__aeabi_d2f)
/opt/gcc-linaro-7.2.1-2017.11-x86_64_arm-eabi/arm-eabi/libc/usr/lib/libgcc.a(_arm_cmpsf2.o)
                              /opt/gcc-linaro-7.2.1-2017.11-x86_64_arm-eabi/arm-eabi/libc/usr/lib/libc.a(lib_a-strtod.o) (__aeabi_fcmple)
/opt/gcc-linaro-7.2.1-2017.11-x86_64_arm-eabi/arm-eabi/libc/usr/lib/libgcc.a(_arm_unordsf2.o)
                              /opt/gcc-linaro-7.2.1-2017.11-x86_64_arm-eabi/arm-eabi/libc/usr/lib/libc.a(lib_a-strtod.o) (__aeabi_fcmpun)
/opt/gcc-linaro-7.2.1-2017.11-x86_64_arm-eabi/arm-eabi/libc/usr/lib/libgcc.a(_aeabi_uldivmod.o)
                              ./../../../build/tcc70xx/gcc/tcc70xx-freertos-debug/obj/clock_dev.o (__aeabi_uldivmod)
/opt/gcc-linaro-7.2.1-2017.11-x86_64_arm-eabi/arm-eabi/libc/usr/lib/libgcc.a(_udivmoddi4.o)
                              /opt/gcc-linaro-7.2.1-2017.11-x86_64_arm-eabi/arm-eabi/libc/usr/lib/libgcc.a(_aeabi_uldivmod.o) (__udivmoddi4)
/opt/gcc-linaro-7.2.1-2017.11-x86_64_arm-eabi/arm-eabi/libc/usr/lib/libgcc.a(_clzdi2.o)
                              /opt/gcc-linaro-7.2.1-2017.11-x86_64_arm-eabi/arm-eabi/libc/usr/lib/libgcc.a(_udivmoddi4.o) (__clzdi2)
/opt/gcc-linaro-7.2.1-2017.11-x86_64_arm-eabi/arm-eabi/libc/usr/lib/libgcc.a(_clzsi2.o)
                              /opt/gcc-linaro-7.2.1-2017.11-x86_64_arm-eabi/arm-eabi/libc/usr/lib/libgcc.a(_clzdi2.o) (__clzsi2)

Allocating common symbols
Common symbol       size              file

errno               0x4               /opt/gcc-linaro-7.2.1-2017.11-x86_64_arm-eabi/arm-eabi/libc/usr/lib/libc.a(lib_a-reent.o)

Discarded input sections

 .ARM.extab     0x0000000000000000        0x0 /opt/gcc-linaro-7.2.1-2017.11-x86_64_arm-eabi/arm-eabi/libc/usr/lib/libgcc.a(_udivmoddi4.o)
 .ARM.exidx     0x0000000000000000        0x8 /opt/gcc-linaro-7.2.1-2017.11-x86_64_arm-eabi/arm-eabi/libc/usr/lib/libgcc.a(_udivmoddi4.o)

Memory Configuration

Name             Origin             Length             Attributes
SRAM             0x0000000000000000 0x0000000000079980 xrw
SRAM_CODELOAD    0x0000000000078980 0x0000000000001000 xrw
SRAM_ARM_STACK   0x0000000000079980 0x0000000000000680 xrw
CAN_NC_SRAM      0x000000000007a000 0x0000000000002000 xrw
NC_SRAM          0x000000000007c000 0x0000000000004000 xrw
REMAP_FLASH      0x0000000001043000 0x0000000000200000 xr
*default*        0x0000000000000000 0xffffffffffffffff

Linker script and memory map

                0x0000000000000000                __VECTOR_START = 0x0
                0x0000000000001000                LOADCODE_SIZE = 0x1000
                0x0000000000004000                DMA_NC_SIZE = 0x4000
                0x0000000000002000                CAN_NC_SIZE = 0x2000
                0x0000000000080000                SRAM_TOTAL_SIZE = 0x80000
                0x0000000000000680                ARM_STACK_SIZE = 0x680
                0x000000000007a000                STACK_BASE_ADDR = (((__VECTOR_START + SRAM_TOTAL_SIZE) - DMA_NC_SIZE) - CAN_NC_SIZE)

.text           0x0000000001043000    0xb94c8
                0x0000000001043000                __TEXT_START__ = .
 *startup.o(.text)
 .text          0x0000000001043000      0x240 ./../../../build/tcc70xx/gcc/tcc70xx-freertos-debug/obj/startup.o
                0x0000000001043000                reset
 *(.text)
 .text          0x0000000001043240      0x4a0 ./../../../build/tcc70xx/gcc/tcc70xx-freertos-debug/obj/main.o
                0x0000000001043240                cmain
 .text          0x00000000010436e0     0x1a6c ./../../../build/tcc70xx/gcc/tcc70xx-freertos-debug/obj/can_demo.o
                0x00000000010448cc                CAN_DemoInitialize
                0x0000000001044b20                CAN_DemoTest
                0x0000000001045044                CAN_DemoCreateApp
 .text          0x000000000104514c      0x680 ./../../../build/tcc70xx/gcc/tcc70xx-freertos-debug/obj/can_vcp_ctrl.o
                0x000000000104514c                InitSensorControls
                0x000000000104554c                ControlBreadBoardSensors
 .text          0x00000000010457cc     0x3d34 ./../../../build/tcc70xx/gcc/tcc70xx-freertos-debug/obj/console.o
                0x0000000001049484                CreateConsoleTask
 .text          0x0000000001049500     0x20c0 ./../../../build/tcc70xx/gcc/tcc70xx-freertos-debug/obj/fwupdate.o
                0x0000000001049830                FWUD_Start
                0x000000000104ade0                FWUD_Sync
                0x000000000104b544                CreateFWUDTask
 .text          0x000000000104b5c0       0xa8 ./../../../build/tcc70xx/gcc/tcc70xx-freertos-debug/obj/idle.o
                0x000000000104b5ec                IDLE_CreateTask
 .text          0x000000000104b668     0x1200 ./../../../build/tcc70xx/gcc/tcc70xx-freertos-debug/obj/iperf_task_v3_0d.o
                0x000000000104b6d8                vIPerfInstall
                0x000000000104c714                vIPerfTask
 .text          0x000000000104c868      0x404 ./../../../build/tcc70xx/gcc/tcc70xx-freertos-debug/obj/spi_led.o
                0x000000000104cba0                SPILED_StatusOn
                0x000000000104cbc8                SPILED_StatusOff
                0x000000000104cbf0                SPILED_CreateAppTask
 .text          0x000000000104cc6c      0xb0c ./../../../build/tcc70xx/gcc/tcc70xx-freertos-debug/obj/audio_test.o
                0x000000000104cc6c                AUDIO_Read
                0x000000000104cce4                AUDIO_DACHwMute
                0x000000000104cd2c                AUDIO_CreateAppTask
                0x000000000104cfc0                AUDIO_Init
                0x000000000104d14c                AUDIO_SampleTest
                0x000000000104d6a8                AUDIO_TestUsage
 .text          0x000000000104d778      0x37c ./../../../build/tcc70xx/gcc/tcc70xx-freertos-debug/obj/audio_chip_veri.o
                0x000000000104d778                DR_Irq
                0x000000000104d7e8                AUDIO_LRMode_Test
                0x000000000104dacc                AUDIO_ErrorOcuur_TEST
 .text          0x000000000104daf4      0x698 ./../../../build/tcc70xx/gcc/tcc70xx-freertos-debug/obj/wm8904.o
                0x000000000104daf4                WM8904_SendCmd
                0x000000000104dc48                WM8904_ReadCmd
                0x000000000104dd90                WM8904_Initial
                0x000000000104e098                WM8904_SetVolume
 *fill*         0x000000000104e18c        0x4 
 .text          0x000000000104e190      0x6a0 ./../../../build/tcc70xx/gcc/tcc70xx-freertos-debug/obj/cpu_test.o
                0x000000000104e190                Disble_Cache
                0x000000000104e1c0                Enable_Cache
                0x000000000104e2c4                Calculate_CacheTime
                0x000000000104e3ec                Calculate_FPU
                0x000000000104e794                RemapMicomTest
 .text          0x000000000104e830      0x6dc ./../../../build/tcc70xx/gcc/tcc70xx-freertos-debug/obj/dse_test.o
                0x000000000104e898                DSE_Test_R5AccessFault
                0x000000000104eba4                DSE_Test_SoftFaultCheck
 .text          0x000000000104ef0c     0x2e88 ./../../../build/tcc70xx/gcc/tcc70xx-freertos-debug/obj/eflash_test.o
                0x000000000104fac8                EFLASHTest_ECC
                0x000000000104fd64                EFLASHTest_RESET
                0x000000000104ff00                EFLASHTest_Int_Test
                0x00000000010504b8                EFLASHTest_PflashAccessControl
                0x0000000001050754                EFLASHTest_Int_DFLASHTest
                0x0000000001051034                EFLASHTest_DflashEcc
                0x00000000010512d0                EFLASHTest_DflashAccessControl
                0x000000000105156c                EFLASHTest_flashEraseWrite
                0x0000000001051980                EFLASHTest_snorEraseWrite
 .text          0x0000000001051d94      0x6b4 ./../../../build/tcc70xx/gcc/tcc70xx-freertos-debug/obj/fmu_test.o
                0x00000000010523f4                FMU_StartFmuTest
 .text          0x0000000001052448      0x39c ./../../../build/tcc70xx/gcc/tcc70xx-freertos-debug/obj/gdma_test.o
                0x0000000001052448                GDMA_SampleForM2M
 .text          0x00000000010527e4        0x0 ./../../../build/tcc70xx/gcc/tcc70xx-freertos-debug/obj/gdma_ip_test.o
 .text          0x00000000010527e4      0x440 ./../../../build/tcc70xx/gcc/tcc70xx-freertos-debug/obj/gic_test.o
                0x00000000010528bc                GIC_Test_SmInt
                0x0000000001052a94                GIC_Test_Sgi
 .text          0x0000000001052c24     0x41a4 ./../../../build/tcc70xx/gcc/tcc70xx-freertos-debug/obj/gpio_test.o
                0x0000000001056d38                GPIO_StartGpioTest
 .text          0x0000000001056dc8     0x2234 ./../../../build/tcc70xx/gcc/tcc70xx-freertos-debug/obj/gpsb_test.o
                0x0000000001058a6c                GPSB_CreateSlaveTestTask
                0x0000000001058b10                GPSB_Test
 .text          0x0000000001058ffc     0x5f3c ./../../../build/tcc70xx/gcc/tcc70xx-freertos-debug/obj/hsm_test.o
                0x000000000105ecf0                HSM_Test
 .text          0x000000000105ef38      0x798 ./../../../build/tcc70xx/gcc/tcc70xx-freertos-debug/obj/i2c_test.o
                0x000000000105f6b0                I2C_TestMain
 .text          0x000000000105f6d0      0x838 ./../../../build/tcc70xx/gcc/tcc70xx-freertos-debug/obj/ictc_test.o
                0x000000000105fea8                ICTC_SelectTestCase
 .text          0x000000000105ff08      0xb88 ./../../../build/tcc70xx/gcc/tcc70xx-freertos-debug/obj/lin_test.o
                0x000000000105ff08                LIN_TestUsage
                0x000000000105ff78                LIN_GetDLC
                0x000000000105ffe4                LIN_UserResponse
                0x0000000001060130                LIN_CreateAppTask
                0x00000000010605a4                LIN_SampleTest
 .text          0x0000000001060a90      0x76c ./../../../build/tcc70xx/gcc/tcc70xx-freertos-debug/obj/pdm_test.o
                0x000000000106118c                PDM_SelectTestCase
 .text          0x00000000010611fc      0x8bc ./../../../build/tcc70xx/gcc/tcc70xx-freertos-debug/obj/pmu_test.o
                0x000000000106128c                PMU_TEST_FmuMonitoringTest
                0x00000000010613ec                PMU_TEST_GetRstStatus
                0x00000000010618cc                PMU_TEST_RstMonitoringTest
                0x0000000001061a44                PMU_TEST_RstReqTest
 .text          0x0000000001061ab8      0x564 ./../../../build/tcc70xx/gcc/tcc70xx-freertos-debug/obj/rtc_test.o
                0x0000000001061bbc                RTC_TEST_Time
                0x0000000001061e38                RTC_TEST_Alarm
 .text          0x000000000106201c      0x128 ./../../../build/tcc70xx/gcc/tcc70xx-freertos-debug/obj/sfmc_test.o
                0x00000000010620c0                SFMC_Test
 .text          0x0000000001062144      0x7c8 ./../../../build/tcc70xx/gcc/tcc70xx-freertos-debug/obj/echo_test.o
                0x0000000001062144                SOCKTEST_IPInit
                0x0000000001062378                SOCKTEST_EchoSend
                0x000000000106268c                SOCKTEST_EchoRecv
 .text          0x000000000106290c     0x12d4 ./../../../build/tcc70xx/gcc/tcc70xx-freertos-debug/obj/timer_test.o
                0x0000000001063ad8                TIMER_StartTimerTest
 .text          0x0000000001063be0      0xd94 ./../../../build/tcc70xx/gcc/tcc70xx-freertos-debug/obj/uart_test.o
                0x0000000001064640                UART_ConsoleTxTest
                0x00000000010648f8                UART_SelectTestCase
 .text          0x0000000001064974     0x1518 ./../../../build/tcc70xx/gcc/tcc70xx-freertos-debug/obj/wdt_test.o
                0x0000000001065b90                WDT_StartTest
 .text          0x0000000001065e8c     0x1014 ./../../../build/tcc70xx/gcc/tcc70xx-freertos-debug/obj/writelock_test.o
                0x0000000001066e70                Test_WriteProtection
 .text          0x0000000001066ea0      0x178 ./../../../build/tcc70xx/gcc/tcc70xx-freertos-debug/obj/eth_test.o
                0x0000000001066ea0                ETH_TestSend
                0x0000000001066ecc                ETH_TestInit
                0x0000000001066ef0                ETH_TestIPInit
                0x0000000001066fe0                ETH_TestIperf
                0x0000000001066ff4                ETH_TestLoopback
 .text          0x0000000001067018     0x1580 ./../../../build/tcc70xx/gcc/tcc70xx-freertos-debug/obj/spu_test.o
                0x0000000001067ea0                SPU_SelectTestCase
                0x0000000001068184                SPU_Test_SSL_With_Key
 .text          0x0000000001068598      0x780 ./../../../build/tcc70xx/gcc/tcc70xx-freertos-debug/obj/power_app.o
                0x0000000001068c7c                POWER_APP_StartDemo
 .text          0x0000000001068d18     0x20dc ./../../../build/tcc70xx/gcc/tcc70xx-freertos-debug/obj/power_com.o
                0x000000000106a114                POWER_COM_Start
                0x000000000106a598                POWER_COM_HaltCh
                0x000000000106a6b0                POWER_COM_SendMsg
                0x000000000106a8e4                POWER_COM_RecvMsg
 .text          0x000000000106adf4     0x25dc ./../../../build/tcc70xx/gcc/tcc70xx-freertos-debug/obj/spi_eccp.o
                0x000000000106adf4                ECCP_InitSPIManager
                0x000000000106b288                ECCP_Open
                0x000000000106b4d4                ECCP_Send
                0x000000000106b674                ECCP_Recv
                0x000000000106d2c8                ECCP_Dump
 .text          0x000000000106d3d0     0x6068 ./../../../build/tcc70xx/gcc/tcc70xx-freertos-debug/obj/hsm_manager.o
                0x000000000106d3d0                HSM_Init
                0x000000000106dc2c                HSM_UpdateVerify
                0x000000000106dfc4                HSM_VerifyFw
                0x000000000106e118                HSM_SetKey
                0x000000000106e350                HSM_RunAes
                0x000000000106e9ac                HSM_RunAesByKt
                0x000000000106ef80                HSM_GenMac
                0x000000000106f458                HSM_GenMacByKt
                0x000000000106f8a8                HSM_Verifymac
                0x000000000106fd64                HSM_GenHash
                0x00000000010700e0                HSM_RunRsassa
                0x000000000107055c                HSM_RunEcdsa
                0x0000000001070b20                HSM_RunEcdhPhaseI
                0x0000000001071024                HSM_RunEcdhPhaseII
                0x00000000010714ac                HSM_ComputeEcdhPubKey
                0x000000000107188c                HSM_Pbkdf2
                0x0000000001071d88                HSM_CertiParse
                0x000000000107209c                HSM_CertiVerify
                0x0000000001072364                HSM_DfWrite
                0x0000000001072600                HSM_TRNG
                0x0000000001072898                HSM_PRNG
                0x0000000001072be0                HSM_SelectBank
                0x0000000001072d98                HSM_GetVersion
                0x0000000001072fd0                HSM_ProgramLDT
                0x0000000001073250                HSM_ReadLDT
 .text          0x0000000001073438     0x18a0 ./../../../build/tcc70xx/gcc/tcc70xx-freertos-debug/obj/lin.o
                0x00000000010734a4                LIN_CalcProtectId
                0x0000000001073714                LIN_CalcFrameId
                0x0000000001073878                LIN_CalClassicChecksum
                0x00000000010739d8                LIN_CalEnhancedChecksum
                0x0000000001073ccc                LIN_ReadHeader
                0x0000000001074084                LIN_ReadResponse
                0x0000000001074454                LIN_FlushRxData
                0x0000000001074504                LIN_Init
                0x00000000010747ec                LIN_MasterTx
                0x0000000001074898                LIN_MasterRx
                0x00000000010748f8                LIN_GetStatus
                0x0000000001074a3c                LIN_RegisterCB
 .text          0x0000000001074cd8      0x104 ./../../../build/tcc70xx/gcc/tcc70xx-freertos-debug/obj/swl.o
                0x0000000001074d74                SWL_Init
                0x0000000001074da8                SWL_Write
 .text          0x0000000001074ddc      0x848 ./../../../build/tcc70xx/gcc/tcc70xx-freertos-debug/obj/adc.o
                0x0000000001075148                ADC_Init
                0x00000000010752d0                ADC_Read
                0x0000000001075510                ADC_AutoScan
                0x00000000010755e0                ADC_DeInit
 .text          0x0000000001075624      0xa48 ./../../../build/tcc70xx/gcc/tcc70xx-freertos-debug/obj/can.o
                0x0000000001075624                CAN_Init
                0x00000000010757bc                CAN_Deinit
                0x00000000010758e8                CAN_InitMessage
                0x0000000001075970                CAN_CheckNewRxMessage
                0x00000000010759b8                CAN_GetNewRxMessage
                0x0000000001075aac                CAN_SendMessage
                0x0000000001075bb0                CAN_RequestTxMessageCancellation
                0x0000000001075c70                CAN_CheckNewTxEvent
                0x0000000001075cb8                CAN_GetNewTxEvent
                0x0000000001075d18                CAN_SetControllerMode
                0x0000000001075e6c                CAN_GetControllerMode
                0x0000000001075ef0                CAN_GetProtocolStatus
                0x0000000001075f70                CAN_RegisterCallbackFunctionTx
                0x0000000001075fc4                CAN_RegisterCallbackFunctionRx
                0x0000000001076018                CAN_RegisterCallbackFunctionError
 .text          0x000000000107606c     0x3424 ./../../../build/tcc70xx/gcc/tcc70xx-freertos-debug/obj/can_drv.o
                0x000000000107606c                CAN_DrvGetControllerInfo
                0x0000000001076304                CAN_DrvInitChannel
                0x00000000010763d0                CAN_DrvDeinitChannel
                0x00000000010764b0                CAN_DrvSetNormalOperationMode
                0x0000000001076634                CAN_DrvSetMonitoringMode
                0x000000000107671c                CAN_DrvResetController
                0x0000000001076770                CAN_DrvSetInternalTestMode
                0x0000000001076880                CAN_DrvSetExternalTestMode
                0x000000000107697c                CAN_DrvSetWakeUpMode
                0x0000000001076af8                CAN_DrvSetSleepMode
                0x000000000107878c                CAN_DrvGetProtocolStatus
                0x0000000001079314                CAN_DrvCallbackNotifyRxEvent
 .text          0x0000000001079490     0x1b68 ./../../../build/tcc70xx/gcc/tcc70xx-freertos-debug/obj/can_msg.o
                0x0000000001079490                CAN_MsgInit
                0x000000000107a24c                CAN_MsgPutRxMessage
                0x000000000107a2f0                CAN_MsgGetCountOfRxMessage
                0x000000000107a424                CAN_MsgGetRxMessage
                0x000000000107a928                CAN_MsgSetTxMessage
                0x000000000107ac8c                CAN_MsgRequestTxMessageCancellation
                0x000000000107ad20                CAN_MsgGetCountOfTxEvent
                0x000000000107adac                CAN_MsgGetTxEventMessage
 .text          0x000000000107aff8        0x0 ./../../../build/tcc70xx/gcc/tcc70xx-freertos-debug/obj/can_par.o
 .text          0x000000000107aff8      0xd24 ./../../../build/tcc70xx/gcc/tcc70xx-freertos-debug/obj/can_porting.o
                0x000000000107aff8                CAN_PortingDelay
                0x000000000107b05c                CAN_PortingInitHW
                0x000000000107b188                CAN_PortingSetControllerClock
                0x000000000107b25c                CAN_PortingResetDriver
                0x000000000107b3e0                CAN_PortingSetInterruptHandler
                0x000000000107b458                CAN_PortingDisableControllerInterrupts
                0x000000000107b4ac                CAN_PortingEnableControllerInterrupts
                0x000000000107b500                CAN_PortingGetSizeofStandardIDFilterList
                0x000000000107b544                CAN_PortingGetSizeofExtendedIDFilterList
                0x000000000107b588                CAN_PortingGetSizeofRxFIFO0
                0x000000000107b5cc                CAN_PortingGetSizeofRxFIFO1
                0x000000000107b610                CAN_PortingGetSizeofRxBuffer
                0x000000000107b654                CAN_PortingGetSizeofTxEventBuffer
                0x000000000107b698                CAN_PortingGetSizeofTxBuffer
                0x000000000107b6dc                CAN_PortingGetBitRateSwitchEnable
                0x000000000107b720                CAN_PortingGetFDEnable
                0x000000000107b764                CAN_PortingGetStandardIDFilterEnable
                0x000000000107b7a8                CAN_PortingGetExtendedIDFilterEnable
                0x000000000107b7ec                CAN_PortingGetStandardIDRemoteRejectEnable
                0x000000000107b830                CAN_PortingGetExtendedIDRemoteRejectEnable
                0x000000000107b874                CAN_PortingGetTxEventFIFOEnable
                0x000000000107b8b8                CAN_PortingGetWatchDogEnable
                0x000000000107b8fc                CAN_PortingGetTimeOutEnable
                0x000000000107b940                CAN_PortingGetTimeStampEnable
                0x000000000107b984                CAN_PortingAllocateNonCacheMemory
                0x000000000107ba14                CAN_PortingDeallocateNonCacheMemory
                0x000000000107ba54                CAN_PortingGetControllerRegister
                0x000000000107badc                CAN_PortingGetConfigBaseAddr
                0x000000000107bb08                CAN_PortingGetMessageRamBaseAddr
                0x000000000107bb94                CAN_PortingGetConfigEXTS0Addr
                0x000000000107bc10                CAN_PortingGetConfigEXTS1Addr
                0x000000000107bc8c                CAN_PortingGetConfigWritePasswordAddr
                0x000000000107bcd4                CAN_PortingGetConfigWriteLockAddr
 *fill*         0x000000000107bd1c        0x4 
 .text          0x000000000107bd20     0x22a0 ./../../../build/tcc70xx/gcc/tcc70xx-freertos-debug/obj/clock_dev.o
                0x000000000107ce6c                CLOCK_Init
                0x000000000107cf34                CLOCK_SetPllDiv
                0x000000000107d098                CLOCK_GetPllRate
                0x000000000107d110                CLOCK_SetPllRate
                0x000000000107d6d4                CLOCK_SetClkCtrlRate
                0x000000000107d774                CLOCK_GetClkCtrlRate
                0x000000000107d8cc                CLOCK_IsPeriEnabled
                0x000000000107d934                CLOCK_EnablePeri
                0x000000000107d994                CLOCK_DisablePeri
                0x000000000107d9f4                CLOCK_GetPeriRate
                0x000000000107db70                CLOCK_SetPeriRate
                0x000000000107dc8c                CLOCK_IsIobusPwdn
                0x000000000107dd40                CLOCK_EnableIobus
                0x000000000107dde0                CLOCK_SetIobusPwdn
                0x000000000107ded0                CLOCK_SetSwReset
 .text          0x000000000107dfc0      0xba8 ./../../../build/tcc70xx/gcc/tcc70xx-freertos-debug/obj/debug.o
                0x000000000107dfc0                DBG_Putc
                0x000000000107e420                DBG_Printfi
                0x000000000107eb3c                DBG_SerialPrintf
 .text          0x000000000107eb68      0x118 ./../../../build/tcc70xx/gcc/tcc70xx-freertos-debug/obj/bsp.o
                0x000000000107eb68                BSP_PreInit
                0x000000000107eb88                BSP_Init
                0x000000000107ebf0                BSP_UndefAbortExceptionHook
                0x000000000107ec18                BSP_SystemHalt
                0x000000000107ec58                BSP_EnableSYSPower
 .text          0x000000000107ec80      0x440 ./../../../build/tcc70xx/gcc/tcc70xx-freertos-debug/obj/dse.o
                0x000000000107ece8                DSE_WriteLock
                0x000000000107eee0                DSE_Deinit
                0x000000000107ef3c                DSE_Init
                0x000000000107f094                DSE_GetGrpSts
 .text          0x000000000107f0c0     0x2650 ./../../../build/tcc70xx/gcc/tcc70xx-freertos-debug/obj/eflash.o
                0x000000000107fc10                EFLASH_WriteByte
                0x00000000010801a0                EFLASH_DFLASH_WriteByte
                0x00000000010804cc                EFLASH_Erase
                0x0000000001080ae0                EFLASH_Init
                0x0000000001080b1c                EFLASH_FWDN_LowFormat
                0x0000000001080b7c                EFLASH_FWDN_Read
                0x0000000001080d5c                EFLASH_FWDN_Write
                0x0000000001081670                FLASH_ReadLDT
 .text          0x0000000001081710     0x2798 ./../../../build/tcc70xx/gcc/tcc70xx-freertos-debug/obj/eth.o
                0x00000000010817e4                ETH_PrintPkt
                0x0000000001082018                ETH_UpdateLink
                0x0000000001082304                ETH_GetLinkStatus
                0x0000000001082328                ETH_Rx
                0x0000000001082848                ETH_SetMacAddress
                0x000000000108335c                ETH_Send
                0x00000000010833a0                ETH_Recv
                0x00000000010834f4                ETH_SetRecvBuff
                0x00000000010835d0                ETH_RegisterTask
                0x0000000001083600                ETH_CreateRecvTask
                0x0000000001083778                ETH_SetRecvCallback
                0x00000000010837a8                ETH_Prepare
                0x0000000001083870                ETH_Init
                0x0000000001083888                ETH_CornerSample_Test
 .text          0x0000000001083ea8     0x120c ./../../../build/tcc70xx/gcc/tcc70xx-freertos-debug/obj/eth_mii.o
                0x00000000010842f0                PHY_Read
                0x000000000108436c                PHY_Write
                0x000000000108467c                PHY_SetMasterSlave
                0x0000000001084718                PHY_GetMasterSlave
                0x000000000108476c                PHY_ReadStatus
                0x00000000010848ec                PHY_Init
                0x0000000001084cd0                PHY_InitLoopback
 .text          0x00000000010850b4     0x1788 ./../../../build/tcc70xx/gcc/tcc70xx-freertos-debug/obj/fmu.o
                0x0000000001086324                FMU_Init
                0x00000000010863ac                FMU_IsrHandler
                0x00000000010864b4                FMU_Set
                0x00000000010867b0                FMU_IsrClr
                0x0000000001086808                FMU_Deinit
 .text          0x000000000108683c     0x1470 ./../../../build/tcc70xx/gcc/tcc70xx-freertos-debug/obj/gdma.o
                0x000000000108683c                GDMA_InterruptEnable
                0x0000000001086938                GDMA_InterruptDisable
                0x0000000001086a34                GDMA_SetAddrIncrement
                0x0000000001086b2c                GDMA_SetTransferWidth
                0x0000000001086c24                GDMA_SetBurstSize
                0x0000000001086d1c                GDMA_SetTransferSize
                0x0000000001086df4                GDMA_SetFlowControl
                0x0000000001086ecc                GDMA_Reset
                0x0000000001086f38                GDMA_SetPeri
                0x0000000001086ff8                GDMA_GetTransferSize
                0x0000000001087298                GDMA_ChannelEnable
                0x0000000001087360                GDMA_WaitInterrupt
                0x0000000001087440                GDMA_ChannelDisable
                0x00000000010875bc                GDMA_SetSrcAddr
                0x0000000001087664                GDMA_SetDestAddr
                0x000000000108770c                GDMA_SetlliAddr
                0x00000000010877b4                GDMA_TransferMem2Mem
                0x0000000001087a7c                GDMA_Init
 .text          0x0000000001087cac      0xda8 ./../../../build/tcc70xx/gcc/tcc70xx-freertos-debug/obj/gic.o
                0x0000000001087f4c                GIC_Init
                0x0000000001088084                GIC_IntSrcEn
                0x00000000010881ac                GIC_IntSrcDis
                0x00000000010882d4                GIC_IntPrioSet
                0x0000000001088364                GIC_IntVectSet
                0x0000000001088588                GIC_IntHandlerWithParam
                0x0000000001088670                GIC_IntHandler
                0x000000000108876c                GIC_IntSGI
                0x0000000001088814                GIC_SmIrqEn
                0x0000000001088934                GIC_SmIrqSetHigh
 .text          0x0000000001088a54      0xff8 ./../../../build/tcc70xx/gcc/tcc70xx-freertos-debug/obj/gpio.o
                0x0000000001088adc                GPIO_Config
                0x0000000001088fdc                GPIO_Get
                0x0000000001089060                GPIO_Set
                0x000000000108912c                GPIO_ToNum
                0x000000000108921c                GPIO_PerichSel
                0x0000000001089470                GPIO_MfioCfg
                0x0000000001089908                GPIO_IntExtSet
 .text          0x0000000001089a4c     0x87f0 ./../../../build/tcc70xx/gcc/tcc70xx-freertos-debug/obj/gpsb.o
                0x000000000108a7a4                GPSB_Reset
                0x000000000108b6a4                GPSB_SetSpeed
                0x000000000108b974                GPSB_SetBpw
                0x000000000108bc80                GPSB_SetBpwNoSwap
                0x000000000108bed0                GPSB_SetMode
                0x000000000108c444                GPSB_CsAlloc
                0x000000000108c5cc                GPSB_CsInit
                0x000000000108c6bc                GPSB_CsActivate
                0x000000000108c770                GPSB_CsDeactivate
                0x000000000108dbd0                GPSB_AsyncXfer
                0x000000000108e09c                GPSB_Xfer
                0x000000000108e864                GPSB_Open
                0x000000000108f044                GPSB_Close
                0x000000000109087c                GPSB_SetLbCfg
                0x00000000010909f4                GPSB_ClearLbCfg
                0x0000000001091020                GPSB_Init
                0x00000000010911c8                GPSB_Deinit
                0x0000000001091228                GPSB_SafetyEnableLock
                0x0000000001091340                GPSB_SafetyDisableLock
                0x0000000001091458                GPSB_SafetyEnableLoopback
                0x00000000010915c4                GPSB_SafetyDisableLoopback
                0x00000000010916dc                GPSB_SafetyEnableMonitor
                0x0000000001091904                GPSB_SafetyDisableMonitor
                0x00000000010919d0                GPSB_SafetyGetStatus
                0x0000000001091ba4                GPSB_FillSlaveTXData
                0x0000000001091dc0                GPSB_SetSlaveDMAMode
                0x00000000010920cc                GPSB_GetSlaveRXData
                0x0000000001092108                GPSB_GetStatus
                0x0000000001092148                GPSB_ClearDMABuffer
 .text          0x000000000109223c        0x0 ./../../../build/tcc70xx/gcc/tcc70xx-freertos-debug/obj/gpsb_reg.o
 .text          0x000000000109223c     0x5050 ./../../../build/tcc70xx/gcc/tcc70xx-freertos-debug/obj/i2c.o
                0x00000000010926e0                I2C_ScanSlave
                0x0000000001094450                I2C_Xfer
                0x0000000001094718                I2C_XferCmd
                0x0000000001096934                I2C_Open
                0x0000000001096d74                I2C_Close
                0x0000000001097144                I2C_Init
                0x000000000109724c                I2C_Deinit
 .text          0x000000000109728c        0x0 ./../../../build/tcc70xx/gcc/tcc70xx-freertos-debug/obj/i2c_reg.o
 .text          0x000000000109728c     0x2704 ./../../../build/tcc70xx/gcc/tcc70xx-freertos-debug/obj/i2s.o
                0x00000000010972f8                I2S_SetGpiofunction
                0x000000000109760c                I2S_SetClock
                0x0000000001097be8                I2S_GetTransferSize
                0x0000000001097d44                I2S_SetTransferSize
                0x0000000001097f44                I2S_TxAdmaSetting
                0x000000000109812c                I2S_SetTASMode
                0x0000000001098158                I2S_SetAICMode
                0x0000000001098184                I2S_TASClear
                0x00000000010981c4                I2S_SetTASRxFifoThreshold
                0x0000000001098200                I2S_SetTASTxFifoThreshold
                0x000000000109823c                I2S_HopClear
                0x000000000109827c                I2S_FifoClear
                0x00000000010982f0                I2S_DmaReset
                0x0000000001098358                I2S_SWReset
                0x00000000010983c4                I2S_DaifSetting
                0x000000000109869c                I2S_DAMREnable
                0x00000000010986c8                I2S_DAMRDisable
                0x00000000010986f4                I2S_DAIEnable
                0x0000000001098760                I2S_DAIDisable
                0x00000000010987cc                I2S_DMAInit
                0x0000000001098914                I2S_DMAEnable
                0x0000000001098980                I2S_DMADisable
                0x00000000010989ec                I2S_Irq_Enable
                0x0000000001098a58                I2S_Irq_Disable
                0x0000000001098ac4                I2S_ErrCheck_Enable
                0x0000000001098b04                I2S_ErrCheck_Disable
                0x0000000001098b40                I2S_ErrCheck_Clear
                0x0000000001098b80                I2S_ErrCheck_GetStatus
                0x0000000001098bac                I2S_Enable
                0x0000000001098bf0                I2S_Disable
                0x0000000001098c38                I2S_GetTxDMAStatus
                0x0000000001098c64                I2S_SetTxDaSar
                0x0000000001098c94                I2S_SetTxDaSarL
                0x0000000001098cc4                I2S_GetTxDaCsar
                0x0000000001098ce8                I2S_GetTxDaCsarL
                0x0000000001098d0c                I2S_Irq
                0x0000000001098df4                I2S_UpdateStatus
                0x00000000010993f4                I2S_GetAvailable
                0x000000000109951c                I2S_PcmWrite
                0x00000000010996f0                I2S_PcmRead
                0x00000000010998c0                I2S_RepeatMode
 .text          0x0000000001099990     0x1fe4 ./../../../build/tcc70xx/gcc/tcc70xx-freertos-debug/obj/ictc.o
                0x0000000001099990                ICTC_GetIsrResult
                0x00000000010999e8                ICTC_ClearIsrResult
                0x0000000001099d20                ICTC_Init
                0x0000000001099ff4                ICTC_Deinit
                0x000000000109a094                ICTC_GetPrePeriodCnt
                0x000000000109a1c8                ICTC_GetPreDutyCnt
                0x000000000109a2fc                ICTC_GetCurEdgeCnt
                0x000000000109a430                ICTC_GetPrvEdgeCnt
                0x000000000109a564                ICTC_GetREdgeTstmpCnt
                0x000000000109a794                ICTC_GetFEdgeTstmpCnt
                0x000000000109aabc                ICTC_EnableCapture
                0x000000000109abd4                ICTC_DisableCapture
                0x000000000109acf8                ICTC_SetOpEnCtrlCounter
                0x000000000109adb4                ICTC_SetOpModeCtrlReg
                0x000000000109b308                ICTC_SetIRQCtrlReg
                0x000000000109b5f8                ICTC_SetCallBackFunc
                0x000000000109b6a0                ICTC_SetTimeoutValue
                0x000000000109b728                ICTC_SetEdgeMatchingValue
                0x000000000109b880                ICTC_SetCompareRoundValue
 .text          0x000000000109b974      0x508 ./../../../build/tcc70xx/gcc/tcc70xx-freertos-debug/obj/mbox.o
                0x000000000109b974                MBOX_Init
                0x000000000109b9d0                MBOX_DevSendSss
                0x000000000109bc64                MBOX_DevRecvSss
                0x000000000109be40                MBOX_Flush
 .text          0x000000000109be7c      0x884 ./../../../build/tcc70xx/gcc/tcc70xx-freertos-debug/obj/midf.o
                0x000000000109be7c                MIDF_FilterInitialize
                0x000000000109c118                MIDF_RegisterFilterRegion
                0x000000000109c45c                MIDF_UnregisterFilterRegion
 .text          0x000000000109c700      0x420 ./../../../build/tcc70xx/gcc/tcc70xx-freertos-debug/obj/mpu.o
                0x000000000109c850                MPU_Init
                0x000000000109cac8                MPU_GetDMABaseAddress
                0x000000000109caf4                MPU_GetCANBaseAddress
 .text          0x000000000109cb20       0x68 ./../../../build/tcc70xx/gcc/tcc70xx-freertos-debug/obj/preload.o
                0x000000000109cb20                PRELOAD_loadOnRam
 .text          0x000000000109cb88     0x34f4 ./../../../build/tcc70xx/gcc/tcc70xx-freertos-debug/obj/pdm.o
                0x000000000109f14c                PDM_CfgSetWrPw
                0x000000000109f18c                PDM_CfgSetWrLock
                0x000000000109f1cc                PDM_EnableClock
                0x000000000109f34c                PDM_DisableClock
                0x000000000109f374                PDM_Init
                0x000000000109f8a0                PDM_Deinit
                0x000000000109f8f0                PDM_Enable
                0x000000000109fb48                PDM_Disable
                0x000000000109fd30                PDM_GetChannelStatus
                0x000000000109fe38                PDM_SetConfig
 .text          0x00000000010a007c     0x19f4 ./../../../build/tcc70xx/gcc/tcc70xx-freertos-debug/obj/pmio_dev.o
                0x00000000010a0bc0                PMIO_EarlyWakeUp
                0x00000000010a0c18                PMIO_PowerDown
                0x00000000010a0de4                PMIO_DebugPrintPowerStatus
                0x00000000010a1018                PMIO_Init
                0x00000000010a1298                PMIO_GetBootReason
                0x00000000010a1394                PMIO_SetGpk
                0x00000000010a13d8                PMIO_SetNotiGpkIrq
 .text          0x00000000010a1a70      0x674 ./../../../build/tcc70xx/gcc/tcc70xx-freertos-debug/obj/pmio_dev_extn_pw_ctl.o
                0x00000000010a1b6c                PMIO_EXTN_Init
                0x00000000010a1ec0                PMIO_EXTN_SetStr
                0x00000000010a1f94                PMIO_EXTN_SetPower
                0x00000000010a20c0                PMIO_EXTN_GetUsingGpk32
 .text          0x00000000010a20e4      0x914 ./../../../build/tcc70xx/gcc/tcc70xx-freertos-debug/obj/pmu.o
                0x00000000010a2594                PMU_Init
                0x00000000010a26c0                PMU_GetResetOccur
                0x00000000010a27d8                PMU_EnableResetMonitor
                0x00000000010a2840                PMU_DisableResetMonitor
                0x00000000010a28a8                PMU_ColdReset
                0x00000000010a28e4                PMU_WarmReset
                0x00000000010a2920                PMU_ClearPvtError
 .text          0x00000000010a29f8      0xd18 ./../../../build/tcc70xx/gcc/tcc70xx-freertos-debug/obj/rtc_dev.o
                0x00000000010a2f00                RTC_Init
                0x00000000010a2f9c                RTC_SetTime
                0x00000000010a30d8                RTC_GetTime
                0x00000000010a321c                RTC_SetAlarm
                0x00000000010a3584                RTC_EnableAlarm
                0x00000000010a36e0                RTC_ClearAlarm
 .text          0x00000000010a3710     0xb964 ./../../../build/tcc70xx/gcc/tcc70xx-freertos-debug/obj/snor_mio.o
                0x00000000010aa718                SNOR_MIO_Init
                0x00000000010ad330                SNOR_MIO_Erase
                0x00000000010ae094                SNOR_MIO_Write
                0x00000000010ae3c0                SNOR_MIO_Read_Fast
                0x00000000010ae454                SNOR_MIO_Read
                0x00000000010ae4e8                SNOR_MIO_FWDN_LowFormat
                0x00000000010ae51c                SNOR_MIO_FWDN_Read
                0x00000000010ae69c                SNOR_MIO_FWDN_Write
                0x00000000010aef14                SNOR_MIO_AutoRun
 *fill*         0x00000000010af074        0x4 
 .text          0x00000000010af078     0x2448 ./../../../build/tcc70xx/gcc/tcc70xx-freertos-debug/obj/spu.o
                0x00000000010af398                SPU_Get_STS
                0x00000000010af444                SPU_Init
                0x00000000010af700                SPU_DeInit
                0x00000000010af738                SPU_Start_WG_Chain
                0x00000000010af940                SPU_Stop_WG_Chain
                0x00000000010af9f4                SPU_Start_SSL_Chain
                0x00000000010afb78                SPU_Stop_SSL_Chain
                0x00000000010afc40                SPU_Set_Volume_Controller
                0x00000000010afe14                SPU_Set_Channel_Mute
 .text          0x00000000010b14c0      0xb90 ./../../../build/tcc70xx/gcc/tcc70xx-freertos-debug/obj/ssm.o
                0x00000000010b18b8                SSM_EccEnable
                0x00000000010b1b68                SSM_EccDisable
                0x00000000010b1e68                SSM_SoftFaultCheckEnable
                0x00000000010b1f6c                SSM_SoftFautlCheckDisable
 .text          0x00000000010b2050     0x11bc ./../../../build/tcc70xx/gcc/tcc70xx-freertos-debug/obj/timer.o
                0x00000000010b2140                TIMER_InterruptClear
                0x00000000010b21b8                TIMER_Enable
                0x00000000010b2204                TIMER_EnableWithMode
                0x00000000010b228c                TIMER_EnableWithCfg
                0x00000000010b2ebc                TIMER_Disable
                0x00000000010b3080                TIMER_Init
 .text          0x00000000010b320c     0x4bb4 ./../../../build/tcc70xx/gcc/tcc70xx-freertos-debug/obj/uart.o
                0x00000000010b320c                UART_Open
                0x00000000010b32ac                UART_Close
                0x00000000010b354c                UART_Read
                0x00000000010b3714                UART_Write
                0x00000000010b38b4                UART_GetData
                0x00000000010b3a20                UART_GetChar
                0x00000000010b3bcc                UART_PutChar
                0x00000000010b3ce4                UART_SetLineControlReg
                0x00000000010b3d6c                UART_SetInterruptClearReg
                0x00000000010b3da4                UART_SetErrorClearReg
                0x00000000010b3ddc                UART_GetReceiveStatusReg
                0x00000000010b3e14                UART_GetRawInterruptStatusReg
                0x00000000010b3e4c                UART_Init
                0x00000000010b3f30                UART_ISR
 .text          0x00000000010b7dc0      0x670 ./../../../build/tcc70xx/gcc/tcc70xx-freertos-debug/obj/wdt.o
                0x00000000010b8074                WDT_KickPing
                0x00000000010b8094                WDT_ResetSystem
                0x00000000010b8118                WDT_Stop
                0x00000000010b819c                WDT_SmMode
                0x00000000010b8324                WDT_Init
 .text          0x00000000010b8430      0x670 ./../../../build/tcc70xx/gcc/tcc70xx-freertos-debug/obj/wdt_pmu.o
                0x00000000010b86e4                WDTPMU_KickPing
                0x00000000010b8704                WDTPMU_ResetSystem
                0x00000000010b8788                WDTPMU_Stop
                0x00000000010b880c                WDTPMU_SmMode
                0x00000000010b8994                WDTPMU_Init
 .text          0x00000000010b8aa0     0x3668 ./../../../build/tcc70xx/gcc/tcc70xx-freertos-debug/obj/tasks.o
                0x00000000010b8aa0                xTaskCreateStatic
                0x00000000010b8b88                xTaskCreate
                0x00000000010b8fe4                vTaskDelete
                0x00000000010b9138                vTaskDelayUntil
                0x00000000010b9278                vTaskDelay
                0x00000000010b92e8                eTaskGetState
                0x00000000010b9434                uxTaskPriorityGet
                0x00000000010b948c                uxTaskPriorityGetFromISR
                0x00000000010b94f0                vTaskPrioritySet
                0x00000000010b9708                vTaskSuspend
                0x00000000010b98e8                vTaskResume
                0x00000000010b99f8                xTaskResumeFromISR
                0x00000000010b9b30                vTaskStartScheduler
                0x00000000010b9c4c                vTaskEndScheduler
                0x00000000010b9c74                vTaskSuspendAll
                0x00000000010b9cac                xTaskResumeAll
                0x00000000010b9eb4                xTaskGetTickCount
                0x00000000010b9ee8                xTaskGetTickCountFromISR
                0x00000000010b9f28                uxTaskGetNumberOfTasks
                0x00000000010b9f4c                pcTaskGetName
                0x00000000010ba158                xTaskGetHandle
                0x00000000010ba28c                xTaskCatchUpTicks
                0x00000000010ba2f8                xTaskAbortDelay
                0x00000000010ba43c                xTaskIncrementTick
                0x00000000010ba6e4                vTaskSwitchContext
                0x00000000010ba8c0                vTaskPlaceOnEventList
                0x00000000010ba918                vTaskPlaceOnUnorderedEventList
                0x00000000010ba9a4                vTaskPlaceOnEventListRestricted
                0x00000000010baa14                xTaskRemoveFromEventList
                0x00000000010bab50                vTaskRemoveFromUnorderedEventList
                0x00000000010bac64                vTaskSetTimeOutState
                0x00000000010bacc0                vTaskInternalSetTimeOutState
                0x00000000010bad08                xTaskCheckForTimeOut
                0x00000000010bae5c                vTaskMissedYield
                0x00000000010bb104                xTaskGetCurrentTaskHandle
                0x00000000010bb134                xTaskGetSchedulerState
                0x00000000010bb19c                xTaskPriorityInherit
                0x00000000010bb338                xTaskPriorityDisinherit
                0x00000000010bb484                vTaskPriorityDisinheritAfterTimeout
                0x00000000010bb624                uxTaskResetEventItemValue
                0x00000000010bb67c                pvTaskIncrementMutexHeldCount
                0x00000000010bb6cc                ulTaskNotifyTake
                0x00000000010bb7b8                xTaskNotifyWait
                0x00000000010bb8e8                xTaskGenericNotify
                0x00000000010bbae0                xTaskGenericNotifyFromISR
                0x00000000010bbd38                vTaskNotifyGiveFromISR
                0x00000000010bbec0                xTaskNotifyStateClear
                0x00000000010bbf40                ulTaskNotifyValueClear
 .text          0x00000000010bc108      0x294 ./../../../build/tcc70xx/gcc/tcc70xx-freertos-debug/obj/list.o
                0x00000000010bc108                vListInitialise
                0x00000000010bc170                vListInitialiseItem
                0x00000000010bc19c                vListInsertEnd
                0x00000000010bc224                vListInsert
                0x00000000010bc2fc                uxListRemove
 .text          0x00000000010bc39c     0x2278 ./../../../build/tcc70xx/gcc/tcc70xx-freertos-debug/obj/queue.o
                0x00000000010bc39c                xQueueGenericReset
                0x00000000010bc4c8                xQueueGenericCreateStatic
                0x00000000010bc5d0                xQueueGenericCreate
                0x00000000010bc75c                xQueueCreateMutex
                0x00000000010bc7b0                xQueueCreateMutexStatic
                0x00000000010bc810                xQueueGetMutexHolder
                0x00000000010bc868                xQueueGetMutexHolderFromISR
                0x00000000010bc8c4                xQueueGiveMutexRecursive
                0x00000000010bc960                xQueueTakeMutexRecursive
                0x00000000010bca04                xQueueCreateCountingSemaphoreStatic
                0x00000000010bca88                xQueueCreateCountingSemaphore
                0x00000000010bcafc                xQueueGenericSend
                0x00000000010bcdd0                xQueueGenericSendFromISR
                0x00000000010bcfb4                xQueueGiveFromISR
                0x00000000010bd14c                xQueueReceive
                0x00000000010bd394                xQueueSemaphoreTake
                0x00000000010bd644                xQueuePeek
                0x00000000010bd894                xQueueReceiveFromISR
                0x00000000010bd9dc                xQueuePeekFromISR
                0x00000000010bdabc                uxQueueMessagesWaiting
                0x00000000010bdb00                uxQueueSpacesAvailable
                0x00000000010bdb58                uxQueueMessagesWaitingFromISR
                0x00000000010bdba0                vQueueDelete
                0x00000000010bdff4                xQueueIsQueueEmptyFromISR
                0x00000000010be0a8                xQueueIsQueueFullFromISR
                0x00000000010be110                vQueueAddToRegistry
                0x00000000010be1a4                pcQueueGetName
                0x00000000010be230                vQueueUnregisterQueue
                0x00000000010be2cc                vQueueWaitForMessageRestricted
                0x00000000010be370                xQueueCreateSet
                0x00000000010be3a4                xQueueAddToSet
                0x00000000010be41c                xQueueRemoveFromSet
                0x00000000010be4a0                xQueueSelectFromSet
                0x00000000010be4e0                xQueueSelectFromSetFromISR
 .text          0x00000000010be614      0x8e4 ./../../../build/tcc70xx/gcc/tcc70xx-freertos-debug/obj/event_groups.o
                0x00000000010be614                xEventGroupCreateStatic
                0x00000000010be698                xEventGroupCreate
                0x00000000010be6f4                xEventGroupSync
                0x00000000010be8dc                xEventGroupWaitBits
                0x00000000010beb14                xEventGroupClearBits
                0x00000000010beb94                xEventGroupGetBitsFromISR
                0x00000000010bebd8                xEventGroupSetBits
                0x00000000010bed8c                vEventGroupDelete
                0x00000000010bee20                vEventGroupSetBitsCallback
                0x00000000010bee4c                vEventGroupClearBitsCallback
 .text          0x00000000010beef8      0xfe0 ./../../../build/tcc70xx/gcc/tcc70xx-freertos-debug/obj/timers.o
                0x00000000010beef8                xTimerCreateTimerTask
                0x00000000010befcc                xTimerCreate
                0x00000000010bf040                xTimerCreateStatic
                0x00000000010bf188                xTimerGenericCommand
                0x00000000010bf27c                xTimerGetTimerDaemonTaskHandle
                0x00000000010bf2b8                xTimerGetPeriod
                0x00000000010bf2f8                vTimerSetReloadMode
                0x00000000010bf378                uxTimerGetReloadMode
                0x00000000010bf3e0                xTimerGetExpiryTime
                0x00000000010bf428                pcTimerGetName
                0x00000000010bfce8                xTimerIsTimerActive
                0x00000000010bfd50                pvTimerGetTimerID
                0x00000000010bfd9c                vTimerSetTimerID
                0x00000000010bfde8                xTimerPendFunctionCallFromISR
                0x00000000010bfe54                xTimerPendFunctionCall
 .text          0x00000000010bfed8     0x126c ./../../../build/tcc70xx/gcc/tcc70xx-freertos-debug/obj/stream_buffer.o
                0x00000000010bfed8                xStreamBufferGenericCreate
                0x00000000010bffb0                xStreamBufferGenericCreateStatic
                0x00000000010c00d4                vStreamBufferDelete
                0x00000000010c0138                xStreamBufferReset
                0x00000000010c01d8                xStreamBufferSetTriggerLevel
                0x00000000010c0260                xStreamBufferSpacesAvailable
                0x00000000010c02fc                xStreamBufferBytesAvailable
                0x00000000010c0340                xStreamBufferSend
                0x00000000010c0528                xStreamBufferSendFromISR
                0x00000000010c0728                xStreamBufferReceive
                0x00000000010c08cc                xStreamBufferNextMessageLengthBytes
                0x00000000010c098c                xStreamBufferReceiveFromISR
                0x00000000010c0b5c                xStreamBufferIsEmpty
                0x00000000010c0bcc                xStreamBufferIsFull
                0x00000000010c0c58                xStreamBufferSendCompletedFromISR
                0x00000000010c0cf4                xStreamBufferReceiveCompletedFromISR
 .text          0x00000000010c1144      0x8cc ./../../../build/tcc70xx/gcc/tcc70xx-freertos-debug/obj/port.o
                0x00000000010c1144                pxPortInitialiseStack
                0x00000000010c13d8                xPortStartScheduler
                0x00000000010c151c                vPortEndScheduler
                0x00000000010c154c                vPortEnterCritical
                0x00000000010c15a8                vPortExitCritical
                0x00000000010c1634                FreeRTOS_Tick_Handler
                0x00000000010c16c8                vPortTaskUsesFPU
                0x00000000010c1704                vPortClearInterruptMask
                0x00000000010c1760                ulPortSetInterruptMask
                0x00000000010c17d8                vPortValidateInterruptPriority
                0x00000000010c180c                vApplicationGetIdleTaskMemory
                0x00000000010c1860                vInitialiseTimerForRunTimeStats
                0x00000000010c1878                vApplicationStackOverflowHook
                0x00000000010c189c                vApplicationGetTimerTaskMemory
                0x00000000010c18f0                vConfigureTickInterrupt
                0x00000000010c1978                vClearTickInterrupt
                0x00000000010c1990                vApplicationFPUSafeIRQHandler
                0x00000000010c19b4                xPortGetInterruptNestingCount
                0x00000000010c19d8                heap_init
 .text          0x00000000010c1a10      0x8ec ./../../../build/tcc70xx/gcc/tcc70xx-freertos-debug/obj/heap_5.o
                0x00000000010c1a10                pvPortMalloc
                0x00000000010c1c68                vPortFree
                0x00000000010c1d90                xPortGetFreeHeapSize
                0x00000000010c1db4                xPortGetMinimumEverFreeHeapSize
                0x00000000010c1f30                vPortDefineHeapRegions
                0x00000000010c21a8                vPortGetHeapStats
 .text          0x00000000010c22fc      0xd10 ./../../../build/tcc70xx/gcc/tcc70xx-freertos-debug/obj/FreeRTOS_ARP.o
                0x00000000010c22fc                eARPProcessPacket
                0x00000000010c2544                vARPRefreshCacheEntry
                0x00000000010c2938                eARPGetCacheEntry
                0x00000000010c2bd0                vARPAgeCache
                0x00000000010c2e0c                vARPSendGratuitous
                0x00000000010c2e34                FreeRTOS_OutputARPRequest
                0x00000000010c2ed4                vARPGenerateRequestPacket
                0x00000000010c2fe8                FreeRTOS_ClearARP
 .text          0x00000000010c300c        0x0 ./../../../build/tcc70xx/gcc/tcc70xx-freertos-debug/obj/FreeRTOS_DHCP.o
 .text          0x00000000010c300c     0x2084 ./../../../build/tcc70xx/gcc/tcc70xx-freertos-debug/obj/FreeRTOS_DNS.o
                0x00000000010c3058                FreeRTOS_dnsclear
                0x00000000010c307c                FreeRTOS_dnslookup
                0x00000000010c30b8                FreeRTOS_gethostbyname
                0x00000000010c38e4                ulDNSHandlePacket
                0x00000000010c3950                ulNBNSHandlePacket
 .text          0x00000000010c5090     0x2288 ./../../../build/tcc70xx/gcc/tcc70xx-freertos-debug/obj/FreeRTOS_IP.o
                0x00000000010c52b8                xIsCallingFromIPTask
                0x00000000010c55f8                FreeRTOS_NetworkDown
                0x00000000010c5658                FreeRTOS_NetworkDownFromISR
                0x00000000010c56cc                FreeRTOS_GetUDPPayloadBuffer
                0x00000000010c5758                pxDuplicateNetworkBufferWithDescriptor
                0x00000000010c57f4                pxPacketBuffer_to_NetworkBuffer
                0x00000000010c586c                pxUDPPayloadBuffer_to_NetworkBuffer
                0x00000000010c58e4                FreeRTOS_ReleaseUDPPayloadBuffer
                0x00000000010c5914                FreeRTOS_IPInit
                0x00000000010c5c70                FreeRTOS_GetAddressConfiguration
                0x00000000010c5d1c                FreeRTOS_SetAddressConfiguration
                0x00000000010c5dc8                xSendEventToIPTask
                0x00000000010c5e14                xSendEventStructToIPTask
                0x00000000010c5f14                eConsiderFrameForProcessing
                0x00000000010c6080                vIPNetworkUpCalls
                0x00000000010c6a08                usGenerateProtocolChecksum
                0x00000000010c6d88                usGenerateChecksum
                0x00000000010c70b4                vReturnEthernetFrame
                0x00000000010c7160                FreeRTOS_GetIPAddress
                0x00000000010c7184                FreeRTOS_SetIPAddress
                0x00000000010c71b4                FreeRTOS_GetGatewayAddress
                0x00000000010c71d8                FreeRTOS_GetDNSServerAddress
                0x00000000010c71fc                FreeRTOS_GetNetmask
                0x00000000010c7220                FreeRTOS_UpdateMACAddress
                0x00000000010c7250                FreeRTOS_GetMACAddress
                0x00000000010c7270                FreeRTOS_SetNetmask
                0x00000000010c72a0                FreeRTOS_SetGatewayAddress
                0x00000000010c72d0                xIPIsNetworkTaskReady
                0x00000000010c72f4                FreeRTOS_IsNetworkUp
 .text          0x00000000010c7318     0x3d30 ./../../../build/tcc70xx/gcc/tcc70xx-freertos-debug/obj/FreeRTOS_Sockets.o
                0x00000000010c7758                vNetworkSocketsInit
                0x00000000010c78ac                FreeRTOS_socket
                0x00000000010c7a98                FreeRTOS_CreateSocketSet
                0x00000000010c7b0c                FreeRTOS_DeleteSocketSet
                0x00000000010c7b48                FreeRTOS_FD_SET
                0x00000000010c7bec                FreeRTOS_FD_CLR
                0x00000000010c7c8c                FreeRTOS_FD_ISSET
                0x00000000010c7d0c                FreeRTOS_select
                0x00000000010c7e88                FreeRTOS_recvfrom
                0x00000000010c80dc                FreeRTOS_sendto
                0x00000000010c82e0                FreeRTOS_bind
                0x00000000010c8430                vSocketBind
                0x00000000010c85e8                FreeRTOS_closesocket
                0x00000000010c866c                vSocketClose
                0x00000000010c8878                FreeRTOS_setsockopt
                0x00000000010c8ff4                pxUDPSocketLookup
                0x00000000010c9058                FreeRTOS_inet_addr
                0x00000000010c921c                FreeRTOS_GetLocalAddress
                0x00000000010c9298                vSocketWakeUpUser
                0x00000000010c9554                FreeRTOS_connect
                0x00000000010c9670                FreeRTOS_accept
                0x00000000010c9934                FreeRTOS_recv
                0x00000000010c9d24                FreeRTOS_get_tx_head
                0x00000000010c9df8                FreeRTOS_send
                0x00000000010ca090                FreeRTOS_listen
                0x00000000010ca1f0                FreeRTOS_shutdown
                0x00000000010ca28c                xTCPTimerCheck
                0x00000000010ca41c                pxTCPSocketLookup
                0x00000000010ca520                FreeRTOS_get_rx_buf
                0x00000000010ca6ec                lTCPAddRxdata
                0x00000000010ca82c                FreeRTOS_GetRemoteAddress
                0x00000000010ca904                FreeRTOS_maywrite
                0x00000000010ca9c8                FreeRTOS_tx_space
                0x00000000010caa44                FreeRTOS_tx_size
                0x00000000010caabc                FreeRTOS_issocketconnected
                0x00000000010cab34                FreeRTOS_mss
                0x00000000010cab88                FreeRTOS_connstatus
                0x00000000010cabdc                FreeRTOS_rx_size
                0x00000000010cac54                FreeRTOS_netstat
                0x00000000010cac8c                vSocketSelect
 .text          0x00000000010cb048      0x5f4 ./../../../build/tcc70xx/gcc/tcc70xx-freertos-debug/obj/FreeRTOS_Stream_Buffer.o
                0x00000000010cb2b8                uxStreamBufferAdd
                0x00000000010cb48c                uxStreamBufferGet
 .text          0x00000000010cb63c     0x5054 ./../../../build/tcc70xx/gcc/tcc70xx-freertos-debug/obj/FreeRTOS_TCP_IP.o
                0x00000000010cbb48                xTCPSocketCheck
                0x00000000010cd59c                vTCPStateChange
                0x00000000010cf890                xProcessReceivedTCPPacket
                0x00000000010d059c                xTCPCheckNewClient
 .text          0x00000000010d0690     0x1bc8 ./../../../build/tcc70xx/gcc/tcc70xx-freertos-debug/obj/FreeRTOS_TCP_WIN.o
                0x00000000010d088c                vListInsertGeneric
                0x00000000010d0bfc                xTCPWindowRxEmpty
                0x00000000010d0dc0                vTCPWindowDestroy
                0x00000000010d0e78                vTCPWindowCreate
                0x00000000010d0f34                vTCPWindowInit
                0x00000000010d1074                vTCPSegmentCleanup
                0x00000000010d11d8                lTCPWindowRxCheck
                0x00000000010d1538                lTCPWindowTxAdd
                0x00000000010d17d0                xTCPWindowTxDone
                0x00000000010d1918                xTCPWindowTxHasData
                0x00000000010d1a7c                ulTCPWindowTxGet
                0x00000000010d2174                ulTCPWindowTxAck
                0x00000000010d21dc                ulTCPWindowTxSack
 .text          0x00000000010d2258      0x6ec ./../../../build/tcc70xx/gcc/tcc70xx-freertos-debug/obj/FreeRTOS_UDP_IP.o
                0x00000000010d2258                vProcessGeneratedUDPPacket
                0x00000000010d26e0                xProcessReceivedUDPPacket
 .text          0x00000000010d2944      0x1a4 ./../../../build/tcc70xx/gcc/tcc70xx-freertos-debug/obj/FreeRTOS_Port.o
                0x00000000010d2944                uxRand
                0x00000000010d29e0                pcApplicationHostnameHook
                0x00000000010d2a00                xApplicationDNSQueryHook
                0x00000000010d2a7c                ulApplicationGetNextSequenceNumber
                0x00000000010d2ab8                xApplicationGetRandomNumber
 .text          0x00000000010d2ae8      0x518 ./../../../build/tcc70xx/gcc/tcc70xx-freertos-debug/obj/BufferAllocation_1.o
                0x00000000010d2b24                xNetworkBuffersInitialise
                0x00000000010d2cb0                pxGetNetworkBufferWithDescriptor
                0x00000000010d2dd8                pxNetworkBufferGetFromISR
                0x00000000010d2e78                vNetworkBufferReleaseFromISR
                0x00000000010d2ee0                vReleaseNetworkBufferAndDescriptor
                0x00000000010d2f90                uxGetMinimumFreeNetworkBuffers
                0x00000000010d2fb4                uxGetNumberOfFreeNetworkBuffers
                0x00000000010d2fd8                pxResizeNetworkBufferWithDescriptor
 .text          0x00000000010d3000      0x39c ./../../../build/tcc70xx/gcc/tcc70xx-freertos-debug/obj/NetworkInterface.o
                0x00000000010d3058                xNetworkInterfaceInitialise
                0x00000000010d3138                xNetworkInterfaceOutput
                0x00000000010d318c                vNetworkInterfaceAllocateRAMToBuffers
                0x00000000010d3260                xGetPhyLinkStatus
 .text          0x00000000010d339c      0x7f4 ./../../../build/tcc70xx/gcc/tcc70xx-freertos-debug/obj/sal_api.o
                0x00000000010d339c                SAL_RegisterFunction
 .text          0x00000000010d3b90     0x274c ./../../../build/tcc70xx/gcc/tcc70xx-freertos-debug/obj/sal_freertos_impl.o
                0x00000000010d5e80                SAL_Init
 .text          0x00000000010d62dc        0x0 ./../../../build/tcc70xx/gcc/tcc70xx-freertos-debug/obj/vector.o
 .text          0x00000000010d62dc       0x60 ./../../../build/tcc70xx/gcc/tcc70xx-freertos-debug/obj/vfp_init.o
                0x00000000010d62dc                vfp_init
 .text          0x00000000010d633c        0xc ./../../../build/tcc70xx/gcc/tcc70xx-freertos-debug/obj/arm_a.o
                0x00000000010d633c                ARM_DSB
 *fill*         0x00000000010d6348        0x8 
 .text          0x00000000010d6350      0x2b8 ./../../../build/tcc70xx/gcc/tcc70xx-freertos-debug/obj/portASM.o
                0x00000000010d6350                FreeRTOS_SWI_Handler
                0x00000000010d63f0                vPortRestoreTaskContext
                0x00000000010d6450                FreeRTOS_IRQ_Handler
                0x00000000010d65b0                vApplicationIRQHandler
 .text          0x00000000010d6608       0xb8 ./../../../build/tcc70xx/gcc/tcc70xx-freertos-debug/obj/freertos.o
                0x00000000010d6608                FreeRTOS_ARM_ExceptUndefInstrHndlr
                0x00000000010d661c                FreeRTOS_ARM_ExceptSwiHndlr
                0x00000000010d6620                FreeRTOS_ARM_ExceptPrefetchAbortHndlr
                0x00000000010d6638                FreeRTOS_ARM_ExceptDataAbortHndlr
                0x00000000010d6668                FreeRTOS_ARM_ExceptIrqHndlr
                0x00000000010d666c                FreeRTOS_ARM_ExceptFiqHndlr
                0x00000000010d6684                FreeRTOS_ARM_DRegCntGet
                0x00000000010d668c                CPU_WaitForEvent
                0x00000000010d6698                CPU_DSB
                0x00000000010d66a4                CPU_SR_Save
                0x00000000010d66b4                CPU_SR_Restore
 .text          0x00000000010d66c0       0x18 ./../../../build/tcc70xx/gcc/tcc70xx-freertos-debug/obj/sal.o
                0x00000000010d66c0                ARM_ExceptUndefInstrHndlr
                0x00000000010d66c4                ARM_ExceptSwiHndlr
                0x00000000010d66c8                ARM_ExceptPrefetchAbortHndlr
                0x00000000010d66cc                ARM_ExceptDataAbortHndlr
                0x00000000010d66d0                ARM_ExceptIrqHndlr
                0x00000000010d66d4                ARM_ExceptFiqHndlr
 .text          0x00000000010d66d8       0x30 /opt/gcc-linaro-7.2.1-2017.11-x86_64_arm-eabi/arm-eabi/libc/usr/lib/libc.a(lib_a-atoi.o)
                0x00000000010d66d8                atoi
                0x00000000010d66f0                _atoi_r
 .text          0x00000000010d6708      0x104 /opt/gcc-linaro-7.2.1-2017.11-x86_64_arm-eabi/arm-eabi/libc/usr/lib/libc.a(lib_a-memcmp.o)
                0x00000000010d6708                memcmp
 .text          0x00000000010d680c      0x110 /opt/gcc-linaro-7.2.1-2017.11-x86_64_arm-eabi/arm-eabi/libc/usr/lib/libc.a(lib_a-memcpy-stub.o)
                0x00000000010d680c                memcpy
 .text          0x00000000010d691c      0x140 /opt/gcc-linaro-7.2.1-2017.11-x86_64_arm-eabi/arm-eabi/libc/usr/lib/libc.a(lib_a-memmove.o)
                0x00000000010d691c                memmove
 .text          0x00000000010d6a5c      0x114 /opt/gcc-linaro-7.2.1-2017.11-x86_64_arm-eabi/arm-eabi/libc/usr/lib/libc.a(lib_a-memset.o)
                0x00000000010d6a5c                memset
 .text          0x00000000010d6b70      0x188 /opt/gcc-linaro-7.2.1-2017.11-x86_64_arm-eabi/arm-eabi/libc/usr/lib/libc.a(lib_a-snprintf.o)
                0x00000000010d6b70                _snprintf_r
                0x00000000010d6c2c                snprintf
 .text          0x00000000010d6cf8       0xd0 /opt/gcc-linaro-7.2.1-2017.11-x86_64_arm-eabi/arm-eabi/libc/usr/lib/libc.a(lib_a-sprintf.o)
                0x00000000010d6cf8                _sprintf_r
                0x00000000010d6d58                sprintf
 .text          0x00000000010d6dc8      0x100 /opt/gcc-linaro-7.2.1-2017.11-x86_64_arm-eabi/arm-eabi/libc/usr/lib/libc.a(lib_a-sscanf.o)
                0x00000000010d6dc8                sscanf
                0x00000000010d6e48                _sscanf_r
 .text          0x00000000010d6ec8       0xd8 /opt/gcc-linaro-7.2.1-2017.11-x86_64_arm-eabi/arm-eabi/libc/usr/lib/libc.a(lib_a-stdio.o)
                0x00000000010d6ec8                __sread
                0x00000000010d6efc                __seofread
                0x00000000010d6f04                __swrite
                0x00000000010d6f5c                __sseek
                0x00000000010d6f8c                __sclose
 .text          0x00000000010d6fa0      0x224 /opt/gcc-linaro-7.2.1-2017.11-x86_64_arm-eabi/arm-eabi/libc/usr/lib/libc.a(lib_a-strcmp.o)
                0x00000000010d6fa0                strcmp
 .text          0x00000000010d71c4       0xf0 /opt/gcc-linaro-7.2.1-2017.11-x86_64_arm-eabi/arm-eabi/libc/usr/lib/libc.a(lib_a-strcpy.o)
                0x00000000010d71c4                strcpy
 .text          0x00000000010d72b4       0x60 /opt/gcc-linaro-7.2.1-2017.11-x86_64_arm-eabi/arm-eabi/libc/usr/lib/libc.a(lib_a-strlen-stub.o)
                0x00000000010d72b4                strlen
 .text          0x00000000010d7314      0x100 /opt/gcc-linaro-7.2.1-2017.11-x86_64_arm-eabi/arm-eabi/libc/usr/lib/libc.a(lib_a-strncmp.o)
                0x00000000010d7314                strncmp
 .text          0x00000000010d7414       0xe0 /opt/gcc-linaro-7.2.1-2017.11-x86_64_arm-eabi/arm-eabi/libc/usr/lib/libc.a(lib_a-strncpy.o)
                0x00000000010d7414                strncpy
 .text          0x00000000010d74f4       0x5c /opt/gcc-linaro-7.2.1-2017.11-x86_64_arm-eabi/arm-eabi/libc/usr/lib/libc.a(lib_a-strnlen.o)
                0x00000000010d74f4                strnlen
 .text          0x00000000010d7550      0x27c /opt/gcc-linaro-7.2.1-2017.11-x86_64_arm-eabi/arm-eabi/libc/usr/lib/libc.a(lib_a-strtol.o)
                0x00000000010d770c                _strtol_r
                0x00000000010d7748                strtol_l
                0x00000000010d7780                strtol
 .text          0x00000000010d77cc      0x28c /opt/gcc-linaro-7.2.1-2017.11-x86_64_arm-eabi/arm-eabi/libc/usr/lib/libc.a(lib_a-strtoul.o)
                0x00000000010d7998                _strtoul_r
                0x00000000010d79d4                strtoul_l
                0x00000000010d7a0c                strtoul
 .text          0x00000000010d7a58     0xb4c8 /opt/gcc-linaro-7.2.1-2017.11-x86_64_arm-eabi/arm-eabi/libc/usr/lib/libc.a(lib_a-svfprintf.o)
                0x00000000010ded5c                _svfprintf_r
 .text          0x00000000010e2f20     0x2818 /opt/gcc-linaro-7.2.1-2017.11-x86_64_arm-eabi/arm-eabi/libc/usr/lib/libc.a(lib_a-svfscanf.o)
                0x00000000010e2f20                __ssvfscanf_r
 .text          0x00000000010e5738      0x134 /opt/gcc-linaro-7.2.1-2017.11-x86_64_arm-eabi/arm-eabi/libc/usr/lib/libc.a(lib_a-wcrtomb.o)
                0x00000000010e5738                _wcrtomb_r
                0x00000000010e57d0                wcrtomb
 .text          0x00000000010e586c       0x5c /opt/gcc-linaro-7.2.1-2017.11-x86_64_arm-eabi/arm-eabi/libc/usr/lib/libc.a(lib_a-wcsrtombs.o)
                0x00000000010e586c                _wcsrtombs_r
                0x00000000010e5890                wcsrtombs
 .text          0x00000000010e58c8       0x48 /opt/gcc-linaro-7.2.1-2017.11-x86_64_arm-eabi/arm-eabi/libc/usr/lib/libc.a(lib_a-writer.o)
                0x00000000010e58c8                _write_r
 .text          0x00000000010e5910       0x3c /opt/gcc-linaro-7.2.1-2017.11-x86_64_arm-eabi/arm-eabi/libc/usr/lib/libc.a(lib_a-closer.o)
                0x00000000010e5910                _close_r
 *fill*         0x00000000010e594c        0x4 
 .text          0x00000000010e5950     0x17dc /opt/gcc-linaro-7.2.1-2017.11-x86_64_arm-eabi/arm-eabi/libc/usr/lib/libc.a(lib_a-dtoa.o)
                0x00000000010e5b38                _dtoa_r
 .text          0x00000000010e712c      0x3dc /opt/gcc-linaro-7.2.1-2017.11-x86_64_arm-eabi/arm-eabi/libc/usr/lib/libc.a(lib_a-freer.o)
                0x00000000010e712c                _malloc_trim_r
                0x00000000010e722c                _free_r
 .text          0x00000000010e7508        0x0 /opt/gcc-linaro-7.2.1-2017.11-x86_64_arm-eabi/arm-eabi/libc/usr/lib/libc.a(lib_a-impure.o)
 .text          0x00000000010e7508       0x78 /opt/gcc-linaro-7.2.1-2017.11-x86_64_arm-eabi/arm-eabi/libc/usr/lib/libc.a(lib_a-iswspace.o)
                0x00000000010e7508                iswspace
 .text          0x00000000010e7580      0x2c8 /opt/gcc-linaro-7.2.1-2017.11-x86_64_arm-eabi/arm-eabi/libc/usr/lib/libc.a(lib_a-jp2uc.o)
                0x00000000010e7774                _jp2uc
 .text          0x00000000010e7848      0xd0c /opt/gcc-linaro-7.2.1-2017.11-x86_64_arm-eabi/arm-eabi/libc/usr/lib/libc.a(lib_a-locale.o)
                0x00000000010e78dc                __loadlocale
                0x00000000010e8114                __get_locale_env
                0x00000000010e81a8                _setlocale_r
                0x00000000010e84e4                __locale_mb_cur_max
                0x00000000010e850c                __locale_ctype_ptr_l
                0x00000000010e8514                __locale_ctype_ptr
                0x00000000010e853c                setlocale
 .text          0x00000000010e8554       0x58 /opt/gcc-linaro-7.2.1-2017.11-x86_64_arm-eabi/arm-eabi/libc/usr/lib/libc.a(lib_a-localeconv.o)
                0x00000000010e8554                __localeconv_l
                0x00000000010e855c                _localeconv_r
                0x00000000010e8584                localeconv
 .text          0x00000000010e85ac       0x48 /opt/gcc-linaro-7.2.1-2017.11-x86_64_arm-eabi/arm-eabi/libc/usr/lib/libc.a(lib_a-lseekr.o)
                0x00000000010e85ac                _lseek_r
 .text          0x00000000010e85f4      0x760 /opt/gcc-linaro-7.2.1-2017.11-x86_64_arm-eabi/arm-eabi/libc/usr/lib/libc.a(lib_a-mallocr.o)
                0x00000000010e85f4                _malloc_r
 .text          0x00000000010e8d54      0x14c /opt/gcc-linaro-7.2.1-2017.11-x86_64_arm-eabi/arm-eabi/libc/usr/lib/libc.a(lib_a-mbrtowc.o)
                0x00000000010e8d54                _mbrtowc_r
                0x00000000010e8dfc                mbrtowc
 .text          0x00000000010e8ea0      0x744 /opt/gcc-linaro-7.2.1-2017.11-x86_64_arm-eabi/arm-eabi/libc/usr/lib/libc.a(lib_a-mbtowc_r.o)
                0x00000000010e8ea0                _mbtowc_r
                0x00000000010e8ed4                __ascii_mbtowc
                0x00000000010e8f18                __utf8_mbtowc
                0x00000000010e9220                __sjis_mbtowc
                0x00000000010e92f4                __eucjp_mbtowc
                0x00000000010e942c                __jis_mbtowc
 .text          0x00000000010e95e4      0x110 /opt/gcc-linaro-7.2.1-2017.11-x86_64_arm-eabi/arm-eabi/libc/usr/lib/libc.a(lib_a-memchr-stub.o)
                0x00000000010e95e4                memchr
 .text          0x00000000010e96f4        0x8 /opt/gcc-linaro-7.2.1-2017.11-x86_64_arm-eabi/arm-eabi/libc/usr/lib/libc.a(lib_a-mlock.o)
                0x00000000010e96f4                __malloc_lock
                0x00000000010e96f8                __malloc_unlock
 .text          0x00000000010e96fc      0xdb8 /opt/gcc-linaro-7.2.1-2017.11-x86_64_arm-eabi/arm-eabi/libc/usr/lib/libc.a(lib_a-mprec.o)
                0x00000000010e96fc                _Balloc
                0x00000000010e9788                _Bfree
                0x00000000010e97a4                __multadd
                0x00000000010e9880                __s2b
                0x00000000010e9964                __hi0bits
                0x00000000010e99bc                __lo0bits
                0x00000000010e9a5c                __i2b
                0x00000000010e9a80                __multiply
                0x00000000010e9c80                __pow5mult
                0x00000000010e9d84                __lshift
                0x00000000010e9e78                __mcmp
                0x00000000010e9ed8                __mdiff
                0x00000000010ea060                __ulp
                0x00000000010ea0c8                __b2d
                0x00000000010ea1a8                __d2b
                0x00000000010ea2c0                __ratio
                0x00000000010ea350                _mprec_log10
                0x00000000010ea3b0                __copybits
                0x00000000010ea43c                __any_on
 .text          0x00000000010ea4b4       0x48 /opt/gcc-linaro-7.2.1-2017.11-x86_64_arm-eabi/arm-eabi/libc/usr/lib/libc.a(lib_a-readr.o)
                0x00000000010ea4b4                _read_r
 .text          0x00000000010ea4fc      0x124 /opt/gcc-linaro-7.2.1-2017.11-x86_64_arm-eabi/arm-eabi/libc/usr/lib/libc.a(lib_a-reent.o)
                0x00000000010ea4fc                cleanup_glue
                0x00000000010ea530                _reclaim_reent
 .text          0x00000000010ea620       0x98 /opt/gcc-linaro-7.2.1-2017.11-x86_64_arm-eabi/arm-eabi/libc/usr/lib/libc.a(lib_a-s_frexp.o)
                0x00000000010ea620                frexp
 .text          0x00000000010ea6b8       0x3c /opt/gcc-linaro-7.2.1-2017.11-x86_64_arm-eabi/arm-eabi/libc/usr/lib/libc.a(lib_a-sbrkr.o)
                0x00000000010ea6b8                _sbrk_r
 .text          0x00000000010ea6f4       0xcc /opt/gcc-linaro-7.2.1-2017.11-x86_64_arm-eabi/arm-eabi/libc/usr/lib/libc.a(lib_a-sccl.o)
                0x00000000010ea6f4                __sccl
 .text          0x00000000010ea7c0        0xc /opt/gcc-linaro-7.2.1-2017.11-x86_64_arm-eabi/arm-eabi/libc/usr/lib/libc.a(lib_a-sf_nan.o)
                0x00000000010ea7c0                nanf
 .text          0x00000000010ea7cc      0x104 /opt/gcc-linaro-7.2.1-2017.11-x86_64_arm-eabi/arm-eabi/libc/usr/lib/libc.a(lib_a-stpncpy.o)
                0x00000000010ea7cc                stpncpy
 .text          0x00000000010ea8d0       0x70 /opt/gcc-linaro-7.2.1-2017.11-x86_64_arm-eabi/arm-eabi/libc/usr/lib/libc.a(lib_a-strcasecmp.o)
                0x00000000010ea8d0                strcasecmp
 .text          0x00000000010ea940       0x74 /opt/gcc-linaro-7.2.1-2017.11-x86_64_arm-eabi/arm-eabi/libc/usr/lib/libc.a(lib_a-strcat.o)
                0x00000000010ea940                strcat
 .text          0x00000000010ea9b4      0x184 /opt/gcc-linaro-7.2.1-2017.11-x86_64_arm-eabi/arm-eabi/libc/usr/lib/libc.a(lib_a-strchr.o)
                0x00000000010ea9b4                strchr
 .text          0x00000000010eab38       0x54 /opt/gcc-linaro-7.2.1-2017.11-x86_64_arm-eabi/arm-eabi/libc/usr/lib/libc.a(lib_a-strlcpy.o)
                0x00000000010eab38                strlcpy
 .text          0x00000000010eab8c       0x94 /opt/gcc-linaro-7.2.1-2017.11-x86_64_arm-eabi/arm-eabi/libc/usr/lib/libc.a(lib_a-strncasecmp.o)
                0x00000000010eab8c                strncasecmp
 .text          0x00000000010eac20     0x18a4 /opt/gcc-linaro-7.2.1-2017.11-x86_64_arm-eabi/arm-eabi/libc/usr/lib/libc.a(lib_a-strtod.o)
                0x00000000010eac20                _strtod_l
                0x00000000010ec260                _strtod_r
                0x00000000010ec284                strtod_l
                0x00000000010ec2a0                strtod
                0x00000000010ec2d8                strtof_l
                0x00000000010ec3c4                strtof
 .text          0x00000000010ec4c4      0x354 /opt/gcc-linaro-7.2.1-2017.11-x86_64_arm-eabi/arm-eabi/libc/usr/lib/libc.a(lib_a-strtoll.o)
                0x00000000010ec758                _strtoll_r
                0x00000000010ec794                strtoll_l
                0x00000000010ec7cc                strtoll
 .text          0x00000000010ec818      0x338 /opt/gcc-linaro-7.2.1-2017.11-x86_64_arm-eabi/arm-eabi/libc/usr/lib/libc.a(lib_a-strtoull.o)
                0x00000000010eca90                _strtoull_r
                0x00000000010ecacc                strtoull_l
                0x00000000010ecb04                strtoull
 .text          0x00000000010ecb50     0x9c7c /opt/gcc-linaro-7.2.1-2017.11-x86_64_arm-eabi/arm-eabi/libc/usr/lib/libc.a(lib_a-svfiprintf.o)
                0x00000000010f3c24                __ssprint_r
                0x00000000010f3db4                _svfiprintf_r
 .text          0x00000000010f67cc     0x20e8 /opt/gcc-linaro-7.2.1-2017.11-x86_64_arm-eabi/arm-eabi/libc/usr/lib/libc.a(lib_a-svfiscanf.o)
                0x00000000010f67cc                _sungetc_r
                0x00000000010f68b0                __ssrefill_r
                0x00000000010f691c                _sfread_r
                0x00000000010f69ec                __ssvfiscanf_r
 .text          0x00000000010f88b4      0xa0c /opt/gcc-linaro-7.2.1-2017.11-x86_64_arm-eabi/arm-eabi/libc/usr/lib/libc.a(lib_a-syscalls.o)
                0x00000000010f896c                initialise_monitor_handles
                0x00000000010f8a1c                _swiread
                0x00000000010f8a60                _read
                0x00000000010f8b28                _swilseek
                0x00000000010f8c24                _lseek
                0x00000000010f8c44                _swiwrite
                0x00000000010f8c88                _write
                0x00000000010f8d54                _swiopen
                0x00000000010f8e58                _open
                0x00000000010f8e8c                _swiclose
                0x00000000010f8f00                _close
                0x00000000010f8f20                _kill
                0x00000000010f8f58                _exit
                0x00000000010f8f80                _getpid
                0x00000000010f8f88                _sbrk
                0x00000000010f8fe8                _fstat
                0x00000000010f901c                _stat
                0x00000000010f9088                _link
                0x00000000010f9090                _unlink
                0x00000000010f90e8                _raise
                0x00000000010f90ec                _gettimeofday
                0x00000000010f9134                _times
                0x00000000010f9170                _isatty
                0x00000000010f91c0                _system
                0x00000000010f9254                _rename
 .text          0x00000000010f92c0      0x23c /opt/gcc-linaro-7.2.1-2017.11-x86_64_arm-eabi/arm-eabi/libc/usr/lib/libc.a(lib_a-ungetc.o)
                0x00000000010f92c0                __submore
                0x00000000010f9370                _ungetc_r
                0x00000000010f94e4                ungetc
 .text          0x00000000010f94fc      0x21c /opt/gcc-linaro-7.2.1-2017.11-x86_64_arm-eabi/arm-eabi/libc/usr/lib/libc.a(lib_a-wcsnrtombs.o)
                0x00000000010f94fc                _wcsnrtombs_l
                0x00000000010f9678                _wcsnrtombs_r
                0x00000000010f96c0                wcsnrtombs
 .text          0x00000000010f9718      0x35c /opt/gcc-linaro-7.2.1-2017.11-x86_64_arm-eabi/arm-eabi/libc/usr/lib/libc.a(lib_a-wctomb_r.o)
                0x00000000010f9718                _wctomb_r
                0x00000000010f974c                __ascii_wctomb
                0x00000000010f9774                __utf8_wctomb
                0x00000000010f9860                __sjis_wctomb
                0x00000000010f98e8                __eucjp_wctomb
                0x00000000010f9998                __jis_wctomb
 .text          0x00000000010f9a74       0x98 /opt/gcc-linaro-7.2.1-2017.11-x86_64_arm-eabi/arm-eabi/libc/usr/lib/libc.a(lib_a-callocr.o)
                0x00000000010f9a74                _calloc_r
 .text          0x00000000010f9b0c       0x10 /opt/gcc-linaro-7.2.1-2017.11-x86_64_arm-eabi/arm-eabi/libc/usr/lib/libc.a(lib_a-ctype_.o)
                0x00000000010f9b0c                __set_ctype
 .text          0x00000000010f9b1c       0x10 /opt/gcc-linaro-7.2.1-2017.11-x86_64_arm-eabi/arm-eabi/libc/usr/lib/libc.a(lib_a-errno.o)
                0x00000000010f9b1c                __errno
 .text          0x00000000010f9b2c      0x2dc /opt/gcc-linaro-7.2.1-2017.11-x86_64_arm-eabi/arm-eabi/libc/usr/lib/libc.a(lib_a-fflush.o)
                0x00000000010f9b2c                __sflush_r
                0x00000000010f9d74                _fflush_r
                0x00000000010f9dd0                fflush
 .text          0x00000000010f9e08      0x340 /opt/gcc-linaro-7.2.1-2017.11-x86_64_arm-eabi/arm-eabi/libc/usr/lib/libc.a(lib_a-findfp.o)
                0x00000000010f9e10                _cleanup_r
                0x00000000010f9f78                __sfmoreglue
                0x00000000010f9fc8                __sfp
                0x00000000010fa0bc                _cleanup
                0x00000000010fa0e0                __sinit
                0x00000000010fa0f0                __sfp_lock_acquire
                0x00000000010fa0f4                __sfp_lock_release
                0x00000000010fa0f8                __sinit_lock_acquire
                0x00000000010fa0fc                __sinit_lock_release
                0x00000000010fa100                __fp_lock_all
                0x00000000010fa124                __fp_unlock_all
 .text          0x00000000010fa148       0xf8 /opt/gcc-linaro-7.2.1-2017.11-x86_64_arm-eabi/arm-eabi/libc/usr/lib/libc.a(lib_a-fwalk.o)
                0x00000000010fa148                _fwalk
                0x00000000010fa1c0                _fwalk_reent
 .text          0x00000000010fa240      0x90c /opt/gcc-linaro-7.2.1-2017.11-x86_64_arm-eabi/arm-eabi/libc/usr/lib/libc.a(lib_a-gdtoa-gethex.o)
                0x00000000010fa34c                __gethex
 .text          0x00000000010fab4c      0x2c8 /opt/gcc-linaro-7.2.1-2017.11-x86_64_arm-eabi/arm-eabi/libc/usr/lib/libc.a(lib_a-gdtoa-hexnan.o)
                0x00000000010fab4c                __match
                0x00000000010fabb4                __hexnan
 .text          0x00000000010fae14       0xec /opt/gcc-linaro-7.2.1-2017.11-x86_64_arm-eabi/arm-eabi/libc/usr/lib/libc.a(lib_a-getenv_r.o)
                0x00000000010fae14                _findenv_r
                0x00000000010faee4                _getenv_r
 .text          0x00000000010faf00      0x4dc /opt/gcc-linaro-7.2.1-2017.11-x86_64_arm-eabi/arm-eabi/libc/usr/lib/libc.a(lib_a-reallocr.o)
                0x00000000010faf00                _realloc_r
 .text          0x00000000010fb3dc        0x0 /opt/gcc-linaro-7.2.1-2017.11-x86_64_arm-eabi/arm-eabi/libc/usr/lib/libc.a(lib_a-environ.o)
 .text          0x00000000010fb3dc        0x8 /opt/gcc-linaro-7.2.1-2017.11-x86_64_arm-eabi/arm-eabi/libc/usr/lib/libc.a(lib_a-envlock.o)
                0x00000000010fb3dc                __env_lock
                0x00000000010fb3e0                __env_unlock
 .text          0x00000000010fb3e4      0x114 /opt/gcc-linaro-7.2.1-2017.11-x86_64_arm-eabi/arm-eabi/libc/usr/lib/libc.a(lib_a-fclose.o)
                0x00000000010fb3e4                _fclose_r
                0x00000000010fb4e4                fclose
 .text          0x00000000010fb4f8        0x8 /opt/gcc-linaro-7.2.1-2017.11-x86_64_arm-eabi/arm-eabi/libc/usr/lib/libm.a(lib_a-sf_fabs.o)
                0x00000000010fb4f8                fabsf
 .text          0x00000000010fb500      0x114 /opt/gcc-linaro-7.2.1-2017.11-x86_64_arm-eabi/arm-eabi/libc/usr/lib/libgcc.a(_udivsi3.o)
                0x00000000010fb500                __udivsi3
                0x00000000010fb500                __aeabi_uidiv
                0x00000000010fb5f4                __aeabi_uidivmod
 .text          0x00000000010fb614        0x4 /opt/gcc-linaro-7.2.1-2017.11-x86_64_arm-eabi/arm-eabi/libc/usr/lib/libgcc.a(_dvmd_tls.o)
                0x00000000010fb614                __aeabi_ldiv0
                0x00000000010fb614                __aeabi_idiv0
 .text          0x00000000010fb618      0x424 /opt/gcc-linaro-7.2.1-2017.11-x86_64_arm-eabi/arm-eabi/libc/usr/lib/libgcc.a(_arm_addsubdf3.o)
                0x00000000010fb618                __aeabi_drsub
                0x00000000010fb620                __aeabi_dsub
                0x00000000010fb620                __subdf3
                0x00000000010fb624                __adddf3
                0x00000000010fb624                __aeabi_dadd
                0x00000000010fb934                __aeabi_ui2d
                0x00000000010fb934                __floatunsidf
                0x00000000010fb958                __floatsidf
                0x00000000010fb958                __aeabi_i2d
                0x00000000010fb980                __extendsfdf2
                0x00000000010fb980                __aeabi_f2d
                0x00000000010fb9c8                __aeabi_ul2d
                0x00000000010fb9c8                __floatundidf
                0x00000000010fb9dc                __floatdidf
                0x00000000010fb9dc                __aeabi_l2d
 .text          0x00000000010fba3c      0x49c /opt/gcc-linaro-7.2.1-2017.11-x86_64_arm-eabi/arm-eabi/libc/usr/lib/libgcc.a(_arm_muldivdf3.o)
                0x00000000010fba3c                __aeabi_dmul
                0x00000000010fba3c                __muldf3
                0x00000000010fbccc                __aeabi_ddiv
                0x00000000010fbccc                __divdf3
 .text          0x00000000010fbed8      0x144 /opt/gcc-linaro-7.2.1-2017.11-x86_64_arm-eabi/arm-eabi/libc/usr/lib/libgcc.a(_arm_cmpdf2.o)
                0x00000000010fbed8                __gtdf2
                0x00000000010fbed8                __gedf2
                0x00000000010fbee0                __ltdf2
                0x00000000010fbee0                __ledf2
                0x00000000010fbee8                __cmpdf2
                0x00000000010fbee8                __eqdf2
                0x00000000010fbee8                __nedf2
                0x00000000010fbf70                __aeabi_cdrcmple
                0x00000000010fbf8c                __aeabi_cdcmple
                0x00000000010fbf8c                __aeabi_cdcmpeq
                0x00000000010fbfa4                __aeabi_dcmpeq
                0x00000000010fbfbc                __aeabi_dcmplt
                0x00000000010fbfd4                __aeabi_dcmple
                0x00000000010fbfec                __aeabi_dcmpge
                0x00000000010fc004                __aeabi_dcmpgt
 .text          0x00000000010fc01c       0x38 /opt/gcc-linaro-7.2.1-2017.11-x86_64_arm-eabi/arm-eabi/libc/usr/lib/libgcc.a(_arm_unorddf2.o)
                0x00000000010fc01c                __aeabi_dcmpun
                0x00000000010fc01c                __unorddf2
 .text          0x00000000010fc054       0x5c /opt/gcc-linaro-7.2.1-2017.11-x86_64_arm-eabi/arm-eabi/libc/usr/lib/libgcc.a(_arm_fixdfsi.o)
                0x00000000010fc054                __fixdfsi
                0x00000000010fc054                __aeabi_d2iz
 .text          0x00000000010fc0b0       0x54 /opt/gcc-linaro-7.2.1-2017.11-x86_64_arm-eabi/arm-eabi/libc/usr/lib/libgcc.a(_arm_fixunsdfsi.o)
                0x00000000010fc0b0                __fixunsdfsi
                0x00000000010fc0b0                __aeabi_d2uiz
 .text          0x00000000010fc104       0xa0 /opt/gcc-linaro-7.2.1-2017.11-x86_64_arm-eabi/arm-eabi/libc/usr/lib/libgcc.a(_arm_truncdfsf2.o)
                0x00000000010fc104                __aeabi_d2f
                0x00000000010fc104                __truncdfsf2
 .text          0x00000000010fc1a4      0x114 /opt/gcc-linaro-7.2.1-2017.11-x86_64_arm-eabi/arm-eabi/libc/usr/lib/libgcc.a(_arm_cmpsf2.o)
                0x00000000010fc1a4                __gtsf2
                0x00000000010fc1a4                __gesf2
                0x00000000010fc1ac                __lesf2
                0x00000000010fc1ac                __ltsf2
                0x00000000010fc1b4                __nesf2
                0x00000000010fc1b4                __eqsf2
                0x00000000010fc1b4                __cmpsf2
                0x00000000010fc218                __aeabi_cfrcmple
                0x00000000010fc228                __aeabi_cfcmple
                0x00000000010fc228                __aeabi_cfcmpeq
                0x00000000010fc240                __aeabi_fcmpeq
                0x00000000010fc258                __aeabi_fcmplt
                0x00000000010fc270                __aeabi_fcmple
                0x00000000010fc288                __aeabi_fcmpge
                0x00000000010fc2a0                __aeabi_fcmpgt
 .text          0x00000000010fc2b8       0x38 /opt/gcc-linaro-7.2.1-2017.11-x86_64_arm-eabi/arm-eabi/libc/usr/lib/libgcc.a(_arm_unordsf2.o)
                0x00000000010fc2b8                __aeabi_fcmpun
                0x00000000010fc2b8                __unordsf2
 .text          0x00000000010fc2f0       0x3c /opt/gcc-linaro-7.2.1-2017.11-x86_64_arm-eabi/arm-eabi/libc/usr/lib/libgcc.a(_aeabi_uldivmod.o)
                0x00000000010fc2f0                __aeabi_uldivmod
 .text          0x00000000010fc32c      0x12c /opt/gcc-linaro-7.2.1-2017.11-x86_64_arm-eabi/arm-eabi/libc/usr/lib/libgcc.a(_udivmoddi4.o)
                0x00000000010fc32c                __udivmoddi4
 .text          0x00000000010fc458       0x28 /opt/gcc-linaro-7.2.1-2017.11-x86_64_arm-eabi/arm-eabi/libc/usr/lib/libgcc.a(_clzdi2.o)
                0x00000000010fc458                __clzdi2
 .text          0x00000000010fc480       0x48 /opt/gcc-linaro-7.2.1-2017.11-x86_64_arm-eabi/arm-eabi/libc/usr/lib/libgcc.a(_clzsi2.o)
                0x00000000010fc480                __clzsi2
                0x00000000010fc4c8                __TEXT_END__ = .
                0x00000000010fc4c8                . = ALIGN (0x4)

.text.unlikely  0x00000000010fc4c8       0x6c
 .text.unlikely
                0x00000000010fc4c8       0x6c /opt/gcc-linaro-7.2.1-2017.11-x86_64_arm-eabi/arm-eabi/libc/usr/lib/libc.a(lib_a-strtod.o)

.rodata         0x00000000010fc538    0x16e88
                0x00000000010fc538                __RODATA_START__ = .
 *(.rodata)
 .rodata        0x00000000010fc538      0x11b ./../../../build/tcc70xx/gcc/tcc70xx-freertos-debug/obj/main.o
 *fill*         0x00000000010fc653        0x1 
 .rodata        0x00000000010fc654      0xb01 ./../../../build/tcc70xx/gcc/tcc70xx-freertos-debug/obj/can_demo.o
 *fill*         0x00000000010fd155        0x3 
 .rodata        0x00000000010fd158      0x17d ./../../../build/tcc70xx/gcc/tcc70xx-freertos-debug/obj/can_vcp_ctrl.o
 *fill*         0x00000000010fd2d5        0x3 
 .rodata        0x00000000010fd2d8      0x685 ./../../../build/tcc70xx/gcc/tcc70xx-freertos-debug/obj/console.o
 *fill*         0x00000000010fd95d        0x3 
 .rodata        0x00000000010fd960      0x889 ./../../../build/tcc70xx/gcc/tcc70xx-freertos-debug/obj/fwupdate.o
 *fill*         0x00000000010fe1e9        0x3 
 .rodata        0x00000000010fe1ec        0x5 ./../../../build/tcc70xx/gcc/tcc70xx-freertos-debug/obj/idle.o
 *fill*         0x00000000010fe1f1        0x3 
 .rodata        0x00000000010fe1f4       0xe2 ./../../../build/tcc70xx/gcc/tcc70xx-freertos-debug/obj/iperf_task_v3_0d.o
 *fill*         0x00000000010fe2d6        0x2 
 .rodata        0x00000000010fe2d8        0x7 ./../../../build/tcc70xx/gcc/tcc70xx-freertos-debug/obj/spi_led.o
 *fill*         0x00000000010fe2df        0x1 
 .rodata        0x00000000010fe2e0      0x314 ./../../../build/tcc70xx/gcc/tcc70xx-freertos-debug/obj/audio_test.o
 .rodata        0x00000000010fe5f4        0x8 ./../../../build/tcc70xx/gcc/tcc70xx-freertos-debug/obj/audio_chip_veri.o
 .rodata        0x00000000010fe5fc      0x200 ./../../../build/tcc70xx/gcc/tcc70xx-freertos-debug/obj/wm8904.o
                0x00000000010fe5fc                volumeSteps
 .rodata        0x00000000010fe7fc       0x8b ./../../../build/tcc70xx/gcc/tcc70xx-freertos-debug/obj/cpu_test.o
 *fill*         0x00000000010fe887        0x1 
 .rodata        0x00000000010fe888      0x287 ./../../../build/tcc70xx/gcc/tcc70xx-freertos-debug/obj/dse_test.o
 *fill*         0x00000000010feb0f        0x1 
 .rodata        0x00000000010feb10      0xaec ./../../../build/tcc70xx/gcc/tcc70xx-freertos-debug/obj/eflash_test.o
 .rodata        0x00000000010ff5fc      0x229 ./../../../build/tcc70xx/gcc/tcc70xx-freertos-debug/obj/fmu_test.o
 *fill*         0x00000000010ff825        0x3 
 .rodata        0x00000000010ff828      0x19a ./../../../build/tcc70xx/gcc/tcc70xx-freertos-debug/obj/gdma_test.o
 *fill*         0x00000000010ff9c2        0x2 
 .rodata        0x00000000010ff9c4      0x1fa ./../../../build/tcc70xx/gcc/tcc70xx-freertos-debug/obj/gic_test.o
 *fill*         0x00000000010ffbbe        0x2 
 .rodata        0x00000000010ffbc0      0xabd ./../../../build/tcc70xx/gcc/tcc70xx-freertos-debug/obj/gpio_test.o
 *fill*         0x000000000110067d        0x3 
 .rodata        0x0000000001100680      0x9fe ./../../../build/tcc70xx/gcc/tcc70xx-freertos-debug/obj/gpsb_test.o
 *fill*         0x000000000110107e        0x2 
 .rodata        0x0000000001101080     0x1f4d ./../../../build/tcc70xx/gcc/tcc70xx-freertos-debug/obj/hsm_test.o
 *fill*         0x0000000001102fcd        0x3 
 .rodata        0x0000000001102fd0      0x1de ./../../../build/tcc70xx/gcc/tcc70xx-freertos-debug/obj/i2c_test.o
 *fill*         0x00000000011031ae        0x2 
 .rodata        0x00000000011031b0      0x2b1 ./../../../build/tcc70xx/gcc/tcc70xx-freertos-debug/obj/ictc_test.o
 *fill*         0x0000000001103461        0x3 
 .rodata        0x0000000001103464      0x1ae ./../../../build/tcc70xx/gcc/tcc70xx-freertos-debug/obj/lin_test.o
 *fill*         0x0000000001103612        0x2 
 .rodata        0x0000000001103614      0x217 ./../../../build/tcc70xx/gcc/tcc70xx-freertos-debug/obj/pdm_test.o
 *fill*         0x000000000110382b        0x1 
 .rodata        0x000000000110382c      0x78c ./../../../build/tcc70xx/gcc/tcc70xx-freertos-debug/obj/pmu_test.o
 .rodata        0x0000000001103fb8      0x263 ./../../../build/tcc70xx/gcc/tcc70xx-freertos-debug/obj/rtc_test.o
 *fill*         0x000000000110421b        0x1 
 .rodata        0x000000000110421c       0xc2 ./../../../build/tcc70xx/gcc/tcc70xx-freertos-debug/obj/sfmc_test.o
 *fill*         0x00000000011042de        0x2 
 .rodata        0x00000000011042e0      0x256 ./../../../build/tcc70xx/gcc/tcc70xx-freertos-debug/obj/echo_test.o
 *fill*         0x0000000001104536        0x2 
 .rodata        0x0000000001104538      0x4af ./../../../build/tcc70xx/gcc/tcc70xx-freertos-debug/obj/timer_test.o
 *fill*         0x00000000011049e7        0x1 
 .rodata        0x00000000011049e8       0xd5 ./../../../build/tcc70xx/gcc/tcc70xx-freertos-debug/obj/uart_test.o
 *fill*         0x0000000001104abd        0x3 
 .rodata        0x0000000001104ac0      0xe4b ./../../../build/tcc70xx/gcc/tcc70xx-freertos-debug/obj/wdt_test.o
 *fill*         0x000000000110590b        0x1 
 .rodata        0x000000000110590c      0xa72 ./../../../build/tcc70xx/gcc/tcc70xx-freertos-debug/obj/writelock_test.o
 *fill*         0x000000000110637e        0x2 
 .rodata        0x0000000001106380        0xc ./../../../build/tcc70xx/gcc/tcc70xx-freertos-debug/obj/eth_test.o
 .rodata        0x000000000110638c      0x5b0 ./../../../build/tcc70xx/gcc/tcc70xx-freertos-debug/obj/spu_test.o
 .rodata        0x000000000110693c      0x14a ./../../../build/tcc70xx/gcc/tcc70xx-freertos-debug/obj/power_app.o
 *fill*         0x0000000001106a86        0x2 
 .rodata        0x0000000001106a88      0x2ce ./../../../build/tcc70xx/gcc/tcc70xx-freertos-debug/obj/power_com.o
 *fill*         0x0000000001106d56        0x2 
 .rodata        0x0000000001106d58      0x5ca ./../../../build/tcc70xx/gcc/tcc70xx-freertos-debug/obj/spi_eccp.o
 *fill*         0x0000000001107322        0x2 
 .rodata        0x0000000001107324      0x98c ./../../../build/tcc70xx/gcc/tcc70xx-freertos-debug/obj/hsm_manager.o
 .rodata        0x0000000001107cb0      0x500 ./../../../build/tcc70xx/gcc/tcc70xx-freertos-debug/obj/lin.o
 .rodata        0x00000000011081b0      0x189 ./../../../build/tcc70xx/gcc/tcc70xx-freertos-debug/obj/adc.o
 *fill*         0x0000000001108339        0x3 
 .rodata        0x000000000110833c       0x9f ./../../../build/tcc70xx/gcc/tcc70xx-freertos-debug/obj/can.o
 *fill*         0x00000000011083db        0x1 
 .rodata        0x00000000011083dc      0x56e ./../../../build/tcc70xx/gcc/tcc70xx-freertos-debug/obj/can_drv.o
 *fill*         0x000000000110894a        0x2 
 .rodata        0x000000000110894c       0x25 ./../../../build/tcc70xx/gcc/tcc70xx-freertos-debug/obj/debug.o
 *fill*         0x0000000001108971        0x3 
 .rodata        0x0000000001108974       0x3a ./../../../build/tcc70xx/gcc/tcc70xx-freertos-debug/obj/bsp.o
 *fill*         0x00000000011089ae        0x2 
 .rodata        0x00000000011089b0       0xb8 ./../../../build/tcc70xx/gcc/tcc70xx-freertos-debug/obj/dse.o
 .rodata        0x0000000001108a68      0x3f2 ./../../../build/tcc70xx/gcc/tcc70xx-freertos-debug/obj/eflash.o
 *fill*         0x0000000001108e5a        0x2 
 .rodata        0x0000000001108e5c      0x5b7 ./../../../build/tcc70xx/gcc/tcc70xx-freertos-debug/obj/eth.o
 *fill*         0x0000000001109413        0x1 
 .rodata        0x0000000001109414       0xde ./../../../build/tcc70xx/gcc/tcc70xx-freertos-debug/obj/eth_mii.o
 *fill*         0x00000000011094f2        0x2 
 .rodata        0x00000000011094f4      0x305 ./../../../build/tcc70xx/gcc/tcc70xx-freertos-debug/obj/fmu.o
 *fill*         0x00000000011097f9        0x3 
 .rodata        0x00000000011097fc      0x13e ./../../../build/tcc70xx/gcc/tcc70xx-freertos-debug/obj/gdma.o
 *fill*         0x000000000110993a        0x2 
 .rodata        0x000000000110993c      0x400 ./../../../build/tcc70xx/gcc/tcc70xx-freertos-debug/obj/gpio.o
 .rodata        0x0000000001109d3c     0x10e1 ./../../../build/tcc70xx/gcc/tcc70xx-freertos-debug/obj/gpsb.o
 *fill*         0x000000000110ae1d        0x3 
 .rodata        0x000000000110ae20      0x210 ./../../../build/tcc70xx/gcc/tcc70xx-freertos-debug/obj/gpsb_reg.o
                0x000000000110ae20                gpsbport
                0x000000000110b018                gpsb_sm
 .rodata        0x000000000110b030      0x79a ./../../../build/tcc70xx/gcc/tcc70xx-freertos-debug/obj/i2c.o
 *fill*         0x000000000110b7ca        0x2 
 .rodata        0x000000000110b7cc      0x46d ./../../../build/tcc70xx/gcc/tcc70xx-freertos-debug/obj/i2s.o
 *fill*         0x000000000110bc39        0x3 
 .rodata        0x000000000110bc3c      0x739 ./../../../build/tcc70xx/gcc/tcc70xx-freertos-debug/obj/ictc.o
 *fill*         0x000000000110c375        0x3 
 .rodata        0x000000000110c378      0x5da ./../../../build/tcc70xx/gcc/tcc70xx-freertos-debug/obj/pdm.o
 *fill*         0x000000000110c952        0x2 
 .rodata        0x000000000110c954      0x472 ./../../../build/tcc70xx/gcc/tcc70xx-freertos-debug/obj/pmio_dev.o
 *fill*         0x000000000110cdc6        0x2 
 .rodata        0x000000000110cdc8       0x28 ./../../../build/tcc70xx/gcc/tcc70xx-freertos-debug/obj/pmio_dev_extn_pw_ctl.o
 .rodata        0x000000000110cdf0      0x152 ./../../../build/tcc70xx/gcc/tcc70xx-freertos-debug/obj/pmu.o
 *fill*         0x000000000110cf42        0x2 
 .rodata        0x000000000110cf44       0xb5 ./../../../build/tcc70xx/gcc/tcc70xx-freertos-debug/obj/rtc_dev.o
 *fill*         0x000000000110cff9        0x3 
 .rodata        0x000000000110cffc     0x14d4 ./../../../build/tcc70xx/gcc/tcc70xx-freertos-debug/obj/snor_mio.o
 .rodata        0x000000000110e4d0      0x2a3 ./../../../build/tcc70xx/gcc/tcc70xx-freertos-debug/obj/spu.o
 *fill*         0x000000000110e773        0x1 
 .rodata        0x000000000110e774      0x2f5 ./../../../build/tcc70xx/gcc/tcc70xx-freertos-debug/obj/ssm.o
 *fill*         0x000000000110ea69        0x3 
 .rodata        0x000000000110ea6c       0xde ./../../../build/tcc70xx/gcc/tcc70xx-freertos-debug/obj/timer.o
 *fill*         0x000000000110eb4a        0x2 
 .rodata        0x000000000110eb4c      0x33d ./../../../build/tcc70xx/gcc/tcc70xx-freertos-debug/obj/uart.o
 *fill*         0x000000000110ee89        0x3 
 .rodata        0x000000000110ee8c      0x18d ./../../../build/tcc70xx/gcc/tcc70xx-freertos-debug/obj/wdt.o
 *fill*         0x000000000110f019        0x3 
 .rodata        0x000000000110f01c      0x1ac ./../../../build/tcc70xx/gcc/tcc70xx-freertos-debug/obj/wdt_pmu.o
 .rodata        0x000000000110f1c8        0x5 ./../../../build/tcc70xx/gcc/tcc70xx-freertos-debug/obj/tasks.o
 *fill*         0x000000000110f1cd        0x3 
 .rodata        0x000000000110f1d0        0xd ./../../../build/tcc70xx/gcc/tcc70xx-freertos-debug/obj/timers.o
 *fill*         0x000000000110f1dd        0x3 
 .rodata        0x000000000110f1e0       0x20 ./../../../build/tcc70xx/gcc/tcc70xx-freertos-debug/obj/port.o
                0x000000000110f1e0                ulICCIAR
                0x000000000110f1e4                ulICCEOIR
                0x000000000110f1e8                ulICCPMR
                0x000000000110f1ec                ulMaxAPIPriorityMask
 .rodata        0x000000000110f200        0x4 ./../../../build/tcc70xx/gcc/tcc70xx-freertos-debug/obj/heap_5.o
 .rodata        0x000000000110f204       0x26 ./../../../build/tcc70xx/gcc/tcc70xx-freertos-debug/obj/FreeRTOS_ARP.o
 *fill*         0x000000000110f22a        0x2 
 .rodata        0x000000000110f22c       0x14 ./../../../build/tcc70xx/gcc/tcc70xx-freertos-debug/obj/FreeRTOS_DNS.o
                0x000000000110f22c                xLLMNR_MacAdress
 .rodata        0x000000000110f240       0x28 ./../../../build/tcc70xx/gcc/tcc70xx-freertos-debug/obj/FreeRTOS_IP.o
                0x000000000110f240                xBroadcastMACAddress
 .rodata        0x000000000110f268       0x25 ./../../../build/tcc70xx/gcc/tcc70xx-freertos-debug/obj/FreeRTOS_Port.o
                0x000000000110f268                xLogToStdout
                0x000000000110f26c                xLogToFile
                0x000000000110f270                xLogToUDP
 *fill*         0x000000000110f28d        0x3 
 .rodata        0x000000000110f290        0x4 ./../../../build/tcc70xx/gcc/tcc70xx-freertos-debug/obj/BufferAllocation_1.o
                0x000000000110f290                xBufferAllocFixedSize
 .rodata        0x000000000110f294       0x4c ./../../../build/tcc70xx/gcc/tcc70xx-freertos-debug/obj/NetworkInterface.o
 .rodata        0x000000000110f2e0      0x259 ./../../../build/tcc70xx/gcc/tcc70xx-freertos-debug/obj/sal_freertos_impl.o
 *fill*         0x000000000110f539        0x3 
 .rodata        0x000000000110f53c       0x20 /opt/gcc-linaro-7.2.1-2017.11-x86_64_arm-eabi/arm-eabi/libc/usr/lib/libc.a(lib_a-svfprintf.o)
 .rodata        0x000000000110f55c       0x22 /opt/gcc-linaro-7.2.1-2017.11-x86_64_arm-eabi/arm-eabi/libc/usr/lib/libc.a(lib_a-svfscanf.o)
 *fill*         0x000000000110f57e        0x2 
 .rodata        0x000000000110f580        0x4 /opt/gcc-linaro-7.2.1-2017.11-x86_64_arm-eabi/arm-eabi/libc/usr/lib/libc.a(lib_a-impure.o)
                0x000000000110f580                _global_impure_ptr
 .rodata        0x000000000110f584     0x34ce /opt/gcc-linaro-7.2.1-2017.11-x86_64_arm-eabi/arm-eabi/libc/usr/lib/libc.a(lib_a-jp2uc.o)
 *fill*         0x0000000001112a52        0x2 
 .rodata        0x0000000001112a54      0x188 /opt/gcc-linaro-7.2.1-2017.11-x86_64_arm-eabi/arm-eabi/libc/usr/lib/libc.a(lib_a-locale.o)
                0x0000000001112a70                __C_locale
 .rodata        0x0000000001112bdc       0x90 /opt/gcc-linaro-7.2.1-2017.11-x86_64_arm-eabi/arm-eabi/libc/usr/lib/libc.a(lib_a-mbtowc_r.o)
 *fill*         0x0000000001112c6c        0x4 
 .rodata        0x0000000001112c70      0x128 /opt/gcc-linaro-7.2.1-2017.11-x86_64_arm-eabi/arm-eabi/libc/usr/lib/libc.a(lib_a-mprec.o)
                0x0000000001112c80                __mprec_tens
                0x0000000001112d48                __mprec_tinytens
                0x0000000001112d70                __mprec_bigtens
 .rodata        0x0000000001112d98       0x50 /opt/gcc-linaro-7.2.1-2017.11-x86_64_arm-eabi/arm-eabi/libc/usr/lib/libc.a(lib_a-strtod.o)
 .rodata        0x0000000001112de8      0x1f8 /opt/gcc-linaro-7.2.1-2017.11-x86_64_arm-eabi/arm-eabi/libc/usr/lib/libc.a(lib_a-svfiprintf.o)
                0x0000000001112de8                __chclass
                0x0000000001112ee8                __state_table
                0x0000000001112f54                __action_table
 .rodata        0x0000000001112fe0       0x22 /opt/gcc-linaro-7.2.1-2017.11-x86_64_arm-eabi/arm-eabi/libc/usr/lib/libc.a(lib_a-svfiscanf.o)
 *fill*         0x0000000001113002        0x2 
 .rodata        0x0000000001113004      0x101 /opt/gcc-linaro-7.2.1-2017.11-x86_64_arm-eabi/arm-eabi/libc/usr/lib/libc.a(lib_a-ctype_.o)
                0x0000000001113004                _ctype_
 *fill*         0x0000000001113105        0x3 
 .rodata        0x0000000001113108      0x100 /opt/gcc-linaro-7.2.1-2017.11-x86_64_arm-eabi/arm-eabi/libc/usr/lib/libc.a(lib_a-gdtoa-gethex.o)
                0x0000000001113108                __hexdig
 *(.rodata.*)
 .rodata.str1.4
                0x0000000001113208       0x42 /opt/gcc-linaro-7.2.1-2017.11-x86_64_arm-eabi/arm-eabi/libc/usr/lib/libc.a(lib_a-svfprintf.o)
 *fill*         0x000000000111324a        0x2 
 .rodata.str1.4
                0x000000000111324c        0x5 /opt/gcc-linaro-7.2.1-2017.11-x86_64_arm-eabi/arm-eabi/libc/usr/lib/libc.a(lib_a-svfscanf.o)
 *fill*         0x0000000001113251        0x3 
 .rodata.str1.4
                0x0000000001113254       0x10 /opt/gcc-linaro-7.2.1-2017.11-x86_64_arm-eabi/arm-eabi/libc/usr/lib/libc.a(lib_a-dtoa.o)
                                         0x12 (size before relaxing)
 .rodata.str1.4
                0x0000000001113264       0x12 /opt/gcc-linaro-7.2.1-2017.11-x86_64_arm-eabi/arm-eabi/libc/usr/lib/libc.a(lib_a-jp2uc.o)
 *fill*         0x0000000001113276        0x2 
 .rodata.str1.4
                0x0000000001113278      0x118 /opt/gcc-linaro-7.2.1-2017.11-x86_64_arm-eabi/arm-eabi/libc/usr/lib/libc.a(lib_a-locale.o)
                                        0x130 (size before relaxing)
 .rodata.str1.4
                0x0000000001113390        0x1 /opt/gcc-linaro-7.2.1-2017.11-x86_64_arm-eabi/arm-eabi/libc/usr/lib/libc.a(lib_a-mbrtowc.o)
 .rodata.str1.4
                0x0000000001113390        0xf /opt/gcc-linaro-7.2.1-2017.11-x86_64_arm-eabi/arm-eabi/libc/usr/lib/libc.a(lib_a-strtod.o)
 .rodata.str1.4
                0x000000000111339f       0x2f /opt/gcc-linaro-7.2.1-2017.11-x86_64_arm-eabi/arm-eabi/libc/usr/lib/libc.a(lib_a-svfiprintf.o)
 *fill*         0x000000000111339f        0x1 
 .rodata.str1.4
                0x00000000011133a0        0x4 /opt/gcc-linaro-7.2.1-2017.11-x86_64_arm-eabi/arm-eabi/libc/usr/lib/libc.a(lib_a-syscalls.o)
 *(.const)
 *(.const.*)
                0x00000000011133c0                . = ALIGN (0x20)
 *fill*         0x00000000011133a4       0x1c 
                0x00000000011133c0                __RODATA_END__ = .

.vector         0x0000000000000000       0x60 load address 0x00000000011133c0
                0x00000000011133c0                __VECTOR_START_LOAD = LOADADDR (.vector)
                0x0000000000000000                __VECTOR_START__ = .
 *vector.o(.vector .text .rodata .rodata*)
 .vector        0x0000000000000000       0x50 ./../../../build/tcc70xx/gcc/tcc70xx-freertos-debug/obj/vector.o
                0x0000000000000000                _vector
                0x0000000000000000                _start
                0x0000000000000024                ARM_Reserved
                0x0000000000000060                . = ALIGN (0x20)
 *fill*         0x0000000000000050       0x10 
                0x0000000000000060                __VECTOR_END__ = .

.codeonsram     0x0000000000078980      0x260 load address 0x0000000001113420
                0x0000000001113420                __PRECODE_START_LOAD = LOADADDR (.codeonsram)
                0x0000000000000260                __PRECODE_SIZE__ = SIZEOF (.codeonsram)
                0x0000000000078980                __PRECODE_RAM_START__ = .
 *preload.o(.text .rodata .rodata* .rwdata*)
                0x0000000000078980                . = ALIGN (0x20)
 .codeonsram    0x0000000000078980      0x260 ./../../../build/tcc70xx/gcc/tcc70xx-freertos-debug/obj/preload.o
                0x0000000000078980                PRELOAD_JOB

.data           0x0000000000000060    0x12e80 load address 0x0000000001113680
                0x0000000001113680                __DATA_START_LOAD = LOADADDR (.data)
                0x0000000000000060                __DATA_START__ = .
 *(.data)
 .data          0x0000000000000060        0x0 ./../../../build/tcc70xx/gcc/tcc70xx-freertos-debug/obj/main.o
 .data          0x0000000000000060      0x2f8 ./../../../build/tcc70xx/gcc/tcc70xx-freertos-debug/obj/can_demo.o
 .data          0x0000000000000358        0x0 ./../../../build/tcc70xx/gcc/tcc70xx-freertos-debug/obj/can_vcp_ctrl.o
 .data          0x0000000000000358      0x1d8 ./../../../build/tcc70xx/gcc/tcc70xx-freertos-debug/obj/console.o
                0x0000000000000358                siADCDebug
 .data          0x0000000000000530        0x0 ./../../../build/tcc70xx/gcc/tcc70xx-freertos-debug/obj/fwupdate.o
 .data          0x0000000000000530        0x0 ./../../../build/tcc70xx/gcc/tcc70xx-freertos-debug/obj/idle.o
 .data          0x0000000000000530        0x0 ./../../../build/tcc70xx/gcc/tcc70xx-freertos-debug/obj/iperf_task_v3_0d.o
 .data          0x0000000000000530        0x0 ./../../../build/tcc70xx/gcc/tcc70xx-freertos-debug/obj/spi_led.o
 .data          0x0000000000000530     0xf9c8 ./../../../build/tcc70xx/gcc/tcc70xx-freertos-debug/obj/audio_test.o
                0x0000000000000530                g_Audio_Sample
                0x000000000000feec                gAudioRunning
                0x000000000000fef0                DATA_FLASH_ADDR
                0x000000000000fef4                SIZE_OF_SAMPLE
 .data          0x000000000000fef8        0x0 ./../../../build/tcc70xx/gcc/tcc70xx-freertos-debug/obj/audio_chip_veri.o
 .data          0x000000000000fef8        0x0 ./../../../build/tcc70xx/gcc/tcc70xx-freertos-debug/obj/wm8904.o
 .data          0x000000000000fef8        0x0 ./../../../build/tcc70xx/gcc/tcc70xx-freertos-debug/obj/cpu_test.o
 .data          0x000000000000fef8        0x0 ./../../../build/tcc70xx/gcc/tcc70xx-freertos-debug/obj/dse_test.o
 .data          0x000000000000fef8        0x4 ./../../../build/tcc70xx/gcc/tcc70xx-freertos-debug/obj/eflash_test.o
 .data          0x000000000000fefc        0x0 ./../../../build/tcc70xx/gcc/tcc70xx-freertos-debug/obj/fmu_test.o
 .data          0x000000000000fefc        0x0 ./../../../build/tcc70xx/gcc/tcc70xx-freertos-debug/obj/gdma_test.o
 .data          0x000000000000fefc        0x0 ./../../../build/tcc70xx/gcc/tcc70xx-freertos-debug/obj/gdma_ip_test.o
 .data          0x000000000000fefc        0x0 ./../../../build/tcc70xx/gcc/tcc70xx-freertos-debug/obj/gic_test.o
 .data          0x000000000000fefc      0x77c ./../../../build/tcc70xx/gcc/tcc70xx-freertos-debug/obj/gpio_test.o
                0x0000000000010328                wr_reg
 .data          0x0000000000010678        0x0 ./../../../build/tcc70xx/gcc/tcc70xx-freertos-debug/obj/gpsb_test.o
 .data          0x0000000000010678      0x844 ./../../../build/tcc70xx/gcc/tcc70xx-freertos-debug/obj/hsm_test.o
 .data          0x0000000000010ebc        0x0 ./../../../build/tcc70xx/gcc/tcc70xx-freertos-debug/obj/i2c_test.o
 .data          0x0000000000010ebc        0x0 ./../../../build/tcc70xx/gcc/tcc70xx-freertos-debug/obj/ictc_test.o
 .data          0x0000000000010ebc        0x0 ./../../../build/tcc70xx/gcc/tcc70xx-freertos-debug/obj/lin_test.o
 .data          0x0000000000010ebc        0x0 ./../../../build/tcc70xx/gcc/tcc70xx-freertos-debug/obj/pdm_test.o
 .data          0x0000000000010ebc        0x4 ./../../../build/tcc70xx/gcc/tcc70xx-freertos-debug/obj/pmu_test.o
 .data          0x0000000000010ec0        0x0 ./../../../build/tcc70xx/gcc/tcc70xx-freertos-debug/obj/rtc_test.o
 .data          0x0000000000010ec0        0x0 ./../../../build/tcc70xx/gcc/tcc70xx-freertos-debug/obj/sfmc_test.o
 .data          0x0000000000010ec0        0x0 ./../../../build/tcc70xx/gcc/tcc70xx-freertos-debug/obj/echo_test.o
 .data          0x0000000000010ec0        0x0 ./../../../build/tcc70xx/gcc/tcc70xx-freertos-debug/obj/timer_test.o
 .data          0x0000000000010ec0        0x6 ./../../../build/tcc70xx/gcc/tcc70xx-freertos-debug/obj/uart_test.o
 *fill*         0x0000000000010ec6        0x2 
 .data          0x0000000000010ec8       0x40 ./../../../build/tcc70xx/gcc/tcc70xx-freertos-debug/obj/wdt_test.o
 .data          0x0000000000010f08        0x0 ./../../../build/tcc70xx/gcc/tcc70xx-freertos-debug/obj/writelock_test.o
 .data          0x0000000000010f08      0x5eb ./../../../build/tcc70xx/gcc/tcc70xx-freertos-debug/obj/eth_test.o
 *fill*         0x00000000000114f3        0x5 
 .data          0x00000000000114f8      0x340 ./../../../build/tcc70xx/gcc/tcc70xx-freertos-debug/obj/spu_test.o
                0x00000000000114f8                SSLConigTable
                0x0000000000011560                sWGConigTable
                0x0000000000011628                sSRCConigTable
                0x00000000000116b8                sAVCConigTable
 .data          0x0000000000011838        0x0 ./../../../build/tcc70xx/gcc/tcc70xx-freertos-debug/obj/power_app.o
 .data          0x0000000000011838        0x0 ./../../../build/tcc70xx/gcc/tcc70xx-freertos-debug/obj/power_com.o
 .data          0x0000000000011838        0x0 ./../../../build/tcc70xx/gcc/tcc70xx-freertos-debug/obj/spi_eccp.o
 .data          0x0000000000011838        0x0 ./../../../build/tcc70xx/gcc/tcc70xx-freertos-debug/obj/hsm_manager.o
 .data          0x0000000000011838        0x0 ./../../../build/tcc70xx/gcc/tcc70xx-freertos-debug/obj/lin.o
 .data          0x0000000000011838        0x0 ./../../../build/tcc70xx/gcc/tcc70xx-freertos-debug/obj/swl.o
 .data          0x0000000000011838        0x0 ./../../../build/tcc70xx/gcc/tcc70xx-freertos-debug/obj/adc.o
 .data          0x0000000000011838        0x0 ./../../../build/tcc70xx/gcc/tcc70xx-freertos-debug/obj/can.o
 .data          0x0000000000011838        0x0 ./../../../build/tcc70xx/gcc/tcc70xx-freertos-debug/obj/can_drv.o
 .data          0x0000000000011838        0x0 ./../../../build/tcc70xx/gcc/tcc70xx-freertos-debug/obj/can_msg.o
 .data          0x0000000000011838      0x234 ./../../../build/tcc70xx/gcc/tcc70xx-freertos-debug/obj/can_par.o
                0x00000000000119e8                ArbitrationPhaseTimingPar
                0x0000000000011a00                DataPhaseTimingPar
                0x0000000000011a18                TxBufferInfoPar
                0x0000000000011a30                RxBufferInfoPar
                0x0000000000011a3c                RxBufferFIFO0InfoPar
                0x0000000000011a48                RxBufferFIFO1InfoPar
                0x0000000000011a54                StandardIDFilterPar
                0x0000000000011a60                ExtendedIDFilterPar
 .data          0x0000000000011a6c        0x0 ./../../../build/tcc70xx/gcc/tcc70xx-freertos-debug/obj/can_porting.o
 .data          0x0000000000011a6c        0x0 ./../../../build/tcc70xx/gcc/tcc70xx-freertos-debug/obj/clock_dev.o
 .data          0x0000000000011a6c       0xb2 ./../../../build/tcc70xx/gcc/tcc70xx-freertos-debug/obj/debug.o
                0x0000000000011a6c                gDebugOption
                0x0000000000011a70                dbgTags
 .data          0x0000000000011b1e        0x0 ./../../../build/tcc70xx/gcc/tcc70xx-freertos-debug/obj/bsp.o
 .data          0x0000000000011b1e        0x0 ./../../../build/tcc70xx/gcc/tcc70xx-freertos-debug/obj/dse.o
 .data          0x0000000000011b1e        0x0 ./../../../build/tcc70xx/gcc/tcc70xx-freertos-debug/obj/eflash.o
 .data          0x0000000000011b1e        0x0 ./../../../build/tcc70xx/gcc/tcc70xx-freertos-debug/obj/eth.o
 .data          0x0000000000011b1e        0x0 ./../../../build/tcc70xx/gcc/tcc70xx-freertos-debug/obj/eth_mii.o
 .data          0x0000000000011b1e        0x0 ./../../../build/tcc70xx/gcc/tcc70xx-freertos-debug/obj/fmu.o
 *fill*         0x0000000000011b1e        0x2 
 .data          0x0000000000011b20       0x60 ./../../../build/tcc70xx/gcc/tcc70xx-freertos-debug/obj/gdma.o
 .data          0x0000000000011b80        0x0 ./../../../build/tcc70xx/gcc/tcc70xx-freertos-debug/obj/gic.o
 .data          0x0000000000011b80        0x0 ./../../../build/tcc70xx/gcc/tcc70xx-freertos-debug/obj/gpio.o
 .data          0x0000000000011b80        0x0 ./../../../build/tcc70xx/gcc/tcc70xx-freertos-debug/obj/gpsb.o
 .data          0x0000000000011b80      0x228 ./../../../build/tcc70xx/gcc/tcc70xx-freertos-debug/obj/gpsb_reg.o
                0x0000000000011b80                gpsb
 .data          0x0000000000011da8        0x0 ./../../../build/tcc70xx/gcc/tcc70xx-freertos-debug/obj/i2c.o
 .data          0x0000000000011da8      0x1c8 ./../../../build/tcc70xx/gcc/tcc70xx-freertos-debug/obj/i2c_reg.o
                0x0000000000011da8                i2c
 .data          0x0000000000011f70        0x0 ./../../../build/tcc70xx/gcc/tcc70xx-freertos-debug/obj/i2s.o
 .data          0x0000000000011f70        0x0 ./../../../build/tcc70xx/gcc/tcc70xx-freertos-debug/obj/ictc.o
 .data          0x0000000000011f70        0x0 ./../../../build/tcc70xx/gcc/tcc70xx-freertos-debug/obj/mbox.o
 .data          0x0000000000011f70        0x0 ./../../../build/tcc70xx/gcc/tcc70xx-freertos-debug/obj/midf.o
 .data          0x0000000000011f70        0x0 ./../../../build/tcc70xx/gcc/tcc70xx-freertos-debug/obj/mpu.o
 .data          0x0000000000011f70        0x0 ./../../../build/tcc70xx/gcc/tcc70xx-freertos-debug/obj/preload.o
 .data          0x0000000000011f70      0x240 ./../../../build/tcc70xx/gcc/tcc70xx-freertos-debug/obj/pdm.o
 .data          0x00000000000121b0        0x0 ./../../../build/tcc70xx/gcc/tcc70xx-freertos-debug/obj/pmio_dev.o
 .data          0x00000000000121b0        0x0 ./../../../build/tcc70xx/gcc/tcc70xx-freertos-debug/obj/pmio_dev_extn_pw_ctl.o
 .data          0x00000000000121b0        0x0 ./../../../build/tcc70xx/gcc/tcc70xx-freertos-debug/obj/pmu.o
 .data          0x00000000000121b0        0x0 ./../../../build/tcc70xx/gcc/tcc70xx-freertos-debug/obj/rtc_dev.o
 .data          0x00000000000121b0      0x2e4 ./../../../build/tcc70xx/gcc/tcc70xx-freertos-debug/obj/snor_mio.o
 .data          0x0000000000012494        0x0 ./../../../build/tcc70xx/gcc/tcc70xx-freertos-debug/obj/spu.o
 .data          0x0000000000012494        0x0 ./../../../build/tcc70xx/gcc/tcc70xx-freertos-debug/obj/ssm.o
 .data          0x0000000000012494        0x0 ./../../../build/tcc70xx/gcc/tcc70xx-freertos-debug/obj/timer.o
 .data          0x0000000000012494       0x30 ./../../../build/tcc70xx/gcc/tcc70xx-freertos-debug/obj/uart.o
 .data          0x00000000000124c4        0x0 ./../../../build/tcc70xx/gcc/tcc70xx-freertos-debug/obj/wdt.o
 .data          0x00000000000124c4        0x0 ./../../../build/tcc70xx/gcc/tcc70xx-freertos-debug/obj/wdt_pmu.o
 .data          0x00000000000124c4        0x0 ./../../../build/tcc70xx/gcc/tcc70xx-freertos-debug/obj/tasks.o
 .data          0x00000000000124c4        0x0 ./../../../build/tcc70xx/gcc/tcc70xx-freertos-debug/obj/list.o
 .data          0x00000000000124c4        0x0 ./../../../build/tcc70xx/gcc/tcc70xx-freertos-debug/obj/queue.o
 .data          0x00000000000124c4        0x0 ./../../../build/tcc70xx/gcc/tcc70xx-freertos-debug/obj/event_groups.o
 .data          0x00000000000124c4        0x0 ./../../../build/tcc70xx/gcc/tcc70xx-freertos-debug/obj/timers.o
 .data          0x00000000000124c4        0x0 ./../../../build/tcc70xx/gcc/tcc70xx-freertos-debug/obj/stream_buffer.o
 .data          0x00000000000124c4        0x4 ./../../../build/tcc70xx/gcc/tcc70xx-freertos-debug/obj/port.o
                0x00000000000124c4                ulCriticalNesting
 .data          0x00000000000124c8        0x0 ./../../../build/tcc70xx/gcc/tcc70xx-freertos-debug/obj/heap_5.o
 .data          0x00000000000124c8        0x0 ./../../../build/tcc70xx/gcc/tcc70xx-freertos-debug/obj/FreeRTOS_ARP.o
 .data          0x00000000000124c8        0x0 ./../../../build/tcc70xx/gcc/tcc70xx-freertos-debug/obj/FreeRTOS_DHCP.o
 .data          0x00000000000124c8        0x0 ./../../../build/tcc70xx/gcc/tcc70xx-freertos-debug/obj/FreeRTOS_DNS.o
 .data          0x00000000000124c8        0x0 ./../../../build/tcc70xx/gcc/tcc70xx-freertos-debug/obj/FreeRTOS_IP.o
 .data          0x00000000000124c8        0x0 ./../../../build/tcc70xx/gcc/tcc70xx-freertos-debug/obj/FreeRTOS_Sockets.o
 .data          0x00000000000124c8        0x0 ./../../../build/tcc70xx/gcc/tcc70xx-freertos-debug/obj/FreeRTOS_Stream_Buffer.o
 .data          0x00000000000124c8        0x0 ./../../../build/tcc70xx/gcc/tcc70xx-freertos-debug/obj/FreeRTOS_TCP_IP.o
 .data          0x00000000000124c8        0x0 ./../../../build/tcc70xx/gcc/tcc70xx-freertos-debug/obj/FreeRTOS_TCP_WIN.o
 .data          0x00000000000124c8       0x18 ./../../../build/tcc70xx/gcc/tcc70xx-freertos-debug/obj/FreeRTOS_UDP_IP.o
                0x00000000000124c8                xDefaultPartUDPPacketHeader
 .data          0x00000000000124e0        0x0 ./../../../build/tcc70xx/gcc/tcc70xx-freertos-debug/obj/FreeRTOS_Port.o
 .data          0x00000000000124e0        0x0 ./../../../build/tcc70xx/gcc/tcc70xx-freertos-debug/obj/BufferAllocation_1.o
 .data          0x00000000000124e0        0x0 ./../../../build/tcc70xx/gcc/tcc70xx-freertos-debug/obj/NetworkInterface.o
 .data          0x00000000000124e0       0x28 ./../../../build/tcc70xx/gcc/tcc70xx-freertos-debug/obj/sal_api.o
                0x00000000000124e0                gSALCoreTable
                0x00000000000124e4                gSALOSRunTable
                0x00000000000124e8                gSALMemoryTable
                0x00000000000124ec                gSALFileTable
                0x00000000000124f0                gSALDataStructTable
                0x00000000000124f4                gSALSyncObjectTable
                0x00000000000124f8                gSALTaskTable
                0x00000000000124fc                gSALSocketTable
                0x0000000000012500                gSALTraceTable
                0x0000000000012504                gSALEtcTable
 .data          0x0000000000012508        0x0 ./../../../build/tcc70xx/gcc/tcc70xx-freertos-debug/obj/sal_freertos_impl.o
 .data          0x0000000000012508        0x0 ./../../../build/tcc70xx/gcc/tcc70xx-freertos-debug/obj/startup.o
 .data          0x0000000000012508        0x0 ./../../../build/tcc70xx/gcc/tcc70xx-freertos-debug/obj/vector.o
 .data          0x0000000000012508        0x0 ./../../../build/tcc70xx/gcc/tcc70xx-freertos-debug/obj/vfp_init.o
 .data          0x0000000000012508        0x0 ./../../../build/tcc70xx/gcc/tcc70xx-freertos-debug/obj/arm_a.o
 .data          0x0000000000012508        0x0 ./../../../build/tcc70xx/gcc/tcc70xx-freertos-debug/obj/portASM.o
 .data          0x0000000000012508        0x0 ./../../../build/tcc70xx/gcc/tcc70xx-freertos-debug/obj/freertos.o
 .data          0x0000000000012508        0x0 ./../../../build/tcc70xx/gcc/tcc70xx-freertos-debug/obj/sal.o
 .data          0x0000000000012508        0x0 /opt/gcc-linaro-7.2.1-2017.11-x86_64_arm-eabi/arm-eabi/libc/usr/lib/libc.a(lib_a-atoi.o)
 .data          0x0000000000012508        0x0 /opt/gcc-linaro-7.2.1-2017.11-x86_64_arm-eabi/arm-eabi/libc/usr/lib/libc.a(lib_a-memcmp.o)
 .data          0x0000000000012508        0x0 /opt/gcc-linaro-7.2.1-2017.11-x86_64_arm-eabi/arm-eabi/libc/usr/lib/libc.a(lib_a-memcpy-stub.o)
 .data          0x0000000000012508        0x0 /opt/gcc-linaro-7.2.1-2017.11-x86_64_arm-eabi/arm-eabi/libc/usr/lib/libc.a(lib_a-memmove.o)
 .data          0x0000000000012508        0x0 /opt/gcc-linaro-7.2.1-2017.11-x86_64_arm-eabi/arm-eabi/libc/usr/lib/libc.a(lib_a-memset.o)
 .data          0x0000000000012508        0x0 /opt/gcc-linaro-7.2.1-2017.11-x86_64_arm-eabi/arm-eabi/libc/usr/lib/libc.a(lib_a-snprintf.o)
 .data          0x0000000000012508        0x0 /opt/gcc-linaro-7.2.1-2017.11-x86_64_arm-eabi/arm-eabi/libc/usr/lib/libc.a(lib_a-sprintf.o)
 .data          0x0000000000012508        0x0 /opt/gcc-linaro-7.2.1-2017.11-x86_64_arm-eabi/arm-eabi/libc/usr/lib/libc.a(lib_a-sscanf.o)
 .data          0x0000000000012508        0x0 /opt/gcc-linaro-7.2.1-2017.11-x86_64_arm-eabi/arm-eabi/libc/usr/lib/libc.a(lib_a-stdio.o)
 .data          0x0000000000012508        0x0 /opt/gcc-linaro-7.2.1-2017.11-x86_64_arm-eabi/arm-eabi/libc/usr/lib/libc.a(lib_a-strcmp.o)
 .data          0x0000000000012508        0x0 /opt/gcc-linaro-7.2.1-2017.11-x86_64_arm-eabi/arm-eabi/libc/usr/lib/libc.a(lib_a-strcpy.o)
 .data          0x0000000000012508        0x0 /opt/gcc-linaro-7.2.1-2017.11-x86_64_arm-eabi/arm-eabi/libc/usr/lib/libc.a(lib_a-strlen-stub.o)
 .data          0x0000000000012508        0x0 /opt/gcc-linaro-7.2.1-2017.11-x86_64_arm-eabi/arm-eabi/libc/usr/lib/libc.a(lib_a-strncmp.o)
 .data          0x0000000000012508        0x0 /opt/gcc-linaro-7.2.1-2017.11-x86_64_arm-eabi/arm-eabi/libc/usr/lib/libc.a(lib_a-strncpy.o)
 .data          0x0000000000012508        0x0 /opt/gcc-linaro-7.2.1-2017.11-x86_64_arm-eabi/arm-eabi/libc/usr/lib/libc.a(lib_a-strnlen.o)
 .data          0x0000000000012508        0x0 /opt/gcc-linaro-7.2.1-2017.11-x86_64_arm-eabi/arm-eabi/libc/usr/lib/libc.a(lib_a-strtol.o)
 .data          0x0000000000012508        0x0 /opt/gcc-linaro-7.2.1-2017.11-x86_64_arm-eabi/arm-eabi/libc/usr/lib/libc.a(lib_a-strtoul.o)
 .data          0x0000000000012508        0x0 /opt/gcc-linaro-7.2.1-2017.11-x86_64_arm-eabi/arm-eabi/libc/usr/lib/libc.a(lib_a-svfprintf.o)
 .data          0x0000000000012508        0x0 /opt/gcc-linaro-7.2.1-2017.11-x86_64_arm-eabi/arm-eabi/libc/usr/lib/libc.a(lib_a-svfscanf.o)
 .data          0x0000000000012508        0x0 /opt/gcc-linaro-7.2.1-2017.11-x86_64_arm-eabi/arm-eabi/libc/usr/lib/libc.a(lib_a-wcrtomb.o)
 .data          0x0000000000012508        0x0 /opt/gcc-linaro-7.2.1-2017.11-x86_64_arm-eabi/arm-eabi/libc/usr/lib/libc.a(lib_a-wcsrtombs.o)
 .data          0x0000000000012508        0x0 /opt/gcc-linaro-7.2.1-2017.11-x86_64_arm-eabi/arm-eabi/libc/usr/lib/libc.a(lib_a-writer.o)
 .data          0x0000000000012508        0x0 /opt/gcc-linaro-7.2.1-2017.11-x86_64_arm-eabi/arm-eabi/libc/usr/lib/libc.a(lib_a-closer.o)
 .data          0x0000000000012508        0x0 /opt/gcc-linaro-7.2.1-2017.11-x86_64_arm-eabi/arm-eabi/libc/usr/lib/libc.a(lib_a-dtoa.o)
 .data          0x0000000000012508        0x0 /opt/gcc-linaro-7.2.1-2017.11-x86_64_arm-eabi/arm-eabi/libc/usr/lib/libc.a(lib_a-freer.o)
 .data          0x0000000000012508      0x430 /opt/gcc-linaro-7.2.1-2017.11-x86_64_arm-eabi/arm-eabi/libc/usr/lib/libc.a(lib_a-impure.o)
                0x0000000000012508                _impure_ptr
 .data          0x0000000000012938        0x0 /opt/gcc-linaro-7.2.1-2017.11-x86_64_arm-eabi/arm-eabi/libc/usr/lib/libc.a(lib_a-iswspace.o)
 .data          0x0000000000012938        0x0 /opt/gcc-linaro-7.2.1-2017.11-x86_64_arm-eabi/arm-eabi/libc/usr/lib/libc.a(lib_a-jp2uc.o)
 .data          0x0000000000012938      0x18c /opt/gcc-linaro-7.2.1-2017.11-x86_64_arm-eabi/arm-eabi/libc/usr/lib/libc.a(lib_a-locale.o)
                0x0000000000012938                __global_locale
                0x0000000000012aa4                __default_locale
 .data          0x0000000000012ac4        0x0 /opt/gcc-linaro-7.2.1-2017.11-x86_64_arm-eabi/arm-eabi/libc/usr/lib/libc.a(lib_a-localeconv.o)
 .data          0x0000000000012ac4        0x0 /opt/gcc-linaro-7.2.1-2017.11-x86_64_arm-eabi/arm-eabi/libc/usr/lib/libc.a(lib_a-lseekr.o)
 .data          0x0000000000012ac4      0x410 /opt/gcc-linaro-7.2.1-2017.11-x86_64_arm-eabi/arm-eabi/libc/usr/lib/libc.a(lib_a-mallocr.o)
                0x0000000000012ac4                __malloc_av_
                0x0000000000012ecc                __malloc_sbrk_base
                0x0000000000012ed0                __malloc_trim_threshold
 .data          0x0000000000012ed4        0x0 /opt/gcc-linaro-7.2.1-2017.11-x86_64_arm-eabi/arm-eabi/libc/usr/lib/libc.a(lib_a-mbrtowc.o)
 .data          0x0000000000012ed4        0x0 /opt/gcc-linaro-7.2.1-2017.11-x86_64_arm-eabi/arm-eabi/libc/usr/lib/libc.a(lib_a-mbtowc_r.o)
 .data          0x0000000000012ed4        0x0 /opt/gcc-linaro-7.2.1-2017.11-x86_64_arm-eabi/arm-eabi/libc/usr/lib/libc.a(lib_a-memchr-stub.o)
 .data          0x0000000000012ed4        0x0 /opt/gcc-linaro-7.2.1-2017.11-x86_64_arm-eabi/arm-eabi/libc/usr/lib/libc.a(lib_a-mlock.o)
 .data          0x0000000000012ed4        0x0 /opt/gcc-linaro-7.2.1-2017.11-x86_64_arm-eabi/arm-eabi/libc/usr/lib/libc.a(lib_a-mprec.o)
 .data          0x0000000000012ed4        0x0 /opt/gcc-linaro-7.2.1-2017.11-x86_64_arm-eabi/arm-eabi/libc/usr/lib/libc.a(lib_a-readr.o)
 .data          0x0000000000012ed4        0x0 /opt/gcc-linaro-7.2.1-2017.11-x86_64_arm-eabi/arm-eabi/libc/usr/lib/libc.a(lib_a-reent.o)
 .data          0x0000000000012ed4        0x0 /opt/gcc-linaro-7.2.1-2017.11-x86_64_arm-eabi/arm-eabi/libc/usr/lib/libc.a(lib_a-s_frexp.o)
 .data          0x0000000000012ed4        0x0 /opt/gcc-linaro-7.2.1-2017.11-x86_64_arm-eabi/arm-eabi/libc/usr/lib/libc.a(lib_a-sbrkr.o)
 .data          0x0000000000012ed4        0x0 /opt/gcc-linaro-7.2.1-2017.11-x86_64_arm-eabi/arm-eabi/libc/usr/lib/libc.a(lib_a-sccl.o)
 .data          0x0000000000012ed4        0x0 /opt/gcc-linaro-7.2.1-2017.11-x86_64_arm-eabi/arm-eabi/libc/usr/lib/libc.a(lib_a-sf_nan.o)
 .data          0x0000000000012ed4        0x0 /opt/gcc-linaro-7.2.1-2017.11-x86_64_arm-eabi/arm-eabi/libc/usr/lib/libc.a(lib_a-stpncpy.o)
 .data          0x0000000000012ed4        0x0 /opt/gcc-linaro-7.2.1-2017.11-x86_64_arm-eabi/arm-eabi/libc/usr/lib/libc.a(lib_a-strcasecmp.o)
 .data          0x0000000000012ed4        0x0 /opt/gcc-linaro-7.2.1-2017.11-x86_64_arm-eabi/arm-eabi/libc/usr/lib/libc.a(lib_a-strcat.o)
 .data          0x0000000000012ed4        0x0 /opt/gcc-linaro-7.2.1-2017.11-x86_64_arm-eabi/arm-eabi/libc/usr/lib/libc.a(lib_a-strchr.o)
 .data          0x0000000000012ed4        0x0 /opt/gcc-linaro-7.2.1-2017.11-x86_64_arm-eabi/arm-eabi/libc/usr/lib/libc.a(lib_a-strlcpy.o)
 .data          0x0000000000012ed4        0x0 /opt/gcc-linaro-7.2.1-2017.11-x86_64_arm-eabi/arm-eabi/libc/usr/lib/libc.a(lib_a-strncasecmp.o)
 .data          0x0000000000012ed4        0x0 /opt/gcc-linaro-7.2.1-2017.11-x86_64_arm-eabi/arm-eabi/libc/usr/lib/libc.a(lib_a-strtod.o)
 .data          0x0000000000012ed4        0x0 /opt/gcc-linaro-7.2.1-2017.11-x86_64_arm-eabi/arm-eabi/libc/usr/lib/libc.a(lib_a-strtoll.o)
 .data          0x0000000000012ed4        0x0 /opt/gcc-linaro-7.2.1-2017.11-x86_64_arm-eabi/arm-eabi/libc/usr/lib/libc.a(lib_a-strtoull.o)
 .data          0x0000000000012ed4        0x0 /opt/gcc-linaro-7.2.1-2017.11-x86_64_arm-eabi/arm-eabi/libc/usr/lib/libc.a(lib_a-svfiprintf.o)
 .data          0x0000000000012ed4        0x0 /opt/gcc-linaro-7.2.1-2017.11-x86_64_arm-eabi/arm-eabi/libc/usr/lib/libc.a(lib_a-svfiscanf.o)
 .data          0x0000000000012ed4        0x0 /opt/gcc-linaro-7.2.1-2017.11-x86_64_arm-eabi/arm-eabi/libc/usr/lib/libc.a(lib_a-syscalls.o)
 .data          0x0000000000012ed4        0x0 /opt/gcc-linaro-7.2.1-2017.11-x86_64_arm-eabi/arm-eabi/libc/usr/lib/libc.a(lib_a-ungetc.o)
 .data          0x0000000000012ed4        0x0 /opt/gcc-linaro-7.2.1-2017.11-x86_64_arm-eabi/arm-eabi/libc/usr/lib/libc.a(lib_a-wcsnrtombs.o)
 .data          0x0000000000012ed4        0x0 /opt/gcc-linaro-7.2.1-2017.11-x86_64_arm-eabi/arm-eabi/libc/usr/lib/libc.a(lib_a-wctomb_r.o)
 .data          0x0000000000012ed4        0x0 /opt/gcc-linaro-7.2.1-2017.11-x86_64_arm-eabi/arm-eabi/libc/usr/lib/libc.a(lib_a-callocr.o)
 .data          0x0000000000012ed4        0x0 /opt/gcc-linaro-7.2.1-2017.11-x86_64_arm-eabi/arm-eabi/libc/usr/lib/libc.a(lib_a-ctype_.o)
 .data          0x0000000000012ed4        0x0 /opt/gcc-linaro-7.2.1-2017.11-x86_64_arm-eabi/arm-eabi/libc/usr/lib/libc.a(lib_a-errno.o)
 .data          0x0000000000012ed4        0x0 /opt/gcc-linaro-7.2.1-2017.11-x86_64_arm-eabi/arm-eabi/libc/usr/lib/libc.a(lib_a-fflush.o)
 .data          0x0000000000012ed4        0x0 /opt/gcc-linaro-7.2.1-2017.11-x86_64_arm-eabi/arm-eabi/libc/usr/lib/libc.a(lib_a-findfp.o)
 .data          0x0000000000012ed4        0x0 /opt/gcc-linaro-7.2.1-2017.11-x86_64_arm-eabi/arm-eabi/libc/usr/lib/libc.a(lib_a-fwalk.o)
 .data          0x0000000000012ed4        0x0 /opt/gcc-linaro-7.2.1-2017.11-x86_64_arm-eabi/arm-eabi/libc/usr/lib/libc.a(lib_a-gdtoa-gethex.o)
 .data          0x0000000000012ed4        0x0 /opt/gcc-linaro-7.2.1-2017.11-x86_64_arm-eabi/arm-eabi/libc/usr/lib/libc.a(lib_a-gdtoa-hexnan.o)
 .data          0x0000000000012ed4        0x0 /opt/gcc-linaro-7.2.1-2017.11-x86_64_arm-eabi/arm-eabi/libc/usr/lib/libc.a(lib_a-getenv_r.o)
 .data          0x0000000000012ed4        0x0 /opt/gcc-linaro-7.2.1-2017.11-x86_64_arm-eabi/arm-eabi/libc/usr/lib/libc.a(lib_a-reallocr.o)
 .data          0x0000000000012ed4        0x4 /opt/gcc-linaro-7.2.1-2017.11-x86_64_arm-eabi/arm-eabi/libc/usr/lib/libc.a(lib_a-environ.o)
                0x0000000000012ed4                environ
 .data          0x0000000000012ed8        0x0 /opt/gcc-linaro-7.2.1-2017.11-x86_64_arm-eabi/arm-eabi/libc/usr/lib/libc.a(lib_a-envlock.o)
 .data          0x0000000000012ed8        0x0 /opt/gcc-linaro-7.2.1-2017.11-x86_64_arm-eabi/arm-eabi/libc/usr/lib/libc.a(lib_a-fclose.o)
 .data          0x0000000000012ed8        0x0 /opt/gcc-linaro-7.2.1-2017.11-x86_64_arm-eabi/arm-eabi/libc/usr/lib/libm.a(lib_a-sf_fabs.o)
 .data          0x0000000000012ed8        0x0 /opt/gcc-linaro-7.2.1-2017.11-x86_64_arm-eabi/arm-eabi/libc/usr/lib/libgcc.a(_udivsi3.o)
 .data          0x0000000000012ed8        0x0 /opt/gcc-linaro-7.2.1-2017.11-x86_64_arm-eabi/arm-eabi/libc/usr/lib/libgcc.a(_dvmd_tls.o)
 .data          0x0000000000012ed8        0x0 /opt/gcc-linaro-7.2.1-2017.11-x86_64_arm-eabi/arm-eabi/libc/usr/lib/libgcc.a(_arm_addsubdf3.o)
 .data          0x0000000000012ed8        0x0 /opt/gcc-linaro-7.2.1-2017.11-x86_64_arm-eabi/arm-eabi/libc/usr/lib/libgcc.a(_arm_muldivdf3.o)
 .data          0x0000000000012ed8        0x0 /opt/gcc-linaro-7.2.1-2017.11-x86_64_arm-eabi/arm-eabi/libc/usr/lib/libgcc.a(_arm_cmpdf2.o)
 .data          0x0000000000012ed8        0x0 /opt/gcc-linaro-7.2.1-2017.11-x86_64_arm-eabi/arm-eabi/libc/usr/lib/libgcc.a(_arm_unorddf2.o)
 .data          0x0000000000012ed8        0x0 /opt/gcc-linaro-7.2.1-2017.11-x86_64_arm-eabi/arm-eabi/libc/usr/lib/libgcc.a(_arm_fixdfsi.o)
 .data          0x0000000000012ed8        0x0 /opt/gcc-linaro-7.2.1-2017.11-x86_64_arm-eabi/arm-eabi/libc/usr/lib/libgcc.a(_arm_fixunsdfsi.o)
 .data          0x0000000000012ed8        0x0 /opt/gcc-linaro-7.2.1-2017.11-x86_64_arm-eabi/arm-eabi/libc/usr/lib/libgcc.a(_arm_truncdfsf2.o)
 .data          0x0000000000012ed8        0x0 /opt/gcc-linaro-7.2.1-2017.11-x86_64_arm-eabi/arm-eabi/libc/usr/lib/libgcc.a(_arm_cmpsf2.o)
 .data          0x0000000000012ed8        0x0 /opt/gcc-linaro-7.2.1-2017.11-x86_64_arm-eabi/arm-eabi/libc/usr/lib/libgcc.a(_arm_unordsf2.o)
 .data          0x0000000000012ed8        0x0 /opt/gcc-linaro-7.2.1-2017.11-x86_64_arm-eabi/arm-eabi/libc/usr/lib/libgcc.a(_aeabi_uldivmod.o)
 .data          0x0000000000012ed8        0x0 /opt/gcc-linaro-7.2.1-2017.11-x86_64_arm-eabi/arm-eabi/libc/usr/lib/libgcc.a(_udivmoddi4.o)
 .data          0x0000000000012ed8        0x0 /opt/gcc-linaro-7.2.1-2017.11-x86_64_arm-eabi/arm-eabi/libc/usr/lib/libgcc.a(_clzdi2.o)
 .data          0x0000000000012ed8        0x0 /opt/gcc-linaro-7.2.1-2017.11-x86_64_arm-eabi/arm-eabi/libc/usr/lib/libgcc.a(_clzsi2.o)
 *(.data.*)
                0x0000000000012ee0                . = ALIGN (0x20)
 *fill*         0x0000000000012ed8        0x8 
                0x0000000000012ee0                __DATA_END__ = .

.bss            0x0000000000012ee0    0x5db24 load address 0x0000000001126500
                0x0000000000012ee0                . = ALIGN (0x20)
                0x0000000000012ee0                __BSS_START__ = .
 *(.bss)
 .bss           0x0000000000012ee0      0x40c ./../../../build/tcc70xx/gcc/tcc70xx-freertos-debug/obj/main.o
                0x0000000000012ee0                gALiveMsgOnOff
 .bss           0x00000000000132ec     0x2018 ./../../../build/tcc70xx/gcc/tcc70xx-freertos-debug/obj/can_demo.o
 .bss           0x0000000000015304       0xa0 ./../../../build/tcc70xx/gcc/tcc70xx-freertos-debug/obj/can_vcp_ctrl.o
 .bss           0x00000000000153a4      0xd5c ./../../../build/tcc70xx/gcc/tcc70xx-freertos-debug/obj/console.o
                0x00000000000153a4                siADCModule
 .bss           0x0000000000016100     0x2028 ./../../../build/tcc70xx/gcc/tcc70xx-freertos-debug/obj/fwupdate.o
                0x0000000000016100                FWUpdateInfo
                0x000000000001611c                gDataBuffer
 .bss           0x0000000000018128       0x84 ./../../../build/tcc70xx/gcc/tcc70xx-freertos-debug/obj/idle.o
 .bss           0x00000000000181ac       0x88 ./../../../build/tcc70xx/gcc/tcc70xx-freertos-debug/obj/iperf_task_v3_0d.o
                0x00000000000181ac                pxRawBuffer
                0x00000000000181b4                pcExpectedClient
                0x0000000000018204                pxControlClient
                0x0000000000018208                pxDataClient
 .bss           0x0000000000018234      0x208 ./../../../build/tcc70xx/gcc/tcc70xx-freertos-debug/obj/spi_led.o
 .bss           0x000000000001843c      0x459 ./../../../build/tcc70xx/gcc/tcc70xx-freertos-debug/obj/audio_test.o
                0x000000000001843c                gReplay
 *fill*         0x0000000000018895        0x3 
 .bss           0x0000000000018898       0x48 ./../../../build/tcc70xx/gcc/tcc70xx-freertos-debug/obj/audio_chip_veri.o
 .bss           0x00000000000188e0        0x0 ./../../../build/tcc70xx/gcc/tcc70xx-freertos-debug/obj/wm8904.o
 .bss           0x00000000000188e0        0x0 ./../../../build/tcc70xx/gcc/tcc70xx-freertos-debug/obj/cpu_test.o
 .bss           0x00000000000188e0        0xc ./../../../build/tcc70xx/gcc/tcc70xx-freertos-debug/obj/dse_test.o
 .bss           0x00000000000188ec      0x808 ./../../../build/tcc70xx/gcc/tcc70xx-freertos-debug/obj/eflash_test.o
 .bss           0x00000000000190f4        0x8 ./../../../build/tcc70xx/gcc/tcc70xx-freertos-debug/obj/fmu_test.o
 .bss           0x00000000000190fc       0x1c ./../../../build/tcc70xx/gcc/tcc70xx-freertos-debug/obj/gdma_test.o
 .bss           0x0000000000019118        0x0 ./../../../build/tcc70xx/gcc/tcc70xx-freertos-debug/obj/gdma_ip_test.o
 .bss           0x0000000000019118        0x8 ./../../../build/tcc70xx/gcc/tcc70xx-freertos-debug/obj/gic_test.o
 .bss           0x0000000000019120        0x8 ./../../../build/tcc70xx/gcc/tcc70xx-freertos-debug/obj/gpio_test.o
 .bss           0x0000000000019128      0x8dc ./../../../build/tcc70xx/gcc/tcc70xx-freertos-debug/obj/gpsb_test.o
                0x0000000000019180                slave_rx_data
 .bss           0x0000000000019a04     0x8000 ./../../../build/tcc70xx/gcc/tcc70xx-freertos-debug/obj/hsm_test.o
                0x0000000000019a04                benchmarkBuf
 .bss           0x0000000000021a04        0x4 ./../../../build/tcc70xx/gcc/tcc70xx-freertos-debug/obj/i2c_test.o
 .bss           0x0000000000021a08        0x0 ./../../../build/tcc70xx/gcc/tcc70xx-freertos-debug/obj/ictc_test.o
 .bss           0x0000000000021a08      0x21c ./../../../build/tcc70xx/gcc/tcc70xx-freertos-debug/obj/lin_test.o
                0x0000000000021a08                LIN_TEST_STATUS
 .bss           0x0000000000021c24        0x0 ./../../../build/tcc70xx/gcc/tcc70xx-freertos-debug/obj/pdm_test.o
 .bss           0x0000000000021c24       0x3c ./../../../build/tcc70xx/gcc/tcc70xx-freertos-debug/obj/pmu_test.o
 .bss           0x0000000000021c60        0x8 ./../../../build/tcc70xx/gcc/tcc70xx-freertos-debug/obj/rtc_test.o
 .bss           0x0000000000021c68        0x0 ./../../../build/tcc70xx/gcc/tcc70xx-freertos-debug/obj/sfmc_test.o
 .bss           0x0000000000021c68      0x200 ./../../../build/tcc70xx/gcc/tcc70xx-freertos-debug/obj/echo_test.o
 .bss           0x0000000000021e68       0x40 ./../../../build/tcc70xx/gcc/tcc70xx-freertos-debug/obj/timer_test.o
 .bss           0x0000000000021ea8       0x58 ./../../../build/tcc70xx/gcc/tcc70xx-freertos-debug/obj/uart_test.o
 .bss           0x0000000000021f00        0x8 ./../../../build/tcc70xx/gcc/tcc70xx-freertos-debug/obj/wdt_test.o
 .bss           0x0000000000021f08        0x0 ./../../../build/tcc70xx/gcc/tcc70xx-freertos-debug/obj/writelock_test.o
 .bss           0x0000000000021f08        0x0 ./../../../build/tcc70xx/gcc/tcc70xx-freertos-debug/obj/eth_test.o
 .bss           0x0000000000021f08        0x4 ./../../../build/tcc70xx/gcc/tcc70xx-freertos-debug/obj/spu_test.o
 .bss           0x0000000000021f0c        0x3 ./../../../build/tcc70xx/gcc/tcc70xx-freertos-debug/obj/power_app.o
                0x0000000000021f0c                gPOWERAPPMps
 *fill*         0x0000000000021f0f        0x1 
 .bss           0x0000000000021f10     0x4140 ./../../../build/tcc70xx/gcc/tcc70xx-freertos-debug/obj/power_com.o
 .bss           0x0000000000026050     0x8cf0 ./../../../build/tcc70xx/gcc/tcc70xx-freertos-debug/obj/spi_eccp.o
 .bss           0x000000000002ed40        0x1 ./../../../build/tcc70xx/gcc/tcc70xx-freertos-debug/obj/hsm_manager.o
                0x000000000002ed40                hsm_dev
 *fill*         0x000000000002ed41        0x3 
 .bss           0x000000000002ed44        0x6 ./../../../build/tcc70xx/gcc/tcc70xx-freertos-debug/obj/lin.o
                0x000000000002ed44                gpLinResFunc
 .bss           0x000000000002ed4a        0x0 ./../../../build/tcc70xx/gcc/tcc70xx-freertos-debug/obj/swl.o
 *fill*         0x000000000002ed4a        0x2 
 .bss           0x000000000002ed4c       0x38 ./../../../build/tcc70xx/gcc/tcc70xx-freertos-debug/obj/adc.o
 .bss           0x000000000002ed84        0x0 ./../../../build/tcc70xx/gcc/tcc70xx-freertos-debug/obj/can.o
 .bss           0x000000000002ed84      0x100 ./../../../build/tcc70xx/gcc/tcc70xx-freertos-debug/obj/can_drv.o
                0x000000000002ed84                CANDriverInfo
 .bss           0x000000000002ee84     0x3f30 ./../../../build/tcc70xx/gcc/tcc70xx-freertos-debug/obj/can_msg.o
 .bss           0x0000000000032db4        0xc ./../../../build/tcc70xx/gcc/tcc70xx-freertos-debug/obj/can_par.o
                0x0000000000032db4                CANCallbackFunctions
 .bss           0x0000000000032dc0        0x0 ./../../../build/tcc70xx/gcc/tcc70xx-freertos-debug/obj/can_porting.o
 .bss           0x0000000000032dc0       0x1c ./../../../build/tcc70xx/gcc/tcc70xx-freertos-debug/obj/clock_dev.o
 .bss           0x0000000000032ddc        0x0 ./../../../build/tcc70xx/gcc/tcc70xx-freertos-debug/obj/debug.o
 .bss           0x0000000000032ddc        0x0 ./../../../build/tcc70xx/gcc/tcc70xx-freertos-debug/obj/bsp.o
 .bss           0x0000000000032ddc        0x8 ./../../../build/tcc70xx/gcc/tcc70xx-freertos-debug/obj/dse.o
                0x0000000000032ddc                gWait_irq
 .bss           0x0000000000032de4        0x4 ./../../../build/tcc70xx/gcc/tcc70xx-freertos-debug/obj/eflash.o
 .bss           0x0000000000032de8     0x2154 ./../../../build/tcc70xx/gcc/tcc70xx-freertos-debug/obj/eth.o
                0x0000000000032de8                h_mac
                0x0000000000032e98                RxDesc
                0x0000000000032ea4                rdes_base
                0x0000000000032ea8                tdes_base
                0x0000000000032eac                overflow_err
                0x0000000000032eb0                overflow_cnt
                0x0000000000032eb4                backup_rxbuf_addr
                0x0000000000032f34                initialized
                0x0000000000032f35                setup_flag
 .bss           0x0000000000034f3c        0x4 ./../../../build/tcc70xx/gcc/tcc70xx-freertos-debug/obj/eth_mii.o
                0x0000000000034f3c                pmac
 .bss           0x0000000000034f40      0x300 ./../../../build/tcc70xx/gcc/tcc70xx-freertos-debug/obj/fmu.o
 .bss           0x0000000000035240        0x0 ./../../../build/tcc70xx/gcc/tcc70xx-freertos-debug/obj/gdma.o
 .bss           0x0000000000035240      0x738 ./../../../build/tcc70xx/gcc/tcc70xx-freertos-debug/obj/gic.o
 .bss           0x0000000000035978        0xc ./../../../build/tcc70xx/gcc/tcc70xx-freertos-debug/obj/gpio.o
                0x0000000000035978                mfio_ch_cfg_flag
 .bss           0x0000000000035984       0x40 ./../../../build/tcc70xx/gcc/tcc70xx-freertos-debug/obj/gpsb.o
 .bss           0x00000000000359c4        0x0 ./../../../build/tcc70xx/gcc/tcc70xx-freertos-debug/obj/gpsb_reg.o
 .bss           0x00000000000359c4        0x1 ./../../../build/tcc70xx/gcc/tcc70xx-freertos-debug/obj/i2c.o
 .bss           0x00000000000359c5        0x0 ./../../../build/tcc70xx/gcc/tcc70xx-freertos-debug/obj/i2c_reg.o
 .bss           0x00000000000359c5        0x0 ./../../../build/tcc70xx/gcc/tcc70xx-freertos-debug/obj/i2s.o
 *fill*         0x00000000000359c5        0x3 
 .bss           0x00000000000359c8      0x350 ./../../../build/tcc70xx/gcc/tcc70xx-freertos-debug/obj/ictc.o
 .bss           0x0000000000035d18        0x0 ./../../../build/tcc70xx/gcc/tcc70xx-freertos-debug/obj/mbox.o
 .bss           0x0000000000035d18        0x1 ./../../../build/tcc70xx/gcc/tcc70xx-freertos-debug/obj/midf.o
 .bss           0x0000000000035d19        0x0 ./../../../build/tcc70xx/gcc/tcc70xx-freertos-debug/obj/mpu.o
 .bss           0x0000000000035d19        0x0 ./../../../build/tcc70xx/gcc/tcc70xx-freertos-debug/obj/preload.o
 *fill*         0x0000000000035d19        0x3 
 .bss           0x0000000000035d1c      0x4b0 ./../../../build/tcc70xx/gcc/tcc70xx-freertos-debug/obj/pdm.o
 .bss           0x00000000000361cc     0x2189 ./../../../build/tcc70xx/gcc/tcc70xx-freertos-debug/obj/pmio_dev.o
                0x00000000000361d4                gtPMIONoti
 *fill*         0x0000000000038355        0x3 
 .bss           0x0000000000038358       0x1c ./../../../build/tcc70xx/gcc/tcc70xx-freertos-debug/obj/pmio_dev_extn_pw_ctl.o
 .bss           0x0000000000038374        0x1 ./../../../build/tcc70xx/gcc/tcc70xx-freertos-debug/obj/pmu.o
 *fill*         0x0000000000038375        0x3 
 .bss           0x0000000000038378        0xc ./../../../build/tcc70xx/gcc/tcc70xx-freertos-debug/obj/rtc_dev.o
                0x0000000000038378                gfHandler
 .bss           0x0000000000038384     0x2240 ./../../../build/tcc70xx/gcc/tcc70xx-freertos-debug/obj/snor_mio.o
 .bss           0x000000000003a5c4        0x4 ./../../../build/tcc70xx/gcc/tcc70xx-freertos-debug/obj/spu.o
 .bss           0x000000000003a5c8        0x8 ./../../../build/tcc70xx/gcc/tcc70xx-freertos-debug/obj/ssm.o
 .bss           0x000000000003a5d0       0x7c ./../../../build/tcc70xx/gcc/tcc70xx-freertos-debug/obj/timer.o
 .bss           0x000000000003a64c      0xf38 ./../../../build/tcc70xx/gcc/tcc70xx-freertos-debug/obj/uart.o
 .bss           0x000000000003b584        0x1 ./../../../build/tcc70xx/gcc/tcc70xx-freertos-debug/obj/wdt.o
 .bss           0x000000000003b585        0x1 ./../../../build/tcc70xx/gcc/tcc70xx-freertos-debug/obj/wdt_pmu.o
 *fill*         0x000000000003b586        0x2 
 .bss           0x000000000003b588      0x1e0 ./../../../build/tcc70xx/gcc/tcc70xx-freertos-debug/obj/tasks.o
                0x000000000003b588                pxCurrentTCB
 .bss           0x000000000003b768        0x0 ./../../../build/tcc70xx/gcc/tcc70xx-freertos-debug/obj/list.o
 .bss           0x000000000003b768       0x40 ./../../../build/tcc70xx/gcc/tcc70xx-freertos-debug/obj/queue.o
                0x000000000003b768                xQueueRegistry
 .bss           0x000000000003b7a8        0x0 ./../../../build/tcc70xx/gcc/tcc70xx-freertos-debug/obj/event_groups.o
 .bss           0x000000000003b7a8       0xd8 ./../../../build/tcc70xx/gcc/tcc70xx-freertos-debug/obj/timers.o
 .bss           0x000000000003b880        0x0 ./../../../build/tcc70xx/gcc/tcc70xx-freertos-debug/obj/stream_buffer.o
 .bss           0x000000000003b880    0x19c8c ./../../../build/tcc70xx/gcc/tcc70xx-freertos-debug/obj/port.o
                0x000000000003b880                ulPortTaskHasFPUContext
                0x000000000003b884                ulPortYieldRequired
                0x000000000003b888                ulPortInterruptNesting
                0x000000000003b88c                ucHeap
 .bss           0x000000000005550c       0x20 ./../../../build/tcc70xx/gcc/tcc70xx-freertos-debug/obj/heap_5.o
 .bss           0x000000000005552c       0x4c ./../../../build/tcc70xx/gcc/tcc70xx-freertos-debug/obj/FreeRTOS_ARP.o
 .bss           0x0000000000055578        0x0 ./../../../build/tcc70xx/gcc/tcc70xx-freertos-debug/obj/FreeRTOS_DHCP.o
 .bss           0x0000000000055578       0x74 ./../../../build/tcc70xx/gcc/tcc70xx-freertos-debug/obj/FreeRTOS_DNS.o
 .bss           0x00000000000555ec       0x6c ./../../../build/tcc70xx/gcc/tcc70xx-freertos-debug/obj/FreeRTOS_IP.o
                0x00000000000555ec                xNetworkEventQueue
                0x00000000000555f0                usPacketIdentifier
                0x00000000000555f4                xNetworkAddressing
                0x0000000000055608                xDefaultAddressing
 .bss           0x0000000000055658       0x2c ./../../../build/tcc70xx/gcc/tcc70xx-freertos-debug/obj/FreeRTOS_Sockets.o
                0x0000000000055658                xBoundUDPSocketsList
                0x000000000005566c                xBoundTCPSocketsList
 .bss           0x0000000000055684        0x0 ./../../../build/tcc70xx/gcc/tcc70xx-freertos-debug/obj/FreeRTOS_Stream_Buffer.o
 .bss           0x0000000000055684        0x0 ./../../../build/tcc70xx/gcc/tcc70xx-freertos-debug/obj/FreeRTOS_TCP_IP.o
 .bss           0x0000000000055684       0x1c ./../../../build/tcc70xx/gcc/tcc70xx-freertos-debug/obj/FreeRTOS_TCP_WIN.o
                0x000000000005569c                xTCPWindowLoggingLevel
 .bss           0x00000000000556a0        0x0 ./../../../build/tcc70xx/gcc/tcc70xx-freertos-debug/obj/FreeRTOS_UDP_IP.o
 .bss           0x00000000000556a0        0x4 ./../../../build/tcc70xx/gcc/tcc70xx-freertos-debug/obj/FreeRTOS_Port.o
 .bss           0x00000000000556a4      0x91c ./../../../build/tcc70xx/gcc/tcc70xx-freertos-debug/obj/BufferAllocation_1.o
 .bss           0x0000000000055fc0    0x18004 ./../../../build/tcc70xx/gcc/tcc70xx-freertos-debug/obj/NetworkInterface.o
                0x000000000006dfc0                xTask
 .bss           0x000000000006dfc4      0x11c ./../../../build/tcc70xx/gcc/tcc70xx-freertos-debug/obj/sal_api.o
 .bss           0x000000000006e0e0     0x255c ./../../../build/tcc70xx/gcc/tcc70xx-freertos-debug/obj/sal_freertos_impl.o
 .bss           0x000000000007063c       0x20 ./../../../build/tcc70xx/gcc/tcc70xx-freertos-debug/obj/startup.o
 .bss           0x000000000007065c        0x0 ./../../../build/tcc70xx/gcc/tcc70xx-freertos-debug/obj/vector.o
 .bss           0x000000000007065c        0x0 ./../../../build/tcc70xx/gcc/tcc70xx-freertos-debug/obj/vfp_init.o
 .bss           0x000000000007065c        0x0 ./../../../build/tcc70xx/gcc/tcc70xx-freertos-debug/obj/arm_a.o
 .bss           0x000000000007065c        0x0 ./../../../build/tcc70xx/gcc/tcc70xx-freertos-debug/obj/portASM.o
 .bss           0x000000000007065c        0x0 ./../../../build/tcc70xx/gcc/tcc70xx-freertos-debug/obj/freertos.o
 .bss           0x000000000007065c        0x0 ./../../../build/tcc70xx/gcc/tcc70xx-freertos-debug/obj/sal.o
 .bss           0x000000000007065c        0x0 /opt/gcc-linaro-7.2.1-2017.11-x86_64_arm-eabi/arm-eabi/libc/usr/lib/libc.a(lib_a-atoi.o)
 .bss           0x000000000007065c        0x0 /opt/gcc-linaro-7.2.1-2017.11-x86_64_arm-eabi/arm-eabi/libc/usr/lib/libc.a(lib_a-memcmp.o)
 .bss           0x000000000007065c        0x0 /opt/gcc-linaro-7.2.1-2017.11-x86_64_arm-eabi/arm-eabi/libc/usr/lib/libc.a(lib_a-memcpy-stub.o)
 .bss           0x000000000007065c        0x0 /opt/gcc-linaro-7.2.1-2017.11-x86_64_arm-eabi/arm-eabi/libc/usr/lib/libc.a(lib_a-memmove.o)
 .bss           0x000000000007065c        0x0 /opt/gcc-linaro-7.2.1-2017.11-x86_64_arm-eabi/arm-eabi/libc/usr/lib/libc.a(lib_a-memset.o)
 .bss           0x000000000007065c        0x0 /opt/gcc-linaro-7.2.1-2017.11-x86_64_arm-eabi/arm-eabi/libc/usr/lib/libc.a(lib_a-snprintf.o)
 .bss           0x000000000007065c        0x0 /opt/gcc-linaro-7.2.1-2017.11-x86_64_arm-eabi/arm-eabi/libc/usr/lib/libc.a(lib_a-sprintf.o)
 .bss           0x000000000007065c        0x0 /opt/gcc-linaro-7.2.1-2017.11-x86_64_arm-eabi/arm-eabi/libc/usr/lib/libc.a(lib_a-sscanf.o)
 .bss           0x000000000007065c        0x0 /opt/gcc-linaro-7.2.1-2017.11-x86_64_arm-eabi/arm-eabi/libc/usr/lib/libc.a(lib_a-stdio.o)
 .bss           0x000000000007065c        0x0 /opt/gcc-linaro-7.2.1-2017.11-x86_64_arm-eabi/arm-eabi/libc/usr/lib/libc.a(lib_a-strcmp.o)
 .bss           0x000000000007065c        0x0 /opt/gcc-linaro-7.2.1-2017.11-x86_64_arm-eabi/arm-eabi/libc/usr/lib/libc.a(lib_a-strcpy.o)
 .bss           0x000000000007065c        0x0 /opt/gcc-linaro-7.2.1-2017.11-x86_64_arm-eabi/arm-eabi/libc/usr/lib/libc.a(lib_a-strlen-stub.o)
 .bss           0x000000000007065c        0x0 /opt/gcc-linaro-7.2.1-2017.11-x86_64_arm-eabi/arm-eabi/libc/usr/lib/libc.a(lib_a-strncmp.o)
 .bss           0x000000000007065c        0x0 /opt/gcc-linaro-7.2.1-2017.11-x86_64_arm-eabi/arm-eabi/libc/usr/lib/libc.a(lib_a-strncpy.o)
 .bss           0x000000000007065c        0x0 /opt/gcc-linaro-7.2.1-2017.11-x86_64_arm-eabi/arm-eabi/libc/usr/lib/libc.a(lib_a-strnlen.o)
 .bss           0x000000000007065c        0x0 /opt/gcc-linaro-7.2.1-2017.11-x86_64_arm-eabi/arm-eabi/libc/usr/lib/libc.a(lib_a-strtol.o)
 .bss           0x000000000007065c        0x0 /opt/gcc-linaro-7.2.1-2017.11-x86_64_arm-eabi/arm-eabi/libc/usr/lib/libc.a(lib_a-strtoul.o)
 .bss           0x000000000007065c        0x0 /opt/gcc-linaro-7.2.1-2017.11-x86_64_arm-eabi/arm-eabi/libc/usr/lib/libc.a(lib_a-svfprintf.o)
 .bss           0x000000000007065c        0x0 /opt/gcc-linaro-7.2.1-2017.11-x86_64_arm-eabi/arm-eabi/libc/usr/lib/libc.a(lib_a-svfscanf.o)
 .bss           0x000000000007065c        0x0 /opt/gcc-linaro-7.2.1-2017.11-x86_64_arm-eabi/arm-eabi/libc/usr/lib/libc.a(lib_a-wcrtomb.o)
 .bss           0x000000000007065c        0x0 /opt/gcc-linaro-7.2.1-2017.11-x86_64_arm-eabi/arm-eabi/libc/usr/lib/libc.a(lib_a-wcsrtombs.o)
 .bss           0x000000000007065c        0x0 /opt/gcc-linaro-7.2.1-2017.11-x86_64_arm-eabi/arm-eabi/libc/usr/lib/libc.a(lib_a-writer.o)
 .bss           0x000000000007065c        0x0 /opt/gcc-linaro-7.2.1-2017.11-x86_64_arm-eabi/arm-eabi/libc/usr/lib/libc.a(lib_a-closer.o)
 .bss           0x000000000007065c        0x0 /opt/gcc-linaro-7.2.1-2017.11-x86_64_arm-eabi/arm-eabi/libc/usr/lib/libc.a(lib_a-dtoa.o)
 .bss           0x000000000007065c        0x0 /opt/gcc-linaro-7.2.1-2017.11-x86_64_arm-eabi/arm-eabi/libc/usr/lib/libc.a(lib_a-freer.o)
 .bss           0x000000000007065c        0x0 /opt/gcc-linaro-7.2.1-2017.11-x86_64_arm-eabi/arm-eabi/libc/usr/lib/libc.a(lib_a-impure.o)
 .bss           0x000000000007065c        0x0 /opt/gcc-linaro-7.2.1-2017.11-x86_64_arm-eabi/arm-eabi/libc/usr/lib/libc.a(lib_a-iswspace.o)
 .bss           0x000000000007065c        0x0 /opt/gcc-linaro-7.2.1-2017.11-x86_64_arm-eabi/arm-eabi/libc/usr/lib/libc.a(lib_a-jp2uc.o)
 .bss           0x000000000007065c      0x2ac /opt/gcc-linaro-7.2.1-2017.11-x86_64_arm-eabi/arm-eabi/libc/usr/lib/libc.a(lib_a-locale.o)
                0x0000000000070904                _PathLocale
 .bss           0x0000000000070908        0x0 /opt/gcc-linaro-7.2.1-2017.11-x86_64_arm-eabi/arm-eabi/libc/usr/lib/libc.a(lib_a-localeconv.o)
 .bss           0x0000000000070908        0x0 /opt/gcc-linaro-7.2.1-2017.11-x86_64_arm-eabi/arm-eabi/libc/usr/lib/libc.a(lib_a-lseekr.o)
 .bss           0x0000000000070908       0x34 /opt/gcc-linaro-7.2.1-2017.11-x86_64_arm-eabi/arm-eabi/libc/usr/lib/libc.a(lib_a-mallocr.o)
                0x0000000000070908                __malloc_top_pad
                0x000000000007090c                __malloc_current_mallinfo
                0x0000000000070934                __malloc_max_sbrked_mem
                0x0000000000070938                __malloc_max_total_mem
 .bss           0x000000000007093c        0x0 /opt/gcc-linaro-7.2.1-2017.11-x86_64_arm-eabi/arm-eabi/libc/usr/lib/libc.a(lib_a-mbrtowc.o)
 .bss           0x000000000007093c        0x0 /opt/gcc-linaro-7.2.1-2017.11-x86_64_arm-eabi/arm-eabi/libc/usr/lib/libc.a(lib_a-mbtowc_r.o)
 .bss           0x000000000007093c        0x0 /opt/gcc-linaro-7.2.1-2017.11-x86_64_arm-eabi/arm-eabi/libc/usr/lib/libc.a(lib_a-memchr-stub.o)
 .bss           0x000000000007093c        0x0 /opt/gcc-linaro-7.2.1-2017.11-x86_64_arm-eabi/arm-eabi/libc/usr/lib/libc.a(lib_a-mlock.o)
 .bss           0x000000000007093c        0x0 /opt/gcc-linaro-7.2.1-2017.11-x86_64_arm-eabi/arm-eabi/libc/usr/lib/libc.a(lib_a-mprec.o)
 .bss           0x000000000007093c        0x0 /opt/gcc-linaro-7.2.1-2017.11-x86_64_arm-eabi/arm-eabi/libc/usr/lib/libc.a(lib_a-readr.o)
 .bss           0x000000000007093c        0x0 /opt/gcc-linaro-7.2.1-2017.11-x86_64_arm-eabi/arm-eabi/libc/usr/lib/libc.a(lib_a-reent.o)
 .bss           0x000000000007093c        0x0 /opt/gcc-linaro-7.2.1-2017.11-x86_64_arm-eabi/arm-eabi/libc/usr/lib/libc.a(lib_a-s_frexp.o)
 .bss           0x000000000007093c        0x0 /opt/gcc-linaro-7.2.1-2017.11-x86_64_arm-eabi/arm-eabi/libc/usr/lib/libc.a(lib_a-sbrkr.o)
 .bss           0x000000000007093c        0x0 /opt/gcc-linaro-7.2.1-2017.11-x86_64_arm-eabi/arm-eabi/libc/usr/lib/libc.a(lib_a-sccl.o)
 .bss           0x000000000007093c        0x0 /opt/gcc-linaro-7.2.1-2017.11-x86_64_arm-eabi/arm-eabi/libc/usr/lib/libc.a(lib_a-sf_nan.o)
 .bss           0x000000000007093c        0x0 /opt/gcc-linaro-7.2.1-2017.11-x86_64_arm-eabi/arm-eabi/libc/usr/lib/libc.a(lib_a-stpncpy.o)
 .bss           0x000000000007093c        0x0 /opt/gcc-linaro-7.2.1-2017.11-x86_64_arm-eabi/arm-eabi/libc/usr/lib/libc.a(lib_a-strcasecmp.o)
 .bss           0x000000000007093c        0x0 /opt/gcc-linaro-7.2.1-2017.11-x86_64_arm-eabi/arm-eabi/libc/usr/lib/libc.a(lib_a-strcat.o)
 .bss           0x000000000007093c        0x0 /opt/gcc-linaro-7.2.1-2017.11-x86_64_arm-eabi/arm-eabi/libc/usr/lib/libc.a(lib_a-strchr.o)
 .bss           0x000000000007093c        0x0 /opt/gcc-linaro-7.2.1-2017.11-x86_64_arm-eabi/arm-eabi/libc/usr/lib/libc.a(lib_a-strlcpy.o)
 .bss           0x000000000007093c        0x0 /opt/gcc-linaro-7.2.1-2017.11-x86_64_arm-eabi/arm-eabi/libc/usr/lib/libc.a(lib_a-strncasecmp.o)
 .bss           0x000000000007093c        0x0 /opt/gcc-linaro-7.2.1-2017.11-x86_64_arm-eabi/arm-eabi/libc/usr/lib/libc.a(lib_a-strtod.o)
 .bss           0x000000000007093c        0x0 /opt/gcc-linaro-7.2.1-2017.11-x86_64_arm-eabi/arm-eabi/libc/usr/lib/libc.a(lib_a-strtoll.o)
 .bss           0x000000000007093c        0x0 /opt/gcc-linaro-7.2.1-2017.11-x86_64_arm-eabi/arm-eabi/libc/usr/lib/libc.a(lib_a-strtoull.o)
 .bss           0x000000000007093c        0x0 /opt/gcc-linaro-7.2.1-2017.11-x86_64_arm-eabi/arm-eabi/libc/usr/lib/libc.a(lib_a-svfiprintf.o)
 .bss           0x000000000007093c        0x0 /opt/gcc-linaro-7.2.1-2017.11-x86_64_arm-eabi/arm-eabi/libc/usr/lib/libc.a(lib_a-svfiscanf.o)
 .bss           0x000000000007093c       0xb0 /opt/gcc-linaro-7.2.1-2017.11-x86_64_arm-eabi/arm-eabi/libc/usr/lib/libc.a(lib_a-syscalls.o)
 .bss           0x00000000000709ec        0x0 /opt/gcc-linaro-7.2.1-2017.11-x86_64_arm-eabi/arm-eabi/libc/usr/lib/libc.a(lib_a-ungetc.o)
 .bss           0x00000000000709ec        0x0 /opt/gcc-linaro-7.2.1-2017.11-x86_64_arm-eabi/arm-eabi/libc/usr/lib/libc.a(lib_a-wcsnrtombs.o)
 .bss           0x00000000000709ec        0x0 /opt/gcc-linaro-7.2.1-2017.11-x86_64_arm-eabi/arm-eabi/libc/usr/lib/libc.a(lib_a-wctomb_r.o)
 .bss           0x00000000000709ec        0x0 /opt/gcc-linaro-7.2.1-2017.11-x86_64_arm-eabi/arm-eabi/libc/usr/lib/libc.a(lib_a-callocr.o)
 .bss           0x00000000000709ec        0x0 /opt/gcc-linaro-7.2.1-2017.11-x86_64_arm-eabi/arm-eabi/libc/usr/lib/libc.a(lib_a-ctype_.o)
 .bss           0x00000000000709ec        0x0 /opt/gcc-linaro-7.2.1-2017.11-x86_64_arm-eabi/arm-eabi/libc/usr/lib/libc.a(lib_a-errno.o)
 .bss           0x00000000000709ec        0x0 /opt/gcc-linaro-7.2.1-2017.11-x86_64_arm-eabi/arm-eabi/libc/usr/lib/libc.a(lib_a-fflush.o)
 .bss           0x00000000000709ec        0x0 /opt/gcc-linaro-7.2.1-2017.11-x86_64_arm-eabi/arm-eabi/libc/usr/lib/libc.a(lib_a-findfp.o)
 .bss           0x00000000000709ec        0x0 /opt/gcc-linaro-7.2.1-2017.11-x86_64_arm-eabi/arm-eabi/libc/usr/lib/libc.a(lib_a-fwalk.o)
 .bss           0x00000000000709ec        0x0 /opt/gcc-linaro-7.2.1-2017.11-x86_64_arm-eabi/arm-eabi/libc/usr/lib/libc.a(lib_a-gdtoa-gethex.o)
 .bss           0x00000000000709ec        0x0 /opt/gcc-linaro-7.2.1-2017.11-x86_64_arm-eabi/arm-eabi/libc/usr/lib/libc.a(lib_a-gdtoa-hexnan.o)
 .bss           0x00000000000709ec        0x0 /opt/gcc-linaro-7.2.1-2017.11-x86_64_arm-eabi/arm-eabi/libc/usr/lib/libc.a(lib_a-getenv_r.o)
 .bss           0x00000000000709ec        0x0 /opt/gcc-linaro-7.2.1-2017.11-x86_64_arm-eabi/arm-eabi/libc/usr/lib/libc.a(lib_a-reallocr.o)
 .bss           0x00000000000709ec        0x4 /opt/gcc-linaro-7.2.1-2017.11-x86_64_arm-eabi/arm-eabi/libc/usr/lib/libc.a(lib_a-environ.o)
 .bss           0x00000000000709f0        0x0 /opt/gcc-linaro-7.2.1-2017.11-x86_64_arm-eabi/arm-eabi/libc/usr/lib/libc.a(lib_a-envlock.o)
 .bss           0x00000000000709f0        0x0 /opt/gcc-linaro-7.2.1-2017.11-x86_64_arm-eabi/arm-eabi/libc/usr/lib/libc.a(lib_a-fclose.o)
 .bss           0x00000000000709f0        0x0 /opt/gcc-linaro-7.2.1-2017.11-x86_64_arm-eabi/arm-eabi/libc/usr/lib/libm.a(lib_a-sf_fabs.o)
 .bss           0x00000000000709f0        0x0 /opt/gcc-linaro-7.2.1-2017.11-x86_64_arm-eabi/arm-eabi/libc/usr/lib/libgcc.a(_udivsi3.o)
 .bss           0x00000000000709f0        0x0 /opt/gcc-linaro-7.2.1-2017.11-x86_64_arm-eabi/arm-eabi/libc/usr/lib/libgcc.a(_dvmd_tls.o)
 .bss           0x00000000000709f0        0x0 /opt/gcc-linaro-7.2.1-2017.11-x86_64_arm-eabi/arm-eabi/libc/usr/lib/libgcc.a(_arm_addsubdf3.o)
 .bss           0x00000000000709f0        0x0 /opt/gcc-linaro-7.2.1-2017.11-x86_64_arm-eabi/arm-eabi/libc/usr/lib/libgcc.a(_arm_muldivdf3.o)
 .bss           0x00000000000709f0        0x0 /opt/gcc-linaro-7.2.1-2017.11-x86_64_arm-eabi/arm-eabi/libc/usr/lib/libgcc.a(_arm_cmpdf2.o)
 .bss           0x00000000000709f0        0x0 /opt/gcc-linaro-7.2.1-2017.11-x86_64_arm-eabi/arm-eabi/libc/usr/lib/libgcc.a(_arm_unorddf2.o)
 .bss           0x00000000000709f0        0x0 /opt/gcc-linaro-7.2.1-2017.11-x86_64_arm-eabi/arm-eabi/libc/usr/lib/libgcc.a(_arm_fixdfsi.o)
 .bss           0x00000000000709f0        0x0 /opt/gcc-linaro-7.2.1-2017.11-x86_64_arm-eabi/arm-eabi/libc/usr/lib/libgcc.a(_arm_fixunsdfsi.o)
 .bss           0x00000000000709f0        0x0 /opt/gcc-linaro-7.2.1-2017.11-x86_64_arm-eabi/arm-eabi/libc/usr/lib/libgcc.a(_arm_truncdfsf2.o)
 .bss           0x00000000000709f0        0x0 /opt/gcc-linaro-7.2.1-2017.11-x86_64_arm-eabi/arm-eabi/libc/usr/lib/libgcc.a(_arm_cmpsf2.o)
 .bss           0x00000000000709f0        0x0 /opt/gcc-linaro-7.2.1-2017.11-x86_64_arm-eabi/arm-eabi/libc/usr/lib/libgcc.a(_arm_unordsf2.o)
 .bss           0x00000000000709f0        0x0 /opt/gcc-linaro-7.2.1-2017.11-x86_64_arm-eabi/arm-eabi/libc/usr/lib/libgcc.a(_aeabi_uldivmod.o)
 .bss           0x00000000000709f0        0x0 /opt/gcc-linaro-7.2.1-2017.11-x86_64_arm-eabi/arm-eabi/libc/usr/lib/libgcc.a(_udivmoddi4.o)
 .bss           0x00000000000709f0        0x0 /opt/gcc-linaro-7.2.1-2017.11-x86_64_arm-eabi/arm-eabi/libc/usr/lib/libgcc.a(_clzdi2.o)
 .bss           0x00000000000709f0        0x0 /opt/gcc-linaro-7.2.1-2017.11-x86_64_arm-eabi/arm-eabi/libc/usr/lib/libgcc.a(_clzsi2.o)
 *(.bss.*)
                0x0000000000070a00                . = ALIGN (0x20)
 *fill*         0x00000000000709f0       0x10 
                0x0000000000070a00                __BSS_END__ = .
 COMMON         0x0000000000070a00        0x4 /opt/gcc-linaro-7.2.1-2017.11-x86_64_arm-eabi/arm-eabi/libc/usr/lib/libc.a(lib_a-reent.o)
                0x0000000000070a00                errno

.arm_stack      0x0000000000079980      0x680
                0x0000000000079980                __stack_start = .
                0x000000000007a000                . = (. + 0x680)
 *fill*         0x0000000000079980      0x680 
                0x000000000007a000                _stack_end = .

.nc_can         0x000000000007a000     0x2000 load address 0x0000000000070a04
                0x000000000007a000                __nc_canstart = .
                0x000000000007c000                . = (. + CAN_NC_SIZE)
 *fill*         0x000000000007a000     0x2000 
                0x000000000007c000                _end_of_nc_can = .

.nc_dma         0x000000000007c000     0x4000 load address 0x0000000000070a04
                0x000000000007c000                __nc_dmastart = .
                0x0000000000080000                . = (. + DMA_NC_SIZE)
 *fill*         0x000000000007c000     0x4000 
                0x0000000000080000                _end_of_nc_dma = .
                0x0000000000080000                _end = .
                0x0000000000080000                __end = _end
                0x0000000000080000                PROVIDE (end, .)

/DISCARD/
 *(.ARM.exidx* .ARM.extab* .glue* .vfp11_veneer .v4_bx .iplt .igot.* .rel.*)
LOAD ./../../../build/tcc70xx/gcc/tcc70xx-freertos-debug/obj/main.o
LOAD ./../../../build/tcc70xx/gcc/tcc70xx-freertos-debug/obj/can_demo.o
LOAD ./../../../build/tcc70xx/gcc/tcc70xx-freertos-debug/obj/can_vcp_ctrl.o
LOAD ./../../../build/tcc70xx/gcc/tcc70xx-freertos-debug/obj/console.o
LOAD ./../../../build/tcc70xx/gcc/tcc70xx-freertos-debug/obj/fwupdate.o
LOAD ./../../../build/tcc70xx/gcc/tcc70xx-freertos-debug/obj/idle.o
LOAD ./../../../build/tcc70xx/gcc/tcc70xx-freertos-debug/obj/iperf_task_v3_0d.o
LOAD ./../../../build/tcc70xx/gcc/tcc70xx-freertos-debug/obj/spi_led.o
LOAD ./../../../build/tcc70xx/gcc/tcc70xx-freertos-debug/obj/audio_test.o
LOAD ./../../../build/tcc70xx/gcc/tcc70xx-freertos-debug/obj/audio_chip_veri.o
LOAD ./../../../build/tcc70xx/gcc/tcc70xx-freertos-debug/obj/wm8904.o
LOAD ./../../../build/tcc70xx/gcc/tcc70xx-freertos-debug/obj/cpu_test.o
LOAD ./../../../build/tcc70xx/gcc/tcc70xx-freertos-debug/obj/dse_test.o
LOAD ./../../../build/tcc70xx/gcc/tcc70xx-freertos-debug/obj/eflash_test.o
LOAD ./../../../build/tcc70xx/gcc/tcc70xx-freertos-debug/obj/fmu_test.o
LOAD ./../../../build/tcc70xx/gcc/tcc70xx-freertos-debug/obj/gdma_test.o
LOAD ./../../../build/tcc70xx/gcc/tcc70xx-freertos-debug/obj/gdma_ip_test.o
LOAD ./../../../build/tcc70xx/gcc/tcc70xx-freertos-debug/obj/gic_test.o
LOAD ./../../../build/tcc70xx/gcc/tcc70xx-freertos-debug/obj/gpio_test.o
LOAD ./../../../build/tcc70xx/gcc/tcc70xx-freertos-debug/obj/gpsb_test.o
LOAD ./../../../build/tcc70xx/gcc/tcc70xx-freertos-debug/obj/hsm_test.o
LOAD ./../../../build/tcc70xx/gcc/tcc70xx-freertos-debug/obj/i2c_test.o
LOAD ./../../../build/tcc70xx/gcc/tcc70xx-freertos-debug/obj/ictc_test.o
LOAD ./../../../build/tcc70xx/gcc/tcc70xx-freertos-debug/obj/lin_test.o
LOAD ./../../../build/tcc70xx/gcc/tcc70xx-freertos-debug/obj/pdm_test.o
LOAD ./../../../build/tcc70xx/gcc/tcc70xx-freertos-debug/obj/pmu_test.o
LOAD ./../../../build/tcc70xx/gcc/tcc70xx-freertos-debug/obj/rtc_test.o
LOAD ./../../../build/tcc70xx/gcc/tcc70xx-freertos-debug/obj/sfmc_test.o
LOAD ./../../../build/tcc70xx/gcc/tcc70xx-freertos-debug/obj/echo_test.o
LOAD ./../../../build/tcc70xx/gcc/tcc70xx-freertos-debug/obj/timer_test.o
LOAD ./../../../build/tcc70xx/gcc/tcc70xx-freertos-debug/obj/uart_test.o
LOAD ./../../../build/tcc70xx/gcc/tcc70xx-freertos-debug/obj/wdt_test.o
LOAD ./../../../build/tcc70xx/gcc/tcc70xx-freertos-debug/obj/writelock_test.o
LOAD ./../../../build/tcc70xx/gcc/tcc70xx-freertos-debug/obj/eth_test.o
LOAD ./../../../build/tcc70xx/gcc/tcc70xx-freertos-debug/obj/spu_test.o
LOAD ./../../../build/tcc70xx/gcc/tcc70xx-freertos-debug/obj/power_app.o
LOAD ./../../../build/tcc70xx/gcc/tcc70xx-freertos-debug/obj/power_com.o
LOAD ./../../../build/tcc70xx/gcc/tcc70xx-freertos-debug/obj/spi_eccp.o
LOAD ./../../../build/tcc70xx/gcc/tcc70xx-freertos-debug/obj/hsm_manager.o
LOAD ./../../../build/tcc70xx/gcc/tcc70xx-freertos-debug/obj/lin.o
LOAD ./../../../build/tcc70xx/gcc/tcc70xx-freertos-debug/obj/swl.o
LOAD ./../../../build/tcc70xx/gcc/tcc70xx-freertos-debug/obj/adc.o
LOAD ./../../../build/tcc70xx/gcc/tcc70xx-freertos-debug/obj/can.o
LOAD ./../../../build/tcc70xx/gcc/tcc70xx-freertos-debug/obj/can_drv.o
LOAD ./../../../build/tcc70xx/gcc/tcc70xx-freertos-debug/obj/can_msg.o
LOAD ./../../../build/tcc70xx/gcc/tcc70xx-freertos-debug/obj/can_par.o
LOAD ./../../../build/tcc70xx/gcc/tcc70xx-freertos-debug/obj/can_porting.o
LOAD ./../../../build/tcc70xx/gcc/tcc70xx-freertos-debug/obj/clock_dev.o
LOAD ./../../../build/tcc70xx/gcc/tcc70xx-freertos-debug/obj/debug.o
LOAD ./../../../build/tcc70xx/gcc/tcc70xx-freertos-debug/obj/bsp.o
LOAD ./../../../build/tcc70xx/gcc/tcc70xx-freertos-debug/obj/dse.o
LOAD ./../../../build/tcc70xx/gcc/tcc70xx-freertos-debug/obj/eflash.o
LOAD ./../../../build/tcc70xx/gcc/tcc70xx-freertos-debug/obj/eth.o
LOAD ./../../../build/tcc70xx/gcc/tcc70xx-freertos-debug/obj/eth_mii.o
LOAD ./../../../build/tcc70xx/gcc/tcc70xx-freertos-debug/obj/fmu.o
LOAD ./../../../build/tcc70xx/gcc/tcc70xx-freertos-debug/obj/gdma.o
LOAD ./../../../build/tcc70xx/gcc/tcc70xx-freertos-debug/obj/gic.o
LOAD ./../../../build/tcc70xx/gcc/tcc70xx-freertos-debug/obj/gpio.o
LOAD ./../../../build/tcc70xx/gcc/tcc70xx-freertos-debug/obj/gpsb.o
LOAD ./../../../build/tcc70xx/gcc/tcc70xx-freertos-debug/obj/gpsb_reg.o
LOAD ./../../../build/tcc70xx/gcc/tcc70xx-freertos-debug/obj/i2c.o
LOAD ./../../../build/tcc70xx/gcc/tcc70xx-freertos-debug/obj/i2c_reg.o
LOAD ./../../../build/tcc70xx/gcc/tcc70xx-freertos-debug/obj/i2s.o
LOAD ./../../../build/tcc70xx/gcc/tcc70xx-freertos-debug/obj/ictc.o
LOAD ./../../../build/tcc70xx/gcc/tcc70xx-freertos-debug/obj/mbox.o
LOAD ./../../../build/tcc70xx/gcc/tcc70xx-freertos-debug/obj/midf.o
LOAD ./../../../build/tcc70xx/gcc/tcc70xx-freertos-debug/obj/mpu.o
LOAD ./../../../build/tcc70xx/gcc/tcc70xx-freertos-debug/obj/preload.o
LOAD ./../../../build/tcc70xx/gcc/tcc70xx-freertos-debug/obj/pdm.o
LOAD ./../../../build/tcc70xx/gcc/tcc70xx-freertos-debug/obj/pmio_dev.o
LOAD ./../../../build/tcc70xx/gcc/tcc70xx-freertos-debug/obj/pmio_dev_extn_pw_ctl.o
LOAD ./../../../build/tcc70xx/gcc/tcc70xx-freertos-debug/obj/pmu.o
LOAD ./../../../build/tcc70xx/gcc/tcc70xx-freertos-debug/obj/rtc_dev.o
LOAD ./../../../build/tcc70xx/gcc/tcc70xx-freertos-debug/obj/snor_mio.o
LOAD ./../../../build/tcc70xx/gcc/tcc70xx-freertos-debug/obj/spu.o
LOAD ./../../../build/tcc70xx/gcc/tcc70xx-freertos-debug/obj/ssm.o
LOAD ./../../../build/tcc70xx/gcc/tcc70xx-freertos-debug/obj/timer.o
LOAD ./../../../build/tcc70xx/gcc/tcc70xx-freertos-debug/obj/uart.o
LOAD ./../../../build/tcc70xx/gcc/tcc70xx-freertos-debug/obj/wdt.o
LOAD ./../../../build/tcc70xx/gcc/tcc70xx-freertos-debug/obj/wdt_pmu.o
LOAD ./../../../build/tcc70xx/gcc/tcc70xx-freertos-debug/obj/tasks.o
LOAD ./../../../build/tcc70xx/gcc/tcc70xx-freertos-debug/obj/list.o
LOAD ./../../../build/tcc70xx/gcc/tcc70xx-freertos-debug/obj/queue.o
LOAD ./../../../build/tcc70xx/gcc/tcc70xx-freertos-debug/obj/event_groups.o
LOAD ./../../../build/tcc70xx/gcc/tcc70xx-freertos-debug/obj/timers.o
LOAD ./../../../build/tcc70xx/gcc/tcc70xx-freertos-debug/obj/stream_buffer.o
LOAD ./../../../build/tcc70xx/gcc/tcc70xx-freertos-debug/obj/port.o
LOAD ./../../../build/tcc70xx/gcc/tcc70xx-freertos-debug/obj/heap_5.o
LOAD ./../../../build/tcc70xx/gcc/tcc70xx-freertos-debug/obj/FreeRTOS_ARP.o
LOAD ./../../../build/tcc70xx/gcc/tcc70xx-freertos-debug/obj/FreeRTOS_DHCP.o
LOAD ./../../../build/tcc70xx/gcc/tcc70xx-freertos-debug/obj/FreeRTOS_DNS.o
LOAD ./../../../build/tcc70xx/gcc/tcc70xx-freertos-debug/obj/FreeRTOS_IP.o
LOAD ./../../../build/tcc70xx/gcc/tcc70xx-freertos-debug/obj/FreeRTOS_Sockets.o
LOAD ./../../../build/tcc70xx/gcc/tcc70xx-freertos-debug/obj/FreeRTOS_Stream_Buffer.o
LOAD ./../../../build/tcc70xx/gcc/tcc70xx-freertos-debug/obj/FreeRTOS_TCP_IP.o
LOAD ./../../../build/tcc70xx/gcc/tcc70xx-freertos-debug/obj/FreeRTOS_TCP_WIN.o
LOAD ./../../../build/tcc70xx/gcc/tcc70xx-freertos-debug/obj/FreeRTOS_UDP_IP.o
LOAD ./../../../build/tcc70xx/gcc/tcc70xx-freertos-debug/obj/FreeRTOS_Port.o
LOAD ./../../../build/tcc70xx/gcc/tcc70xx-freertos-debug/obj/BufferAllocation_1.o
LOAD ./../../../build/tcc70xx/gcc/tcc70xx-freertos-debug/obj/NetworkInterface.o
LOAD ./../../../build/tcc70xx/gcc/tcc70xx-freertos-debug/obj/sal_api.o
LOAD ./../../../build/tcc70xx/gcc/tcc70xx-freertos-debug/obj/sal_freertos_impl.o
LOAD ./../../../build/tcc70xx/gcc/tcc70xx-freertos-debug/obj/startup.o
LOAD ./../../../build/tcc70xx/gcc/tcc70xx-freertos-debug/obj/vector.o
LOAD ./../../../build/tcc70xx/gcc/tcc70xx-freertos-debug/obj/vfp_init.o
LOAD ./../../../build/tcc70xx/gcc/tcc70xx-freertos-debug/obj/arm_a.o
LOAD ./../../../build/tcc70xx/gcc/tcc70xx-freertos-debug/obj/portASM.o
LOAD ./../../../build/tcc70xx/gcc/tcc70xx-freertos-debug/obj/freertos.o
LOAD ./../../../build/tcc70xx/gcc/tcc70xx-freertos-debug/obj/sal.o
LOAD /opt/gcc-linaro-7.2.1-2017.11-x86_64_arm-eabi/arm-eabi/libc/usr/lib/libc.a
LOAD /opt/gcc-linaro-7.2.1-2017.11-x86_64_arm-eabi/arm-eabi/libc/usr/lib/libm.a
LOAD /opt/gcc-linaro-7.2.1-2017.11-x86_64_arm-eabi/arm-eabi/libc/usr/lib/libgcc.a
OUTPUT(./../../../build/tcc70xx/gcc/tcc70xx-freertos-debug/boot elf32-littlearm)

.debug_info     0x0000000000000000   0x1278c0
 .debug_info    0x0000000000000000     0x1618 ./../../../build/tcc70xx/gcc/tcc70xx-freertos-debug/obj/main.o
 .debug_info    0x0000000000001618     0x489c ./../../../build/tcc70xx/gcc/tcc70xx-freertos-debug/obj/can_demo.o
 .debug_info    0x0000000000005eb4     0x23a9 ./../../../build/tcc70xx/gcc/tcc70xx-freertos-debug/obj/can_vcp_ctrl.o
 .debug_info    0x000000000000825d     0x39a9 ./../../../build/tcc70xx/gcc/tcc70xx-freertos-debug/obj/console.o
 .debug_info    0x000000000000bc06     0x2631 ./../../../build/tcc70xx/gcc/tcc70xx-freertos-debug/obj/fwupdate.o
 .debug_info    0x000000000000e237     0x1475 ./../../../build/tcc70xx/gcc/tcc70xx-freertos-debug/obj/idle.o
 .debug_info    0x000000000000f6ac     0x2810 ./../../../build/tcc70xx/gcc/tcc70xx-freertos-debug/obj/iperf_task_v3_0d.o
 .debug_info    0x0000000000011ebc     0x16d7 ./../../../build/tcc70xx/gcc/tcc70xx-freertos-debug/obj/spi_led.o
 .debug_info    0x0000000000013593     0x2962 ./../../../build/tcc70xx/gcc/tcc70xx-freertos-debug/obj/audio_test.o
 .debug_info    0x0000000000015ef5     0x2671 ./../../../build/tcc70xx/gcc/tcc70xx-freertos-debug/obj/audio_chip_veri.o
 .debug_info    0x0000000000018566     0x1cef ./../../../build/tcc70xx/gcc/tcc70xx-freertos-debug/obj/wm8904.o
 .debug_info    0x000000000001a255     0x1f07 ./../../../build/tcc70xx/gcc/tcc70xx-freertos-debug/obj/cpu_test.o
 .debug_info    0x000000000001c15c     0x17d1 ./../../../build/tcc70xx/gcc/tcc70xx-freertos-debug/obj/dse_test.o
 .debug_info    0x000000000001d92d     0x2110 ./../../../build/tcc70xx/gcc/tcc70xx-freertos-debug/obj/eflash_test.o
 .debug_info    0x000000000001fa3d     0x253c ./../../../build/tcc70xx/gcc/tcc70xx-freertos-debug/obj/fmu_test.o
 .debug_info    0x0000000000021f79     0x15be ./../../../build/tcc70xx/gcc/tcc70xx-freertos-debug/obj/gdma_test.o
 .debug_info    0x0000000000023537     0x1443 ./../../../build/tcc70xx/gcc/tcc70xx-freertos-debug/obj/gdma_ip_test.o
 .debug_info    0x000000000002497a     0x1838 ./../../../build/tcc70xx/gcc/tcc70xx-freertos-debug/obj/gic_test.o
 .debug_info    0x00000000000261b2     0x244b ./../../../build/tcc70xx/gcc/tcc70xx-freertos-debug/obj/gpio_test.o
 .debug_info    0x00000000000285fd     0x219f ./../../../build/tcc70xx/gcc/tcc70xx-freertos-debug/obj/gpsb_test.o
 .debug_info    0x000000000002a79c     0x35e5 ./../../../build/tcc70xx/gcc/tcc70xx-freertos-debug/obj/hsm_test.o
 .debug_info    0x000000000002dd81     0x19b1 ./../../../build/tcc70xx/gcc/tcc70xx-freertos-debug/obj/i2c_test.o
 .debug_info    0x000000000002f732     0x19a9 ./../../../build/tcc70xx/gcc/tcc70xx-freertos-debug/obj/ictc_test.o
 .debug_info    0x00000000000310db     0x1ae4 ./../../../build/tcc70xx/gcc/tcc70xx-freertos-debug/obj/lin_test.o
 .debug_info    0x0000000000032bbf     0x1713 ./../../../build/tcc70xx/gcc/tcc70xx-freertos-debug/obj/pdm_test.o
 .debug_info    0x00000000000342d2     0x21f7 ./../../../build/tcc70xx/gcc/tcc70xx-freertos-debug/obj/pmu_test.o
 .debug_info    0x00000000000364c9     0x1ff3 ./../../../build/tcc70xx/gcc/tcc70xx-freertos-debug/obj/rtc_test.o
 .debug_info    0x00000000000384bc     0x1750 ./../../../build/tcc70xx/gcc/tcc70xx-freertos-debug/obj/sfmc_test.o
 .debug_info    0x0000000000039c0c     0x2091 ./../../../build/tcc70xx/gcc/tcc70xx-freertos-debug/obj/echo_test.o
 .debug_info    0x000000000003bc9d     0x1dd7 ./../../../build/tcc70xx/gcc/tcc70xx-freertos-debug/obj/timer_test.o
 .debug_info    0x000000000003da74     0x2191 ./../../../build/tcc70xx/gcc/tcc70xx-freertos-debug/obj/uart_test.o
 .debug_info    0x000000000003fc05     0x20bc ./../../../build/tcc70xx/gcc/tcc70xx-freertos-debug/obj/wdt_test.o
 .debug_info    0x0000000000041cc1     0x16d4 ./../../../build/tcc70xx/gcc/tcc70xx-freertos-debug/obj/writelock_test.o
 .debug_info    0x0000000000043395     0x1ed7 ./../../../build/tcc70xx/gcc/tcc70xx-freertos-debug/obj/eth_test.o
 .debug_info    0x000000000004526c     0x1ef8 ./../../../build/tcc70xx/gcc/tcc70xx-freertos-debug/obj/spu_test.o
 .debug_info    0x0000000000047164     0x1a6b ./../../../build/tcc70xx/gcc/tcc70xx-freertos-debug/obj/power_app.o
 .debug_info    0x0000000000048bcf     0x229c ./../../../build/tcc70xx/gcc/tcc70xx-freertos-debug/obj/power_com.o
 .debug_info    0x000000000004ae6b     0x2686 ./../../../build/tcc70xx/gcc/tcc70xx-freertos-debug/obj/spi_eccp.o
 .debug_info    0x000000000004d4f1     0x35ac ./../../../build/tcc70xx/gcc/tcc70xx-freertos-debug/obj/hsm_manager.o
 .debug_info    0x0000000000050a9d     0x2192 ./../../../build/tcc70xx/gcc/tcc70xx-freertos-debug/obj/lin.o
 .debug_info    0x0000000000052c2f     0x1ef5 ./../../../build/tcc70xx/gcc/tcc70xx-freertos-debug/obj/swl.o
 .debug_info    0x0000000000054b24     0x1d06 ./../../../build/tcc70xx/gcc/tcc70xx-freertos-debug/obj/adc.o
 .debug_info    0x000000000005682a     0x48db ./../../../build/tcc70xx/gcc/tcc70xx-freertos-debug/obj/can.o
 .debug_info    0x000000000005b105     0x53fe ./../../../build/tcc70xx/gcc/tcc70xx-freertos-debug/obj/can_drv.o
 .debug_info    0x0000000000060503     0x5152 ./../../../build/tcc70xx/gcc/tcc70xx-freertos-debug/obj/can_msg.o
 .debug_info    0x0000000000065655     0x1ad1 ./../../../build/tcc70xx/gcc/tcc70xx-freertos-debug/obj/can_par.o
 .debug_info    0x0000000000067126     0x50f9 ./../../../build/tcc70xx/gcc/tcc70xx-freertos-debug/obj/can_porting.o
 .debug_info    0x000000000006c21f     0x2ea3 ./../../../build/tcc70xx/gcc/tcc70xx-freertos-debug/obj/clock_dev.o
 .debug_info    0x000000000006f0c2     0x184c ./../../../build/tcc70xx/gcc/tcc70xx-freertos-debug/obj/debug.o
 .debug_info    0x000000000007090e     0x1519 ./../../../build/tcc70xx/gcc/tcc70xx-freertos-debug/obj/bsp.o
 .debug_info    0x0000000000071e27     0x1941 ./../../../build/tcc70xx/gcc/tcc70xx-freertos-debug/obj/dse.o
 .debug_info    0x0000000000073768     0x2885 ./../../../build/tcc70xx/gcc/tcc70xx-freertos-debug/obj/eflash.o
 .debug_info    0x0000000000075fed     0x353a ./../../../build/tcc70xx/gcc/tcc70xx-freertos-debug/obj/eth.o
 .debug_info    0x0000000000079527     0x1ccd ./../../../build/tcc70xx/gcc/tcc70xx-freertos-debug/obj/eth_mii.o
 .debug_info    0x000000000007b1f4     0x2c82 ./../../../build/tcc70xx/gcc/tcc70xx-freertos-debug/obj/fmu.o
 .debug_info    0x000000000007de76     0x22e8 ./../../../build/tcc70xx/gcc/tcc70xx-freertos-debug/obj/gdma.o
 .debug_info    0x000000000008015e     0x1d86 ./../../../build/tcc70xx/gcc/tcc70xx-freertos-debug/obj/gic.o
 .debug_info    0x0000000000081ee4     0x1c67 ./../../../build/tcc70xx/gcc/tcc70xx-freertos-debug/obj/gpio.o
 .debug_info    0x0000000000083b4b     0x378b ./../../../build/tcc70xx/gcc/tcc70xx-freertos-debug/obj/gpsb.o
 .debug_info    0x00000000000872d6     0x19a2 ./../../../build/tcc70xx/gcc/tcc70xx-freertos-debug/obj/gpsb_reg.o
 .debug_info    0x0000000000088c78     0x2a33 ./../../../build/tcc70xx/gcc/tcc70xx-freertos-debug/obj/i2c.o
 .debug_info    0x000000000008b6ab     0x192b ./../../../build/tcc70xx/gcc/tcc70xx-freertos-debug/obj/i2c_reg.o
 .debug_info    0x000000000008cfd6     0x2bab ./../../../build/tcc70xx/gcc/tcc70xx-freertos-debug/obj/i2s.o
 .debug_info    0x000000000008fb81     0x23a1 ./../../../build/tcc70xx/gcc/tcc70xx-freertos-debug/obj/ictc.o
 .debug_info    0x0000000000091f22     0x15e5 ./../../../build/tcc70xx/gcc/tcc70xx-freertos-debug/obj/mbox.o
 .debug_info    0x0000000000093507     0x1674 ./../../../build/tcc70xx/gcc/tcc70xx-freertos-debug/obj/midf.o
 .debug_info    0x0000000000094b7b     0x15db ./../../../build/tcc70xx/gcc/tcc70xx-freertos-debug/obj/mpu.o
 .debug_info    0x0000000000096156     0x1dfb ./../../../build/tcc70xx/gcc/tcc70xx-freertos-debug/obj/preload.o
 .debug_info    0x0000000000097f51     0x2553 ./../../../build/tcc70xx/gcc/tcc70xx-freertos-debug/obj/pdm.o
 .debug_info    0x000000000009a4a4     0x1f91 ./../../../build/tcc70xx/gcc/tcc70xx-freertos-debug/obj/pmio_dev.o
 .debug_info    0x000000000009c435     0x1934 ./../../../build/tcc70xx/gcc/tcc70xx-freertos-debug/obj/pmio_dev_extn_pw_ctl.o
 .debug_info    0x000000000009dd69     0x1982 ./../../../build/tcc70xx/gcc/tcc70xx-freertos-debug/obj/pmu.o
 .debug_info    0x000000000009f6eb     0x1b59 ./../../../build/tcc70xx/gcc/tcc70xx-freertos-debug/obj/rtc_dev.o
 .debug_info    0x00000000000a1244     0x30b7 ./../../../build/tcc70xx/gcc/tcc70xx-freertos-debug/obj/snor_mio.o
 .debug_info    0x00000000000a42fb     0x26df ./../../../build/tcc70xx/gcc/tcc70xx-freertos-debug/obj/spu.o
 .debug_info    0x00000000000a69da     0x1a4f ./../../../build/tcc70xx/gcc/tcc70xx-freertos-debug/obj/ssm.o
 .debug_info    0x00000000000a8429     0x1fd5 ./../../../build/tcc70xx/gcc/tcc70xx-freertos-debug/obj/timer.o
 .debug_info    0x00000000000aa3fe     0x3086 ./../../../build/tcc70xx/gcc/tcc70xx-freertos-debug/obj/uart.o
 .debug_info    0x00000000000ad484     0x1e64 ./../../../build/tcc70xx/gcc/tcc70xx-freertos-debug/obj/wdt.o
 .debug_info    0x00000000000af2e8     0x1e64 ./../../../build/tcc70xx/gcc/tcc70xx-freertos-debug/obj/wdt_pmu.o
 .debug_info    0x00000000000b114c     0x22d6 ./../../../build/tcc70xx/gcc/tcc70xx-freertos-debug/obj/tasks.o
 .debug_info    0x00000000000b3422      0xbe3 ./../../../build/tcc70xx/gcc/tcc70xx-freertos-debug/obj/list.o
 .debug_info    0x00000000000b4005     0x1ee8 ./../../../build/tcc70xx/gcc/tcc70xx-freertos-debug/obj/queue.o
 .debug_info    0x00000000000b5eed     0x10e3 ./../../../build/tcc70xx/gcc/tcc70xx-freertos-debug/obj/event_groups.o
 .debug_info    0x00000000000b6fd0     0x198d ./../../../build/tcc70xx/gcc/tcc70xx-freertos-debug/obj/timers.o
 .debug_info    0x00000000000b895d     0x15bb ./../../../build/tcc70xx/gcc/tcc70xx-freertos-debug/obj/stream_buffer.o
 .debug_info    0x00000000000b9f18     0x270a ./../../../build/tcc70xx/gcc/tcc70xx-freertos-debug/obj/port.o
 .debug_info    0x00000000000bc622      0xd9d ./../../../build/tcc70xx/gcc/tcc70xx-freertos-debug/obj/heap_5.o
 .debug_info    0x00000000000bd3bf     0x2621 ./../../../build/tcc70xx/gcc/tcc70xx-freertos-debug/obj/FreeRTOS_ARP.o
 .debug_info    0x00000000000bf9e0     0x2004 ./../../../build/tcc70xx/gcc/tcc70xx-freertos-debug/obj/FreeRTOS_DHCP.o
 .debug_info    0x00000000000c19e4     0x370e ./../../../build/tcc70xx/gcc/tcc70xx-freertos-debug/obj/FreeRTOS_DNS.o
 .debug_info    0x00000000000c50f2     0x3e6b ./../../../build/tcc70xx/gcc/tcc70xx-freertos-debug/obj/FreeRTOS_IP.o
 .debug_info    0x00000000000c8f5d     0x4654 ./../../../build/tcc70xx/gcc/tcc70xx-freertos-debug/obj/FreeRTOS_Sockets.o
 .debug_info    0x00000000000cd5b1     0x23af ./../../../build/tcc70xx/gcc/tcc70xx-freertos-debug/obj/FreeRTOS_Stream_Buffer.o
 .debug_info    0x00000000000cf960     0x4222 ./../../../build/tcc70xx/gcc/tcc70xx-freertos-debug/obj/FreeRTOS_TCP_IP.o
 .debug_info    0x00000000000d3b82     0x2f50 ./../../../build/tcc70xx/gcc/tcc70xx-freertos-debug/obj/FreeRTOS_TCP_WIN.o
 .debug_info    0x00000000000d6ad2     0x2d71 ./../../../build/tcc70xx/gcc/tcc70xx-freertos-debug/obj/FreeRTOS_UDP_IP.o
 .debug_info    0x00000000000d9843     0x1fb7 ./../../../build/tcc70xx/gcc/tcc70xx-freertos-debug/obj/FreeRTOS_Port.o
 .debug_info    0x00000000000db7fa     0x2353 ./../../../build/tcc70xx/gcc/tcc70xx-freertos-debug/obj/BufferAllocation_1.o
 .debug_info    0x00000000000ddb4d     0x23f1 ./../../../build/tcc70xx/gcc/tcc70xx-freertos-debug/obj/NetworkInterface.o
 .debug_info    0x00000000000dff3e     0x1e6d ./../../../build/tcc70xx/gcc/tcc70xx-freertos-debug/obj/sal_api.o
 .debug_info    0x00000000000e1dab     0x3432 ./../../../build/tcc70xx/gcc/tcc70xx-freertos-debug/obj/sal_freertos_impl.o
 .debug_info    0x00000000000e51dd       0x71 ./../../../build/tcc70xx/gcc/tcc70xx-freertos-debug/obj/startup.o
 .debug_info    0x00000000000e524e       0x70 ./../../../build/tcc70xx/gcc/tcc70xx-freertos-debug/obj/vector.o
 .debug_info    0x00000000000e52be       0x72 ./../../../build/tcc70xx/gcc/tcc70xx-freertos-debug/obj/vfp_init.o
 .debug_info    0x00000000000e5330       0x6f ./../../../build/tcc70xx/gcc/tcc70xx-freertos-debug/obj/arm_a.o
 .debug_info    0x00000000000e539f       0x99 ./../../../build/tcc70xx/gcc/tcc70xx-freertos-debug/obj/portASM.o
 .debug_info    0x00000000000e5438       0x9a ./../../../build/tcc70xx/gcc/tcc70xx-freertos-debug/obj/freertos.o
 .debug_info    0x00000000000e54d2       0x68 ./../../../build/tcc70xx/gcc/tcc70xx-freertos-debug/obj/sal.o
 .debug_info    0x00000000000e553a      0x945 /opt/gcc-linaro-7.2.1-2017.11-x86_64_arm-eabi/arm-eabi/libc/usr/lib/libc.a(lib_a-atoi.o)
 .debug_info    0x00000000000e5e7f      0x91d /opt/gcc-linaro-7.2.1-2017.11-x86_64_arm-eabi/arm-eabi/libc/usr/lib/libc.a(lib_a-memcmp.o)
 .debug_info    0x00000000000e679c      0x938 /opt/gcc-linaro-7.2.1-2017.11-x86_64_arm-eabi/arm-eabi/libc/usr/lib/libc.a(lib_a-memcpy-stub.o)
 .debug_info    0x00000000000e70d4      0xe31 /opt/gcc-linaro-7.2.1-2017.11-x86_64_arm-eabi/arm-eabi/libc/usr/lib/libc.a(lib_a-memmove.o)
 .debug_info    0x00000000000e7f05      0xe22 /opt/gcc-linaro-7.2.1-2017.11-x86_64_arm-eabi/arm-eabi/libc/usr/lib/libc.a(lib_a-memset.o)
 .debug_info    0x00000000000e8d27      0xc8f /opt/gcc-linaro-7.2.1-2017.11-x86_64_arm-eabi/arm-eabi/libc/usr/lib/libc.a(lib_a-snprintf.o)
 .debug_info    0x00000000000e99b6      0xbd7 /opt/gcc-linaro-7.2.1-2017.11-x86_64_arm-eabi/arm-eabi/libc/usr/lib/libc.a(lib_a-sprintf.o)
 .debug_info    0x00000000000ea58d      0xc06 /opt/gcc-linaro-7.2.1-2017.11-x86_64_arm-eabi/arm-eabi/libc/usr/lib/libc.a(lib_a-sscanf.o)
 .debug_info    0x00000000000eb193      0xd5c /opt/gcc-linaro-7.2.1-2017.11-x86_64_arm-eabi/arm-eabi/libc/usr/lib/libc.a(lib_a-stdio.o)
 .debug_info    0x00000000000ebeef      0x1b4 /opt/gcc-linaro-7.2.1-2017.11-x86_64_arm-eabi/arm-eabi/libc/usr/lib/libc.a(lib_a-strcmp.o)
 .debug_info    0x00000000000ec0a3      0x8bc /opt/gcc-linaro-7.2.1-2017.11-x86_64_arm-eabi/arm-eabi/libc/usr/lib/libc.a(lib_a-strcpy.o)
 .debug_info    0x00000000000ec95f      0x8ba /opt/gcc-linaro-7.2.1-2017.11-x86_64_arm-eabi/arm-eabi/libc/usr/lib/libc.a(lib_a-strlen-stub.o)
 .debug_info    0x00000000000ed219      0x8fa /opt/gcc-linaro-7.2.1-2017.11-x86_64_arm-eabi/arm-eabi/libc/usr/lib/libc.a(lib_a-strncmp.o)
 .debug_info    0x00000000000edb13      0x92d /opt/gcc-linaro-7.2.1-2017.11-x86_64_arm-eabi/arm-eabi/libc/usr/lib/libc.a(lib_a-strncpy.o)
 .debug_info    0x00000000000ee440      0x8d6 /opt/gcc-linaro-7.2.1-2017.11-x86_64_arm-eabi/arm-eabi/libc/usr/lib/libc.a(lib_a-strnlen.o)
 .debug_info    0x00000000000eed16     0x10d6 /opt/gcc-linaro-7.2.1-2017.11-x86_64_arm-eabi/arm-eabi/libc/usr/lib/libc.a(lib_a-strtol.o)
 .debug_info    0x00000000000efdec     0x10d6 /opt/gcc-linaro-7.2.1-2017.11-x86_64_arm-eabi/arm-eabi/libc/usr/lib/libc.a(lib_a-strtoul.o)
 .debug_info    0x00000000000f0ec2     0x2cb0 /opt/gcc-linaro-7.2.1-2017.11-x86_64_arm-eabi/arm-eabi/libc/usr/lib/libc.a(lib_a-svfprintf.o)
 .debug_info    0x00000000000f3b72     0x1fba /opt/gcc-linaro-7.2.1-2017.11-x86_64_arm-eabi/arm-eabi/libc/usr/lib/libc.a(lib_a-svfscanf.o)
 .debug_info    0x00000000000f5b2c      0xfe4 /opt/gcc-linaro-7.2.1-2017.11-x86_64_arm-eabi/arm-eabi/libc/usr/lib/libc.a(lib_a-wcrtomb.o)
 .debug_info    0x00000000000f6b10      0x9f6 /opt/gcc-linaro-7.2.1-2017.11-x86_64_arm-eabi/arm-eabi/libc/usr/lib/libc.a(lib_a-wcsrtombs.o)
 .debug_info    0x00000000000f7506      0x99d /opt/gcc-linaro-7.2.1-2017.11-x86_64_arm-eabi/arm-eabi/libc/usr/lib/libc.a(lib_a-writer.o)
 .debug_info    0x00000000000f7ea3      0x954 /opt/gcc-linaro-7.2.1-2017.11-x86_64_arm-eabi/arm-eabi/libc/usr/lib/libc.a(lib_a-closer.o)
 .debug_info    0x00000000000f87f7     0x1810 /opt/gcc-linaro-7.2.1-2017.11-x86_64_arm-eabi/arm-eabi/libc/usr/lib/libc.a(lib_a-dtoa.o)
 .debug_info    0x00000000000fa007      0xc97 /opt/gcc-linaro-7.2.1-2017.11-x86_64_arm-eabi/arm-eabi/libc/usr/lib/libc.a(lib_a-freer.o)
 .debug_info    0x00000000000fac9e      0x8a9 /opt/gcc-linaro-7.2.1-2017.11-x86_64_arm-eabi/arm-eabi/libc/usr/lib/libc.a(lib_a-impure.o)
 .debug_info    0x00000000000fb547      0xdf6 /opt/gcc-linaro-7.2.1-2017.11-x86_64_arm-eabi/arm-eabi/libc/usr/lib/libc.a(lib_a-iswspace.o)
 .debug_info    0x00000000000fc33d     0x1074 /opt/gcc-linaro-7.2.1-2017.11-x86_64_arm-eabi/arm-eabi/libc/usr/lib/libc.a(lib_a-jp2uc.o)
 .debug_info    0x00000000000fd3b1     0x1b01 /opt/gcc-linaro-7.2.1-2017.11-x86_64_arm-eabi/arm-eabi/libc/usr/lib/libc.a(lib_a-locale.o)
 .debug_info    0x00000000000feeb2      0xe91 /opt/gcc-linaro-7.2.1-2017.11-x86_64_arm-eabi/arm-eabi/libc/usr/lib/libc.a(lib_a-localeconv.o)
 .debug_info    0x00000000000ffd43      0x980 /opt/gcc-linaro-7.2.1-2017.11-x86_64_arm-eabi/arm-eabi/libc/usr/lib/libc.a(lib_a-lseekr.o)
 .debug_info    0x00000000001006c3      0xde0 /opt/gcc-linaro-7.2.1-2017.11-x86_64_arm-eabi/arm-eabi/libc/usr/lib/libc.a(lib_a-mallocr.o)
 .debug_info    0x00000000001014a3      0xffa /opt/gcc-linaro-7.2.1-2017.11-x86_64_arm-eabi/arm-eabi/libc/usr/lib/libc.a(lib_a-mbrtowc.o)
 .debug_info    0x000000000010249d     0x134a /opt/gcc-linaro-7.2.1-2017.11-x86_64_arm-eabi/arm-eabi/libc/usr/lib/libc.a(lib_a-mbtowc_r.o)
 .debug_info    0x00000000001037e7      0x939 /opt/gcc-linaro-7.2.1-2017.11-x86_64_arm-eabi/arm-eabi/libc/usr/lib/libc.a(lib_a-memchr-stub.o)
 .debug_info    0x0000000000104120      0x8dc /opt/gcc-linaro-7.2.1-2017.11-x86_64_arm-eabi/arm-eabi/libc/usr/lib/libc.a(lib_a-mlock.o)
 .debug_info    0x00000000001049fc     0x1c56 /opt/gcc-linaro-7.2.1-2017.11-x86_64_arm-eabi/arm-eabi/libc/usr/lib/libc.a(lib_a-mprec.o)
 .debug_info    0x0000000000106652      0x996 /opt/gcc-linaro-7.2.1-2017.11-x86_64_arm-eabi/arm-eabi/libc/usr/lib/libc.a(lib_a-readr.o)
 .debug_info    0x0000000000106fe8      0xa13 /opt/gcc-linaro-7.2.1-2017.11-x86_64_arm-eabi/arm-eabi/libc/usr/lib/libc.a(lib_a-reent.o)
 .debug_info    0x00000000001079fb      0x9f9 /opt/gcc-linaro-7.2.1-2017.11-x86_64_arm-eabi/arm-eabi/libc/usr/lib/libc.a(lib_a-s_frexp.o)
 .debug_info    0x00000000001083f4      0x95e /opt/gcc-linaro-7.2.1-2017.11-x86_64_arm-eabi/arm-eabi/libc/usr/lib/libc.a(lib_a-sbrkr.o)
 .debug_info    0x0000000000108d52      0xae7 /opt/gcc-linaro-7.2.1-2017.11-x86_64_arm-eabi/arm-eabi/libc/usr/lib/libc.a(lib_a-sccl.o)
 .debug_info    0x0000000000109839      0x903 /opt/gcc-linaro-7.2.1-2017.11-x86_64_arm-eabi/arm-eabi/libc/usr/lib/libc.a(lib_a-sf_nan.o)
 .debug_info    0x000000000010a13c      0x920 /opt/gcc-linaro-7.2.1-2017.11-x86_64_arm-eabi/arm-eabi/libc/usr/lib/libc.a(lib_a-stpncpy.o)
 .debug_info    0x000000000010aa5c      0x95e /opt/gcc-linaro-7.2.1-2017.11-x86_64_arm-eabi/arm-eabi/libc/usr/lib/libc.a(lib_a-strcasecmp.o)
 .debug_info    0x000000000010b3ba      0x90e /opt/gcc-linaro-7.2.1-2017.11-x86_64_arm-eabi/arm-eabi/libc/usr/lib/libc.a(lib_a-strcat.o)
 .debug_info    0x000000000010bcc8      0x915 /opt/gcc-linaro-7.2.1-2017.11-x86_64_arm-eabi/arm-eabi/libc/usr/lib/libc.a(lib_a-strchr.o)
 .debug_info    0x000000000010c5dd      0x8fd /opt/gcc-linaro-7.2.1-2017.11-x86_64_arm-eabi/arm-eabi/libc/usr/lib/libc.a(lib_a-strlcpy.o)
 .debug_info    0x000000000010ceda      0x97a /opt/gcc-linaro-7.2.1-2017.11-x86_64_arm-eabi/arm-eabi/libc/usr/lib/libc.a(lib_a-strncasecmp.o)
 .debug_info    0x000000000010d854     0x1c64 /opt/gcc-linaro-7.2.1-2017.11-x86_64_arm-eabi/arm-eabi/libc/usr/lib/libc.a(lib_a-strtod.o)
 .debug_info    0x000000000010f4b8     0x10d8 /opt/gcc-linaro-7.2.1-2017.11-x86_64_arm-eabi/arm-eabi/libc/usr/lib/libc.a(lib_a-strtoll.o)
 .debug_info    0x0000000000110590     0x10d8 /opt/gcc-linaro-7.2.1-2017.11-x86_64_arm-eabi/arm-eabi/libc/usr/lib/libc.a(lib_a-strtoull.o)
 .debug_info    0x0000000000111668     0x263d /opt/gcc-linaro-7.2.1-2017.11-x86_64_arm-eabi/arm-eabi/libc/usr/lib/libc.a(lib_a-svfiprintf.o)
 .debug_info    0x0000000000113ca5     0x1db7 /opt/gcc-linaro-7.2.1-2017.11-x86_64_arm-eabi/arm-eabi/libc/usr/lib/libc.a(lib_a-svfiscanf.o)
 .debug_info    0x0000000000115a5c     0x1f43 /opt/gcc-linaro-7.2.1-2017.11-x86_64_arm-eabi/arm-eabi/libc/usr/lib/libc.a(lib_a-syscalls.o)
 .debug_info    0x000000000011799f      0xc8a /opt/gcc-linaro-7.2.1-2017.11-x86_64_arm-eabi/arm-eabi/libc/usr/lib/libc.a(lib_a-ungetc.o)
 .debug_info    0x0000000000118629     0x10b1 /opt/gcc-linaro-7.2.1-2017.11-x86_64_arm-eabi/arm-eabi/libc/usr/lib/libc.a(lib_a-wcsnrtombs.o)
 .debug_info    0x00000000001196da     0x111b /opt/gcc-linaro-7.2.1-2017.11-x86_64_arm-eabi/arm-eabi/libc/usr/lib/libc.a(lib_a-wctomb_r.o)
 .debug_info    0x000000000011a7f5      0xb61 /opt/gcc-linaro-7.2.1-2017.11-x86_64_arm-eabi/arm-eabi/libc/usr/lib/libc.a(lib_a-callocr.o)
 .debug_info    0x000000000011b356      0xdfc /opt/gcc-linaro-7.2.1-2017.11-x86_64_arm-eabi/arm-eabi/libc/usr/lib/libc.a(lib_a-ctype_.o)
 .debug_info    0x000000000011c152      0x8d0 /opt/gcc-linaro-7.2.1-2017.11-x86_64_arm-eabi/arm-eabi/libc/usr/lib/libc.a(lib_a-errno.o)
 .debug_info    0x000000000011ca22      0xca3 /opt/gcc-linaro-7.2.1-2017.11-x86_64_arm-eabi/arm-eabi/libc/usr/lib/libc.a(lib_a-fflush.o)
 .debug_info    0x000000000011d6c5      0xfa8 /opt/gcc-linaro-7.2.1-2017.11-x86_64_arm-eabi/arm-eabi/libc/usr/lib/libc.a(lib_a-findfp.o)
 .debug_info    0x000000000011e66d      0xbd3 /opt/gcc-linaro-7.2.1-2017.11-x86_64_arm-eabi/arm-eabi/libc/usr/lib/libc.a(lib_a-fwalk.o)
 .debug_info    0x000000000011f240     0x14fc /opt/gcc-linaro-7.2.1-2017.11-x86_64_arm-eabi/arm-eabi/libc/usr/lib/libc.a(lib_a-gdtoa-gethex.o)
 .debug_info    0x000000000012073c     0x1104 /opt/gcc-linaro-7.2.1-2017.11-x86_64_arm-eabi/arm-eabi/libc/usr/lib/libc.a(lib_a-gdtoa-hexnan.o)
 .debug_info    0x0000000000121840      0xa04 /opt/gcc-linaro-7.2.1-2017.11-x86_64_arm-eabi/arm-eabi/libc/usr/lib/libc.a(lib_a-getenv_r.o)
 .debug_info    0x0000000000122244      0xddc /opt/gcc-linaro-7.2.1-2017.11-x86_64_arm-eabi/arm-eabi/libc/usr/lib/libc.a(lib_a-reallocr.o)
 .debug_info    0x0000000000123020       0x6a /opt/gcc-linaro-7.2.1-2017.11-x86_64_arm-eabi/arm-eabi/libc/usr/lib/libc.a(lib_a-environ.o)
 .debug_info    0x000000000012308a      0x8dc /opt/gcc-linaro-7.2.1-2017.11-x86_64_arm-eabi/arm-eabi/libc/usr/lib/libc.a(lib_a-envlock.o)
 .debug_info    0x0000000000123966      0xc13 /opt/gcc-linaro-7.2.1-2017.11-x86_64_arm-eabi/arm-eabi/libc/usr/lib/libc.a(lib_a-fclose.o)
 .debug_info    0x0000000000124579      0x958 /opt/gcc-linaro-7.2.1-2017.11-x86_64_arm-eabi/arm-eabi/libc/usr/lib/libm.a(lib_a-sf_fabs.o)
 .debug_info    0x0000000000124ed1      0x1a7 /opt/gcc-linaro-7.2.1-2017.11-x86_64_arm-eabi/arm-eabi/libc/usr/lib/libgcc.a(_udivsi3.o)
 .debug_info    0x0000000000125078      0x1a7 /opt/gcc-linaro-7.2.1-2017.11-x86_64_arm-eabi/arm-eabi/libc/usr/lib/libgcc.a(_dvmd_tls.o)
 .debug_info    0x000000000012521f      0x1a8 /opt/gcc-linaro-7.2.1-2017.11-x86_64_arm-eabi/arm-eabi/libc/usr/lib/libgcc.a(_arm_addsubdf3.o)
 .debug_info    0x00000000001253c7      0x1a8 /opt/gcc-linaro-7.2.1-2017.11-x86_64_arm-eabi/arm-eabi/libc/usr/lib/libgcc.a(_arm_muldivdf3.o)
 .debug_info    0x000000000012556f      0x1a8 /opt/gcc-linaro-7.2.1-2017.11-x86_64_arm-eabi/arm-eabi/libc/usr/lib/libgcc.a(_arm_cmpdf2.o)
 .debug_info    0x0000000000125717      0x1a8 /opt/gcc-linaro-7.2.1-2017.11-x86_64_arm-eabi/arm-eabi/libc/usr/lib/libgcc.a(_arm_unorddf2.o)
 .debug_info    0x00000000001258bf      0x1a8 /opt/gcc-linaro-7.2.1-2017.11-x86_64_arm-eabi/arm-eabi/libc/usr/lib/libgcc.a(_arm_fixdfsi.o)
 .debug_info    0x0000000000125a67      0x1a8 /opt/gcc-linaro-7.2.1-2017.11-x86_64_arm-eabi/arm-eabi/libc/usr/lib/libgcc.a(_arm_fixunsdfsi.o)
 .debug_info    0x0000000000125c0f      0x1a8 /opt/gcc-linaro-7.2.1-2017.11-x86_64_arm-eabi/arm-eabi/libc/usr/lib/libgcc.a(_arm_truncdfsf2.o)
 .debug_info    0x0000000000125db7      0x1a8 /opt/gcc-linaro-7.2.1-2017.11-x86_64_arm-eabi/arm-eabi/libc/usr/lib/libgcc.a(_arm_cmpsf2.o)
 .debug_info    0x0000000000125f5f      0x1a8 /opt/gcc-linaro-7.2.1-2017.11-x86_64_arm-eabi/arm-eabi/libc/usr/lib/libgcc.a(_arm_unordsf2.o)
 .debug_info    0x0000000000126107      0x1a3 /opt/gcc-linaro-7.2.1-2017.11-x86_64_arm-eabi/arm-eabi/libc/usr/lib/libgcc.a(_aeabi_uldivmod.o)
 .debug_info    0x00000000001262aa     0x12c8 /opt/gcc-linaro-7.2.1-2017.11-x86_64_arm-eabi/arm-eabi/libc/usr/lib/libgcc.a(_udivmoddi4.o)
 .debug_info    0x0000000000127572      0x1a7 /opt/gcc-linaro-7.2.1-2017.11-x86_64_arm-eabi/arm-eabi/libc/usr/lib/libgcc.a(_clzdi2.o)
 .debug_info    0x0000000000127719      0x1a7 /opt/gcc-linaro-7.2.1-2017.11-x86_64_arm-eabi/arm-eabi/libc/usr/lib/libgcc.a(_clzsi2.o)

.debug_abbrev   0x0000000000000000    0x19b24
 .debug_abbrev  0x0000000000000000      0x1ba ./../../../build/tcc70xx/gcc/tcc70xx-freertos-debug/obj/main.o
 .debug_abbrev  0x00000000000001ba      0x2ad ./../../../build/tcc70xx/gcc/tcc70xx-freertos-debug/obj/can_demo.o
 .debug_abbrev  0x0000000000000467      0x2cd ./../../../build/tcc70xx/gcc/tcc70xx-freertos-debug/obj/can_vcp_ctrl.o
 .debug_abbrev  0x0000000000000734      0x2d5 ./../../../build/tcc70xx/gcc/tcc70xx-freertos-debug/obj/console.o
 .debug_abbrev  0x0000000000000a09      0x296 ./../../../build/tcc70xx/gcc/tcc70xx-freertos-debug/obj/fwupdate.o
 .debug_abbrev  0x0000000000000c9f      0x181 ./../../../build/tcc70xx/gcc/tcc70xx-freertos-debug/obj/idle.o
 .debug_abbrev  0x0000000000000e20      0x309 ./../../../build/tcc70xx/gcc/tcc70xx-freertos-debug/obj/iperf_task_v3_0d.o
 .debug_abbrev  0x0000000000001129      0x1a8 ./../../../build/tcc70xx/gcc/tcc70xx-freertos-debug/obj/spi_led.o
 .debug_abbrev  0x00000000000012d1      0x2c3 ./../../../build/tcc70xx/gcc/tcc70xx-freertos-debug/obj/audio_test.o
 .debug_abbrev  0x0000000000001594      0x270 ./../../../build/tcc70xx/gcc/tcc70xx-freertos-debug/obj/audio_chip_veri.o
 .debug_abbrev  0x0000000000001804      0x20a ./../../../build/tcc70xx/gcc/tcc70xx-freertos-debug/obj/wm8904.o
 .debug_abbrev  0x0000000000001a0e      0x248 ./../../../build/tcc70xx/gcc/tcc70xx-freertos-debug/obj/cpu_test.o
 .debug_abbrev  0x0000000000001c56      0x1aa ./../../../build/tcc70xx/gcc/tcc70xx-freertos-debug/obj/dse_test.o
 .debug_abbrev  0x0000000000001e00      0x248 ./../../../build/tcc70xx/gcc/tcc70xx-freertos-debug/obj/eflash_test.o
 .debug_abbrev  0x0000000000002048      0x22a ./../../../build/tcc70xx/gcc/tcc70xx-freertos-debug/obj/fmu_test.o
 .debug_abbrev  0x0000000000002272      0x180 ./../../../build/tcc70xx/gcc/tcc70xx-freertos-debug/obj/gdma_test.o
 .debug_abbrev  0x00000000000023f2      0x117 ./../../../build/tcc70xx/gcc/tcc70xx-freertos-debug/obj/gdma_ip_test.o
 .debug_abbrev  0x0000000000002509      0x18b ./../../../build/tcc70xx/gcc/tcc70xx-freertos-debug/obj/gic_test.o
 .debug_abbrev  0x0000000000002694      0x218 ./../../../build/tcc70xx/gcc/tcc70xx-freertos-debug/obj/gpio_test.o
 .debug_abbrev  0x00000000000028ac      0x259 ./../../../build/tcc70xx/gcc/tcc70xx-freertos-debug/obj/gpsb_test.o
 .debug_abbrev  0x0000000000002b05      0x294 ./../../../build/tcc70xx/gcc/tcc70xx-freertos-debug/obj/hsm_test.o
 .debug_abbrev  0x0000000000002d99      0x1e8 ./../../../build/tcc70xx/gcc/tcc70xx-freertos-debug/obj/i2c_test.o
 .debug_abbrev  0x0000000000002f81      0x1de ./../../../build/tcc70xx/gcc/tcc70xx-freertos-debug/obj/ictc_test.o
 .debug_abbrev  0x000000000000315f      0x21e ./../../../build/tcc70xx/gcc/tcc70xx-freertos-debug/obj/lin_test.o
 .debug_abbrev  0x000000000000337d      0x1e9 ./../../../build/tcc70xx/gcc/tcc70xx-freertos-debug/obj/pdm_test.o
 .debug_abbrev  0x0000000000003566      0x233 ./../../../build/tcc70xx/gcc/tcc70xx-freertos-debug/obj/pmu_test.o
 .debug_abbrev  0x0000000000003799      0x22a ./../../../build/tcc70xx/gcc/tcc70xx-freertos-debug/obj/rtc_test.o
 .debug_abbrev  0x00000000000039c3      0x1a1 ./../../../build/tcc70xx/gcc/tcc70xx-freertos-debug/obj/sfmc_test.o
 .debug_abbrev  0x0000000000003b64      0x20c ./../../../build/tcc70xx/gcc/tcc70xx-freertos-debug/obj/echo_test.o
 .debug_abbrev  0x0000000000003d70      0x243 ./../../../build/tcc70xx/gcc/tcc70xx-freertos-debug/obj/timer_test.o
 .debug_abbrev  0x0000000000003fb3      0x2f3 ./../../../build/tcc70xx/gcc/tcc70xx-freertos-debug/obj/uart_test.o
 .debug_abbrev  0x00000000000042a6      0x23b ./../../../build/tcc70xx/gcc/tcc70xx-freertos-debug/obj/wdt_test.o
 .debug_abbrev  0x00000000000044e1      0x1d0 ./../../../build/tcc70xx/gcc/tcc70xx-freertos-debug/obj/writelock_test.o
 .debug_abbrev  0x00000000000046b1      0x217 ./../../../build/tcc70xx/gcc/tcc70xx-freertos-debug/obj/eth_test.o
 .debug_abbrev  0x00000000000048c8      0x235 ./../../../build/tcc70xx/gcc/tcc70xx-freertos-debug/obj/spu_test.o
 .debug_abbrev  0x0000000000004afd      0x201 ./../../../build/tcc70xx/gcc/tcc70xx-freertos-debug/obj/power_app.o
 .debug_abbrev  0x0000000000004cfe      0x266 ./../../../build/tcc70xx/gcc/tcc70xx-freertos-debug/obj/power_com.o
 .debug_abbrev  0x0000000000004f64      0x299 ./../../../build/tcc70xx/gcc/tcc70xx-freertos-debug/obj/spi_eccp.o
 .debug_abbrev  0x00000000000051fd      0x2d1 ./../../../build/tcc70xx/gcc/tcc70xx-freertos-debug/obj/hsm_manager.o
 .debug_abbrev  0x00000000000054ce      0x24e ./../../../build/tcc70xx/gcc/tcc70xx-freertos-debug/obj/lin.o
 .debug_abbrev  0x000000000000571c      0x25b ./../../../build/tcc70xx/gcc/tcc70xx-freertos-debug/obj/swl.o
 .debug_abbrev  0x0000000000005977      0x1fe ./../../../build/tcc70xx/gcc/tcc70xx-freertos-debug/obj/adc.o
 .debug_abbrev  0x0000000000005b75      0x25d ./../../../build/tcc70xx/gcc/tcc70xx-freertos-debug/obj/can.o
 .debug_abbrev  0x0000000000005dd2      0x2f1 ./../../../build/tcc70xx/gcc/tcc70xx-freertos-debug/obj/can_drv.o
 .debug_abbrev  0x00000000000060c3      0x2c5 ./../../../build/tcc70xx/gcc/tcc70xx-freertos-debug/obj/can_msg.o
 .debug_abbrev  0x0000000000006388      0x140 ./../../../build/tcc70xx/gcc/tcc70xx-freertos-debug/obj/can_par.o
 .debug_abbrev  0x00000000000064c8      0x295 ./../../../build/tcc70xx/gcc/tcc70xx-freertos-debug/obj/can_porting.o
 .debug_abbrev  0x000000000000675d      0x2dd ./../../../build/tcc70xx/gcc/tcc70xx-freertos-debug/obj/clock_dev.o
 .debug_abbrev  0x0000000000006a3a      0x229 ./../../../build/tcc70xx/gcc/tcc70xx-freertos-debug/obj/debug.o
 .debug_abbrev  0x0000000000006c63      0x15c ./../../../build/tcc70xx/gcc/tcc70xx-freertos-debug/obj/bsp.o
 .debug_abbrev  0x0000000000006dbf      0x20b ./../../../build/tcc70xx/gcc/tcc70xx-freertos-debug/obj/dse.o
 .debug_abbrev  0x0000000000006fca      0x2b8 ./../../../build/tcc70xx/gcc/tcc70xx-freertos-debug/obj/eflash.o
 .debug_abbrev  0x0000000000007282      0x39b ./../../../build/tcc70xx/gcc/tcc70xx-freertos-debug/obj/eth.o
 .debug_abbrev  0x000000000000761d      0x271 ./../../../build/tcc70xx/gcc/tcc70xx-freertos-debug/obj/eth_mii.o
 .debug_abbrev  0x000000000000788e      0x2b4 ./../../../build/tcc70xx/gcc/tcc70xx-freertos-debug/obj/fmu.o
 .debug_abbrev  0x0000000000007b42      0x258 ./../../../build/tcc70xx/gcc/tcc70xx-freertos-debug/obj/gdma.o
 .debug_abbrev  0x0000000000007d9a      0x21a ./../../../build/tcc70xx/gcc/tcc70xx-freertos-debug/obj/gic.o
 .debug_abbrev  0x0000000000007fb4      0x21d ./../../../build/tcc70xx/gcc/tcc70xx-freertos-debug/obj/gpio.o
 .debug_abbrev  0x00000000000081d1      0x27c ./../../../build/tcc70xx/gcc/tcc70xx-freertos-debug/obj/gpsb.o
 .debug_abbrev  0x000000000000844d      0x124 ./../../../build/tcc70xx/gcc/tcc70xx-freertos-debug/obj/gpsb_reg.o
 .debug_abbrev  0x0000000000008571      0x282 ./../../../build/tcc70xx/gcc/tcc70xx-freertos-debug/obj/i2c.o
 .debug_abbrev  0x00000000000087f3      0x135 ./../../../build/tcc70xx/gcc/tcc70xx-freertos-debug/obj/i2c_reg.o
 .debug_abbrev  0x0000000000008928      0x311 ./../../../build/tcc70xx/gcc/tcc70xx-freertos-debug/obj/i2s.o
 .debug_abbrev  0x0000000000008c39      0x27b ./../../../build/tcc70xx/gcc/tcc70xx-freertos-debug/obj/ictc.o
 .debug_abbrev  0x0000000000008eb4      0x1b9 ./../../../build/tcc70xx/gcc/tcc70xx-freertos-debug/obj/mbox.o
 .debug_abbrev  0x000000000000906d      0x1c5 ./../../../build/tcc70xx/gcc/tcc70xx-freertos-debug/obj/midf.o
 .debug_abbrev  0x0000000000009232      0x1bf ./../../../build/tcc70xx/gcc/tcc70xx-freertos-debug/obj/mpu.o
 .debug_abbrev  0x00000000000093f1      0x1fa ./../../../build/tcc70xx/gcc/tcc70xx-freertos-debug/obj/preload.o
 .debug_abbrev  0x00000000000095eb      0x26a ./../../../build/tcc70xx/gcc/tcc70xx-freertos-debug/obj/pdm.o
 .debug_abbrev  0x0000000000009855      0x249 ./../../../build/tcc70xx/gcc/tcc70xx-freertos-debug/obj/pmio_dev.o
 .debug_abbrev  0x0000000000009a9e      0x1dc ./../../../build/tcc70xx/gcc/tcc70xx-freertos-debug/obj/pmio_dev_extn_pw_ctl.o
 .debug_abbrev  0x0000000000009c7a      0x210 ./../../../build/tcc70xx/gcc/tcc70xx-freertos-debug/obj/pmu.o
 .debug_abbrev  0x0000000000009e8a      0x210 ./../../../build/tcc70xx/gcc/tcc70xx-freertos-debug/obj/rtc_dev.o
 .debug_abbrev  0x000000000000a09a      0x291 ./../../../build/tcc70xx/gcc/tcc70xx-freertos-debug/obj/snor_mio.o
 .debug_abbrev  0x000000000000a32b      0x283 ./../../../build/tcc70xx/gcc/tcc70xx-freertos-debug/obj/spu.o
 .debug_abbrev  0x000000000000a5ae      0x1a1 ./../../../build/tcc70xx/gcc/tcc70xx-freertos-debug/obj/ssm.o
 .debug_abbrev  0x000000000000a74f      0x24d ./../../../build/tcc70xx/gcc/tcc70xx-freertos-debug/obj/timer.o
 .debug_abbrev  0x000000000000a99c      0x261 ./../../../build/tcc70xx/gcc/tcc70xx-freertos-debug/obj/uart.o
 .debug_abbrev  0x000000000000abfd      0x257 ./../../../build/tcc70xx/gcc/tcc70xx-freertos-debug/obj/wdt.o
 .debug_abbrev  0x000000000000ae54      0x257 ./../../../build/tcc70xx/gcc/tcc70xx-freertos-debug/obj/wdt_pmu.o
 .debug_abbrev  0x000000000000b0ab      0x2fe ./../../../build/tcc70xx/gcc/tcc70xx-freertos-debug/obj/tasks.o
 .debug_abbrev  0x000000000000b3a9      0x1e4 ./../../../build/tcc70xx/gcc/tcc70xx-freertos-debug/obj/list.o
 .debug_abbrev  0x000000000000b58d      0x2bf ./../../../build/tcc70xx/gcc/tcc70xx-freertos-debug/obj/queue.o
 .debug_abbrev  0x000000000000b84c      0x229 ./../../../build/tcc70xx/gcc/tcc70xx-freertos-debug/obj/event_groups.o
 .debug_abbrev  0x000000000000ba75      0x291 ./../../../build/tcc70xx/gcc/tcc70xx-freertos-debug/obj/timers.o
 .debug_abbrev  0x000000000000bd06      0x294 ./../../../build/tcc70xx/gcc/tcc70xx-freertos-debug/obj/stream_buffer.o
 .debug_abbrev  0x000000000000bf9a      0x30c ./../../../build/tcc70xx/gcc/tcc70xx-freertos-debug/obj/port.o
 .debug_abbrev  0x000000000000c2a6      0x252 ./../../../build/tcc70xx/gcc/tcc70xx-freertos-debug/obj/heap_5.o
 .debug_abbrev  0x000000000000c4f8      0x2e8 ./../../../build/tcc70xx/gcc/tcc70xx-freertos-debug/obj/FreeRTOS_ARP.o
 .debug_abbrev  0x000000000000c7e0      0x1c9 ./../../../build/tcc70xx/gcc/tcc70xx-freertos-debug/obj/FreeRTOS_DHCP.o
 .debug_abbrev  0x000000000000c9a9      0x2fd ./../../../build/tcc70xx/gcc/tcc70xx-freertos-debug/obj/FreeRTOS_DNS.o
 .debug_abbrev  0x000000000000cca6      0x3d0 ./../../../build/tcc70xx/gcc/tcc70xx-freertos-debug/obj/FreeRTOS_IP.o
 .debug_abbrev  0x000000000000d076      0x40e ./../../../build/tcc70xx/gcc/tcc70xx-freertos-debug/obj/FreeRTOS_Sockets.o
 .debug_abbrev  0x000000000000d484      0x262 ./../../../build/tcc70xx/gcc/tcc70xx-freertos-debug/obj/FreeRTOS_Stream_Buffer.o
 .debug_abbrev  0x000000000000d6e6      0x3a1 ./../../../build/tcc70xx/gcc/tcc70xx-freertos-debug/obj/FreeRTOS_TCP_IP.o
 .debug_abbrev  0x000000000000da87      0x345 ./../../../build/tcc70xx/gcc/tcc70xx-freertos-debug/obj/FreeRTOS_TCP_WIN.o
 .debug_abbrev  0x000000000000ddcc      0x2b9 ./../../../build/tcc70xx/gcc/tcc70xx-freertos-debug/obj/FreeRTOS_UDP_IP.o
 .debug_abbrev  0x000000000000e085      0x255 ./../../../build/tcc70xx/gcc/tcc70xx-freertos-debug/obj/FreeRTOS_Port.o
 .debug_abbrev  0x000000000000e2da      0x2e6 ./../../../build/tcc70xx/gcc/tcc70xx-freertos-debug/obj/BufferAllocation_1.o
 .debug_abbrev  0x000000000000e5c0      0x2c6 ./../../../build/tcc70xx/gcc/tcc70xx-freertos-debug/obj/NetworkInterface.o
 .debug_abbrev  0x000000000000e886      0x20d ./../../../build/tcc70xx/gcc/tcc70xx-freertos-debug/obj/sal_api.o
 .debug_abbrev  0x000000000000ea93      0x28c ./../../../build/tcc70xx/gcc/tcc70xx-freertos-debug/obj/sal_freertos_impl.o
 .debug_abbrev  0x000000000000ed1f       0x14 ./../../../build/tcc70xx/gcc/tcc70xx-freertos-debug/obj/startup.o
 .debug_abbrev  0x000000000000ed33       0x14 ./../../../build/tcc70xx/gcc/tcc70xx-freertos-debug/obj/vector.o
 .debug_abbrev  0x000000000000ed47       0x14 ./../../../build/tcc70xx/gcc/tcc70xx-freertos-debug/obj/vfp_init.o
 .debug_abbrev  0x000000000000ed5b       0x14 ./../../../build/tcc70xx/gcc/tcc70xx-freertos-debug/obj/arm_a.o
 .debug_abbrev  0x000000000000ed6f       0x14 ./../../../build/tcc70xx/gcc/tcc70xx-freertos-debug/obj/portASM.o
 .debug_abbrev  0x000000000000ed83       0x14 ./../../../build/tcc70xx/gcc/tcc70xx-freertos-debug/obj/freertos.o
 .debug_abbrev  0x000000000000ed97       0x14 ./../../../build/tcc70xx/gcc/tcc70xx-freertos-debug/obj/sal.o
 .debug_abbrev  0x000000000000edab      0x1e2 /opt/gcc-linaro-7.2.1-2017.11-x86_64_arm-eabi/arm-eabi/libc/usr/lib/libc.a(lib_a-atoi.o)
 .debug_abbrev  0x000000000000ef8d      0x1bd /opt/gcc-linaro-7.2.1-2017.11-x86_64_arm-eabi/arm-eabi/libc/usr/lib/libc.a(lib_a-memcmp.o)
 .debug_abbrev  0x000000000000f14a      0x1e2 /opt/gcc-linaro-7.2.1-2017.11-x86_64_arm-eabi/arm-eabi/libc/usr/lib/libc.a(lib_a-memcpy-stub.o)
 .debug_abbrev  0x000000000000f32c      0x1e3 /opt/gcc-linaro-7.2.1-2017.11-x86_64_arm-eabi/arm-eabi/libc/usr/lib/libc.a(lib_a-memmove.o)
 .debug_abbrev  0x000000000000f50f      0x1de /opt/gcc-linaro-7.2.1-2017.11-x86_64_arm-eabi/arm-eabi/libc/usr/lib/libc.a(lib_a-memset.o)
 .debug_abbrev  0x000000000000f6ed      0x26c /opt/gcc-linaro-7.2.1-2017.11-x86_64_arm-eabi/arm-eabi/libc/usr/lib/libc.a(lib_a-snprintf.o)
 .debug_abbrev  0x000000000000f959      0x258 /opt/gcc-linaro-7.2.1-2017.11-x86_64_arm-eabi/arm-eabi/libc/usr/lib/libc.a(lib_a-sprintf.o)
 .debug_abbrev  0x000000000000fbb1      0x265 /opt/gcc-linaro-7.2.1-2017.11-x86_64_arm-eabi/arm-eabi/libc/usr/lib/libc.a(lib_a-sscanf.o)
 .debug_abbrev  0x000000000000fe16      0x25d /opt/gcc-linaro-7.2.1-2017.11-x86_64_arm-eabi/arm-eabi/libc/usr/lib/libc.a(lib_a-stdio.o)
 .debug_abbrev  0x0000000000010073       0x14 /opt/gcc-linaro-7.2.1-2017.11-x86_64_arm-eabi/arm-eabi/libc/usr/lib/libc.a(lib_a-strcmp.o)
 .debug_abbrev  0x0000000000010087      0x1b6 /opt/gcc-linaro-7.2.1-2017.11-x86_64_arm-eabi/arm-eabi/libc/usr/lib/libc.a(lib_a-strcpy.o)
 .debug_abbrev  0x000000000001023d      0x1a7 /opt/gcc-linaro-7.2.1-2017.11-x86_64_arm-eabi/arm-eabi/libc/usr/lib/libc.a(lib_a-strlen-stub.o)
 .debug_abbrev  0x00000000000103e4      0x1b8 /opt/gcc-linaro-7.2.1-2017.11-x86_64_arm-eabi/arm-eabi/libc/usr/lib/libc.a(lib_a-strncmp.o)
 .debug_abbrev  0x000000000001059c      0x1ea /opt/gcc-linaro-7.2.1-2017.11-x86_64_arm-eabi/arm-eabi/libc/usr/lib/libc.a(lib_a-strncpy.o)
 .debug_abbrev  0x0000000000010786      0x1b6 /opt/gcc-linaro-7.2.1-2017.11-x86_64_arm-eabi/arm-eabi/libc/usr/lib/libc.a(lib_a-strnlen.o)
 .debug_abbrev  0x000000000001093c      0x2bb /opt/gcc-linaro-7.2.1-2017.11-x86_64_arm-eabi/arm-eabi/libc/usr/lib/libc.a(lib_a-strtol.o)
 .debug_abbrev  0x0000000000010bf7      0x2bb /opt/gcc-linaro-7.2.1-2017.11-x86_64_arm-eabi/arm-eabi/libc/usr/lib/libc.a(lib_a-strtoul.o)
 .debug_abbrev  0x0000000000010eb2      0x40c /opt/gcc-linaro-7.2.1-2017.11-x86_64_arm-eabi/arm-eabi/libc/usr/lib/libc.a(lib_a-svfprintf.o)
 .debug_abbrev  0x00000000000112be      0x3bd /opt/gcc-linaro-7.2.1-2017.11-x86_64_arm-eabi/arm-eabi/libc/usr/lib/libc.a(lib_a-svfscanf.o)
 .debug_abbrev  0x000000000001167b      0x23f /opt/gcc-linaro-7.2.1-2017.11-x86_64_arm-eabi/arm-eabi/libc/usr/lib/libc.a(lib_a-wcrtomb.o)
 .debug_abbrev  0x00000000000118ba      0x1e7 /opt/gcc-linaro-7.2.1-2017.11-x86_64_arm-eabi/arm-eabi/libc/usr/lib/libc.a(lib_a-wcsrtombs.o)
 .debug_abbrev  0x0000000000011aa1      0x215 /opt/gcc-linaro-7.2.1-2017.11-x86_64_arm-eabi/arm-eabi/libc/usr/lib/libc.a(lib_a-writer.o)
 .debug_abbrev  0x0000000000011cb6      0x210 /opt/gcc-linaro-7.2.1-2017.11-x86_64_arm-eabi/arm-eabi/libc/usr/lib/libc.a(lib_a-closer.o)
 .debug_abbrev  0x0000000000011ec6      0x2f2 /opt/gcc-linaro-7.2.1-2017.11-x86_64_arm-eabi/arm-eabi/libc/usr/lib/libc.a(lib_a-dtoa.o)
 .debug_abbrev  0x00000000000121b8      0x273 /opt/gcc-linaro-7.2.1-2017.11-x86_64_arm-eabi/arm-eabi/libc/usr/lib/libc.a(lib_a-freer.o)
 .debug_abbrev  0x000000000001242b      0x192 /opt/gcc-linaro-7.2.1-2017.11-x86_64_arm-eabi/arm-eabi/libc/usr/lib/libc.a(lib_a-impure.o)
 .debug_abbrev  0x00000000000125bd      0x1de /opt/gcc-linaro-7.2.1-2017.11-x86_64_arm-eabi/arm-eabi/libc/usr/lib/libc.a(lib_a-iswspace.o)
 .debug_abbrev  0x000000000001279b      0x2c9 /opt/gcc-linaro-7.2.1-2017.11-x86_64_arm-eabi/arm-eabi/libc/usr/lib/libc.a(lib_a-jp2uc.o)
 .debug_abbrev  0x0000000000012a64      0x39c /opt/gcc-linaro-7.2.1-2017.11-x86_64_arm-eabi/arm-eabi/libc/usr/lib/libc.a(lib_a-locale.o)
 .debug_abbrev  0x0000000000012e00      0x246 /opt/gcc-linaro-7.2.1-2017.11-x86_64_arm-eabi/arm-eabi/libc/usr/lib/libc.a(lib_a-localeconv.o)
 .debug_abbrev  0x0000000000013046      0x21f /opt/gcc-linaro-7.2.1-2017.11-x86_64_arm-eabi/arm-eabi/libc/usr/lib/libc.a(lib_a-lseekr.o)
 .debug_abbrev  0x0000000000013265      0x2cd /opt/gcc-linaro-7.2.1-2017.11-x86_64_arm-eabi/arm-eabi/libc/usr/lib/libc.a(lib_a-mallocr.o)
 .debug_abbrev  0x0000000000013532      0x230 /opt/gcc-linaro-7.2.1-2017.11-x86_64_arm-eabi/arm-eabi/libc/usr/lib/libc.a(lib_a-mbrtowc.o)
 .debug_abbrev  0x0000000000013762      0x2d8 /opt/gcc-linaro-7.2.1-2017.11-x86_64_arm-eabi/arm-eabi/libc/usr/lib/libc.a(lib_a-mbtowc_r.o)
 .debug_abbrev  0x0000000000013a3a      0x1db /opt/gcc-linaro-7.2.1-2017.11-x86_64_arm-eabi/arm-eabi/libc/usr/lib/libc.a(lib_a-memchr-stub.o)
 .debug_abbrev  0x0000000000013c15      0x1d3 /opt/gcc-linaro-7.2.1-2017.11-x86_64_arm-eabi/arm-eabi/libc/usr/lib/libc.a(lib_a-mlock.o)
 .debug_abbrev  0x0000000000013de8      0x401 /opt/gcc-linaro-7.2.1-2017.11-x86_64_arm-eabi/arm-eabi/libc/usr/lib/libc.a(lib_a-mprec.o)
 .debug_abbrev  0x00000000000141e9      0x210 /opt/gcc-linaro-7.2.1-2017.11-x86_64_arm-eabi/arm-eabi/libc/usr/lib/libc.a(lib_a-readr.o)
 .debug_abbrev  0x00000000000143f9      0x281 /opt/gcc-linaro-7.2.1-2017.11-x86_64_arm-eabi/arm-eabi/libc/usr/lib/libc.a(lib_a-reent.o)
 .debug_abbrev  0x000000000001467a      0x245 /opt/gcc-linaro-7.2.1-2017.11-x86_64_arm-eabi/arm-eabi/libc/usr/lib/libc.a(lib_a-s_frexp.o)
 .debug_abbrev  0x00000000000148bf      0x215 /opt/gcc-linaro-7.2.1-2017.11-x86_64_arm-eabi/arm-eabi/libc/usr/lib/libc.a(lib_a-sbrkr.o)
 .debug_abbrev  0x0000000000014ad4      0x1f9 /opt/gcc-linaro-7.2.1-2017.11-x86_64_arm-eabi/arm-eabi/libc/usr/lib/libc.a(lib_a-sccl.o)
 .debug_abbrev  0x0000000000014ccd      0x1db /opt/gcc-linaro-7.2.1-2017.11-x86_64_arm-eabi/arm-eabi/libc/usr/lib/libc.a(lib_a-sf_nan.o)
 .debug_abbrev  0x0000000000014ea8      0x1ea /opt/gcc-linaro-7.2.1-2017.11-x86_64_arm-eabi/arm-eabi/libc/usr/lib/libc.a(lib_a-stpncpy.o)
 .debug_abbrev  0x0000000000015092      0x1fc /opt/gcc-linaro-7.2.1-2017.11-x86_64_arm-eabi/arm-eabi/libc/usr/lib/libc.a(lib_a-strcasecmp.o)
 .debug_abbrev  0x000000000001528e      0x1f5 /opt/gcc-linaro-7.2.1-2017.11-x86_64_arm-eabi/arm-eabi/libc/usr/lib/libc.a(lib_a-strcat.o)
 .debug_abbrev  0x0000000000015483      0x1c7 /opt/gcc-linaro-7.2.1-2017.11-x86_64_arm-eabi/arm-eabi/libc/usr/lib/libc.a(lib_a-strchr.o)
 .debug_abbrev  0x000000000001564a      0x1c5 /opt/gcc-linaro-7.2.1-2017.11-x86_64_arm-eabi/arm-eabi/libc/usr/lib/libc.a(lib_a-strlcpy.o)
 .debug_abbrev  0x000000000001580f      0x205 /opt/gcc-linaro-7.2.1-2017.11-x86_64_arm-eabi/arm-eabi/libc/usr/lib/libc.a(lib_a-strncasecmp.o)
 .debug_abbrev  0x0000000000015a14      0x3e9 /opt/gcc-linaro-7.2.1-2017.11-x86_64_arm-eabi/arm-eabi/libc/usr/lib/libc.a(lib_a-strtod.o)
 .debug_abbrev  0x0000000000015dfd      0x2d7 /opt/gcc-linaro-7.2.1-2017.11-x86_64_arm-eabi/arm-eabi/libc/usr/lib/libc.a(lib_a-strtoll.o)
 .debug_abbrev  0x00000000000160d4      0x2d7 /opt/gcc-linaro-7.2.1-2017.11-x86_64_arm-eabi/arm-eabi/libc/usr/lib/libc.a(lib_a-strtoull.o)
 .debug_abbrev  0x00000000000163ab      0x37e /opt/gcc-linaro-7.2.1-2017.11-x86_64_arm-eabi/arm-eabi/libc/usr/lib/libc.a(lib_a-svfiprintf.o)
 .debug_abbrev  0x0000000000016729      0x400 /opt/gcc-linaro-7.2.1-2017.11-x86_64_arm-eabi/arm-eabi/libc/usr/lib/libc.a(lib_a-svfiscanf.o)
 .debug_abbrev  0x0000000000016b29      0x518 /opt/gcc-linaro-7.2.1-2017.11-x86_64_arm-eabi/arm-eabi/libc/usr/lib/libc.a(lib_a-syscalls.o)
 .debug_abbrev  0x0000000000017041      0x2ff /opt/gcc-linaro-7.2.1-2017.11-x86_64_arm-eabi/arm-eabi/libc/usr/lib/libc.a(lib_a-ungetc.o)
 .debug_abbrev  0x0000000000017340      0x25e /opt/gcc-linaro-7.2.1-2017.11-x86_64_arm-eabi/arm-eabi/libc/usr/lib/libc.a(lib_a-wcsnrtombs.o)
 .debug_abbrev  0x000000000001759e      0x270 /opt/gcc-linaro-7.2.1-2017.11-x86_64_arm-eabi/arm-eabi/libc/usr/lib/libc.a(lib_a-wctomb_r.o)
 .debug_abbrev  0x000000000001780e      0x240 /opt/gcc-linaro-7.2.1-2017.11-x86_64_arm-eabi/arm-eabi/libc/usr/lib/libc.a(lib_a-callocr.o)
 .debug_abbrev  0x0000000000017a4e      0x1d9 /opt/gcc-linaro-7.2.1-2017.11-x86_64_arm-eabi/arm-eabi/libc/usr/lib/libc.a(lib_a-ctype_.o)
 .debug_abbrev  0x0000000000017c27      0x1ae /opt/gcc-linaro-7.2.1-2017.11-x86_64_arm-eabi/arm-eabi/libc/usr/lib/libc.a(lib_a-errno.o)
 .debug_abbrev  0x0000000000017dd5      0x2e2 /opt/gcc-linaro-7.2.1-2017.11-x86_64_arm-eabi/arm-eabi/libc/usr/lib/libc.a(lib_a-fflush.o)
 .debug_abbrev  0x00000000000180b7      0x3a8 /opt/gcc-linaro-7.2.1-2017.11-x86_64_arm-eabi/arm-eabi/libc/usr/lib/libc.a(lib_a-findfp.o)
 .debug_abbrev  0x000000000001845f      0x215 /opt/gcc-linaro-7.2.1-2017.11-x86_64_arm-eabi/arm-eabi/libc/usr/lib/libc.a(lib_a-fwalk.o)
 .debug_abbrev  0x0000000000018674      0x33a /opt/gcc-linaro-7.2.1-2017.11-x86_64_arm-eabi/arm-eabi/libc/usr/lib/libc.a(lib_a-gdtoa-gethex.o)
 .debug_abbrev  0x00000000000189ae      0x2c4 /opt/gcc-linaro-7.2.1-2017.11-x86_64_arm-eabi/arm-eabi/libc/usr/lib/libc.a(lib_a-gdtoa-hexnan.o)
 .debug_abbrev  0x0000000000018c72      0x21a /opt/gcc-linaro-7.2.1-2017.11-x86_64_arm-eabi/arm-eabi/libc/usr/lib/libc.a(lib_a-getenv_r.o)
 .debug_abbrev  0x0000000000018e8c      0x26c /opt/gcc-linaro-7.2.1-2017.11-x86_64_arm-eabi/arm-eabi/libc/usr/lib/libc.a(lib_a-reallocr.o)
 .debug_abbrev  0x00000000000190f8       0x56 /opt/gcc-linaro-7.2.1-2017.11-x86_64_arm-eabi/arm-eabi/libc/usr/lib/libc.a(lib_a-environ.o)
 .debug_abbrev  0x000000000001914e      0x1d7 /opt/gcc-linaro-7.2.1-2017.11-x86_64_arm-eabi/arm-eabi/libc/usr/lib/libc.a(lib_a-envlock.o)
 .debug_abbrev  0x0000000000019325      0x2d9 /opt/gcc-linaro-7.2.1-2017.11-x86_64_arm-eabi/arm-eabi/libc/usr/lib/libc.a(lib_a-fclose.o)
 .debug_abbrev  0x00000000000195fe      0x1f4 /opt/gcc-linaro-7.2.1-2017.11-x86_64_arm-eabi/arm-eabi/libc/usr/lib/libm.a(lib_a-sf_fabs.o)
 .debug_abbrev  0x00000000000197f2       0x14 /opt/gcc-linaro-7.2.1-2017.11-x86_64_arm-eabi/arm-eabi/libc/usr/lib/libgcc.a(_udivsi3.o)
 .debug_abbrev  0x0000000000019806       0x14 /opt/gcc-linaro-7.2.1-2017.11-x86_64_arm-eabi/arm-eabi/libc/usr/lib/libgcc.a(_dvmd_tls.o)
 .debug_abbrev  0x000000000001981a       0x14 /opt/gcc-linaro-7.2.1-2017.11-x86_64_arm-eabi/arm-eabi/libc/usr/lib/libgcc.a(_arm_addsubdf3.o)
 .debug_abbrev  0x000000000001982e       0x14 /opt/gcc-linaro-7.2.1-2017.11-x86_64_arm-eabi/arm-eabi/libc/usr/lib/libgcc.a(_arm_muldivdf3.o)
 .debug_abbrev  0x0000000000019842       0x14 /opt/gcc-linaro-7.2.1-2017.11-x86_64_arm-eabi/arm-eabi/libc/usr/lib/libgcc.a(_arm_cmpdf2.o)
 .debug_abbrev  0x0000000000019856       0x14 /opt/gcc-linaro-7.2.1-2017.11-x86_64_arm-eabi/arm-eabi/libc/usr/lib/libgcc.a(_arm_unorddf2.o)
 .debug_abbrev  0x000000000001986a       0x14 /opt/gcc-linaro-7.2.1-2017.11-x86_64_arm-eabi/arm-eabi/libc/usr/lib/libgcc.a(_arm_fixdfsi.o)
 .debug_abbrev  0x000000000001987e       0x14 /opt/gcc-linaro-7.2.1-2017.11-x86_64_arm-eabi/arm-eabi/libc/usr/lib/libgcc.a(_arm_fixunsdfsi.o)
 .debug_abbrev  0x0000000000019892       0x14 /opt/gcc-linaro-7.2.1-2017.11-x86_64_arm-eabi/arm-eabi/libc/usr/lib/libgcc.a(_arm_truncdfsf2.o)
 .debug_abbrev  0x00000000000198a6       0x14 /opt/gcc-linaro-7.2.1-2017.11-x86_64_arm-eabi/arm-eabi/libc/usr/lib/libgcc.a(_arm_cmpsf2.o)
 .debug_abbrev  0x00000000000198ba       0x14 /opt/gcc-linaro-7.2.1-2017.11-x86_64_arm-eabi/arm-eabi/libc/usr/lib/libgcc.a(_arm_unordsf2.o)
 .debug_abbrev  0x00000000000198ce       0x14 /opt/gcc-linaro-7.2.1-2017.11-x86_64_arm-eabi/arm-eabi/libc/usr/lib/libgcc.a(_aeabi_uldivmod.o)
 .debug_abbrev  0x00000000000198e2      0x21a /opt/gcc-linaro-7.2.1-2017.11-x86_64_arm-eabi/arm-eabi/libc/usr/lib/libgcc.a(_udivmoddi4.o)
 .debug_abbrev  0x0000000000019afc       0x14 /opt/gcc-linaro-7.2.1-2017.11-x86_64_arm-eabi/arm-eabi/libc/usr/lib/libgcc.a(_clzdi2.o)
 .debug_abbrev  0x0000000000019b10       0x14 /opt/gcc-linaro-7.2.1-2017.11-x86_64_arm-eabi/arm-eabi/libc/usr/lib/libgcc.a(_clzsi2.o)

.debug_loc      0x0000000000000000    0x3fcf4
 .debug_loc     0x0000000000000000       0xf4 ./../../../build/tcc70xx/gcc/tcc70xx-freertos-debug/obj/main.o
 .debug_loc     0x00000000000000f4      0x268 ./../../../build/tcc70xx/gcc/tcc70xx-freertos-debug/obj/can_demo.o
 .debug_loc     0x000000000000035c      0x5ec ./../../../build/tcc70xx/gcc/tcc70xx-freertos-debug/obj/can_vcp_ctrl.o
 .debug_loc     0x0000000000000948      0xb70 ./../../../build/tcc70xx/gcc/tcc70xx-freertos-debug/obj/console.o
 .debug_loc     0x00000000000014b8      0x5f4 ./../../../build/tcc70xx/gcc/tcc70xx-freertos-debug/obj/fwupdate.o
 .debug_loc     0x0000000000001aac       0x9c ./../../../build/tcc70xx/gcc/tcc70xx-freertos-debug/obj/idle.o
 .debug_loc     0x0000000000001b48      0x2a0 ./../../../build/tcc70xx/gcc/tcc70xx-freertos-debug/obj/iperf_task_v3_0d.o
 .debug_loc     0x0000000000001de8      0x194 ./../../../build/tcc70xx/gcc/tcc70xx-freertos-debug/obj/spi_led.o
 .debug_loc     0x0000000000001f7c      0x17c ./../../../build/tcc70xx/gcc/tcc70xx-freertos-debug/obj/audio_test.o
 .debug_loc     0x00000000000020f8       0xa8 ./../../../build/tcc70xx/gcc/tcc70xx-freertos-debug/obj/audio_chip_veri.o
 .debug_loc     0x00000000000021a0       0xe0 ./../../../build/tcc70xx/gcc/tcc70xx-freertos-debug/obj/wm8904.o
 .debug_loc     0x0000000000002280      0x174 ./../../../build/tcc70xx/gcc/tcc70xx-freertos-debug/obj/cpu_test.o
 .debug_loc     0x00000000000023f4      0x130 ./../../../build/tcc70xx/gcc/tcc70xx-freertos-debug/obj/dse_test.o
 .debug_loc     0x0000000000002524      0x440 ./../../../build/tcc70xx/gcc/tcc70xx-freertos-debug/obj/eflash_test.o
 .debug_loc     0x0000000000002964      0x188 ./../../../build/tcc70xx/gcc/tcc70xx-freertos-debug/obj/fmu_test.o
 .debug_loc     0x0000000000002aec       0x38 ./../../../build/tcc70xx/gcc/tcc70xx-freertos-debug/obj/gdma_test.o
 .debug_loc     0x0000000000002b24       0xa8 ./../../../build/tcc70xx/gcc/tcc70xx-freertos-debug/obj/gic_test.o
 .debug_loc     0x0000000000002bcc      0x9bc ./../../../build/tcc70xx/gcc/tcc70xx-freertos-debug/obj/gpio_test.o
 .debug_loc     0x0000000000003588      0x374 ./../../../build/tcc70xx/gcc/tcc70xx-freertos-debug/obj/gpsb_test.o
 .debug_loc     0x00000000000038fc      0x6bc ./../../../build/tcc70xx/gcc/tcc70xx-freertos-debug/obj/hsm_test.o
 .debug_loc     0x0000000000003fb8      0x1b4 ./../../../build/tcc70xx/gcc/tcc70xx-freertos-debug/obj/i2c_test.o
 .debug_loc     0x000000000000416c      0x2cc ./../../../build/tcc70xx/gcc/tcc70xx-freertos-debug/obj/ictc_test.o
 .debug_loc     0x0000000000004438      0x138 ./../../../build/tcc70xx/gcc/tcc70xx-freertos-debug/obj/lin_test.o
 .debug_loc     0x0000000000004570      0x17c ./../../../build/tcc70xx/gcc/tcc70xx-freertos-debug/obj/pdm_test.o
 .debug_loc     0x00000000000046ec      0x10c ./../../../build/tcc70xx/gcc/tcc70xx-freertos-debug/obj/pmu_test.o
 .debug_loc     0x00000000000047f8       0xa8 ./../../../build/tcc70xx/gcc/tcc70xx-freertos-debug/obj/rtc_test.o
 .debug_loc     0x00000000000048a0       0x9c ./../../../build/tcc70xx/gcc/tcc70xx-freertos-debug/obj/sfmc_test.o
 .debug_loc     0x000000000000493c       0xa8 ./../../../build/tcc70xx/gcc/tcc70xx-freertos-debug/obj/echo_test.o
 .debug_loc     0x00000000000049e4      0x3ac ./../../../build/tcc70xx/gcc/tcc70xx-freertos-debug/obj/timer_test.o
 .debug_loc     0x0000000000004d90      0x248 ./../../../build/tcc70xx/gcc/tcc70xx-freertos-debug/obj/uart_test.o
 .debug_loc     0x0000000000004fd8      0x5b8 ./../../../build/tcc70xx/gcc/tcc70xx-freertos-debug/obj/wdt_test.o
 .debug_loc     0x0000000000005590      0x278 ./../../../build/tcc70xx/gcc/tcc70xx-freertos-debug/obj/writelock_test.o
 .debug_loc     0x0000000000005808      0x10c ./../../../build/tcc70xx/gcc/tcc70xx-freertos-debug/obj/eth_test.o
 .debug_loc     0x0000000000005914      0x2b4 ./../../../build/tcc70xx/gcc/tcc70xx-freertos-debug/obj/spu_test.o
 .debug_loc     0x0000000000005bc8      0x158 ./../../../build/tcc70xx/gcc/tcc70xx-freertos-debug/obj/power_app.o
 .debug_loc     0x0000000000005d20      0x348 ./../../../build/tcc70xx/gcc/tcc70xx-freertos-debug/obj/power_com.o
 .debug_loc     0x0000000000006068      0x3f0 ./../../../build/tcc70xx/gcc/tcc70xx-freertos-debug/obj/spi_eccp.o
 .debug_loc     0x0000000000006458      0x658 ./../../../build/tcc70xx/gcc/tcc70xx-freertos-debug/obj/hsm_manager.o
 .debug_loc     0x0000000000006ab0      0x514 ./../../../build/tcc70xx/gcc/tcc70xx-freertos-debug/obj/lin.o
 .debug_loc     0x0000000000006fc4      0x198 ./../../../build/tcc70xx/gcc/tcc70xx-freertos-debug/obj/swl.o
 .debug_loc     0x000000000000715c      0x2c4 ./../../../build/tcc70xx/gcc/tcc70xx-freertos-debug/obj/adc.o
 .debug_loc     0x0000000000007420      0x378 ./../../../build/tcc70xx/gcc/tcc70xx-freertos-debug/obj/can.o
 .debug_loc     0x0000000000007798      0x978 ./../../../build/tcc70xx/gcc/tcc70xx-freertos-debug/obj/can_drv.o
 .debug_loc     0x0000000000008110      0x3c8 ./../../../build/tcc70xx/gcc/tcc70xx-freertos-debug/obj/can_msg.o
 .debug_loc     0x00000000000084d8      0x840 ./../../../build/tcc70xx/gcc/tcc70xx-freertos-debug/obj/can_porting.o
 .debug_loc     0x0000000000008d18      0x640 ./../../../build/tcc70xx/gcc/tcc70xx-freertos-debug/obj/clock_dev.o
 .debug_loc     0x0000000000009358      0x180 ./../../../build/tcc70xx/gcc/tcc70xx-freertos-debug/obj/debug.o
 .debug_loc     0x00000000000094d8       0xf4 ./../../../build/tcc70xx/gcc/tcc70xx-freertos-debug/obj/bsp.o
 .debug_loc     0x00000000000095cc      0x1a0 ./../../../build/tcc70xx/gcc/tcc70xx-freertos-debug/obj/dse.o
 .debug_loc     0x000000000000976c      0x440 ./../../../build/tcc70xx/gcc/tcc70xx-freertos-debug/obj/eflash.o
 .debug_loc     0x0000000000009bac      0x980 ./../../../build/tcc70xx/gcc/tcc70xx-freertos-debug/obj/eth.o
 .debug_loc     0x000000000000a52c      0x3c4 ./../../../build/tcc70xx/gcc/tcc70xx-freertos-debug/obj/eth_mii.o
 .debug_loc     0x000000000000a8f0      0x334 ./../../../build/tcc70xx/gcc/tcc70xx-freertos-debug/obj/fmu.o
 .debug_loc     0x000000000000ac24      0x440 ./../../../build/tcc70xx/gcc/tcc70xx-freertos-debug/obj/gdma.o
 .debug_loc     0x000000000000b064      0x398 ./../../../build/tcc70xx/gcc/tcc70xx-freertos-debug/obj/gic.o
 .debug_loc     0x000000000000b3fc      0x1f0 ./../../../build/tcc70xx/gcc/tcc70xx-freertos-debug/obj/gpio.o
 .debug_loc     0x000000000000b5ec      0xf94 ./../../../build/tcc70xx/gcc/tcc70xx-freertos-debug/obj/gpsb.o
 .debug_loc     0x000000000000c580      0x914 ./../../../build/tcc70xx/gcc/tcc70xx-freertos-debug/obj/i2c.o
 .debug_loc     0x000000000000ce94      0xa2c ./../../../build/tcc70xx/gcc/tcc70xx-freertos-debug/obj/i2s.o
 .debug_loc     0x000000000000d8c0      0x544 ./../../../build/tcc70xx/gcc/tcc70xx-freertos-debug/obj/ictc.o
 .debug_loc     0x000000000000de04      0x104 ./../../../build/tcc70xx/gcc/tcc70xx-freertos-debug/obj/mbox.o
 .debug_loc     0x000000000000df08       0xcc ./../../../build/tcc70xx/gcc/tcc70xx-freertos-debug/obj/midf.o
 .debug_loc     0x000000000000dfd4      0x13c ./../../../build/tcc70xx/gcc/tcc70xx-freertos-debug/obj/mpu.o
 .debug_loc     0x000000000000e110       0x88 ./../../../build/tcc70xx/gcc/tcc70xx-freertos-debug/obj/preload.o
 .debug_loc     0x000000000000e198      0x648 ./../../../build/tcc70xx/gcc/tcc70xx-freertos-debug/obj/pdm.o
 .debug_loc     0x000000000000e7e0      0x464 ./../../../build/tcc70xx/gcc/tcc70xx-freertos-debug/obj/pmio_dev.o
 .debug_loc     0x000000000000ec44      0x1d0 ./../../../build/tcc70xx/gcc/tcc70xx-freertos-debug/obj/pmio_dev_extn_pw_ctl.o
 .debug_loc     0x000000000000ee14      0x23c ./../../../build/tcc70xx/gcc/tcc70xx-freertos-debug/obj/pmu.o
 .debug_loc     0x000000000000f050      0x1f8 ./../../../build/tcc70xx/gcc/tcc70xx-freertos-debug/obj/rtc_dev.o
 .debug_loc     0x000000000000f248      0xc20 ./../../../build/tcc70xx/gcc/tcc70xx-freertos-debug/obj/snor_mio.o
 .debug_loc     0x000000000000fe68      0x938 ./../../../build/tcc70xx/gcc/tcc70xx-freertos-debug/obj/spu.o
 .debug_loc     0x00000000000107a0      0x1f8 ./../../../build/tcc70xx/gcc/tcc70xx-freertos-debug/obj/ssm.o
 .debug_loc     0x0000000000010998      0x2c4 ./../../../build/tcc70xx/gcc/tcc70xx-freertos-debug/obj/timer.o
 .debug_loc     0x0000000000010c5c      0x9d0 ./../../../build/tcc70xx/gcc/tcc70xx-freertos-debug/obj/uart.o
 .debug_loc     0x000000000001162c      0x264 ./../../../build/tcc70xx/gcc/tcc70xx-freertos-debug/obj/wdt.o
 .debug_loc     0x0000000000011890      0x264 ./../../../build/tcc70xx/gcc/tcc70xx-freertos-debug/obj/wdt_pmu.o
 .debug_loc     0x0000000000011af4      0xd28 ./../../../build/tcc70xx/gcc/tcc70xx-freertos-debug/obj/tasks.o
 .debug_loc     0x000000000001281c      0x154 ./../../../build/tcc70xx/gcc/tcc70xx-freertos-debug/obj/list.o
 .debug_loc     0x0000000000012970      0x9c8 ./../../../build/tcc70xx/gcc/tcc70xx-freertos-debug/obj/queue.o
 .debug_loc     0x0000000000013338      0x274 ./../../../build/tcc70xx/gcc/tcc70xx-freertos-debug/obj/event_groups.o
 .debug_loc     0x00000000000135ac      0x5a8 ./../../../build/tcc70xx/gcc/tcc70xx-freertos-debug/obj/timers.o
 .debug_loc     0x0000000000013b54      0x500 ./../../../build/tcc70xx/gcc/tcc70xx-freertos-debug/obj/stream_buffer.o
 .debug_loc     0x0000000000014054      0x4c0 ./../../../build/tcc70xx/gcc/tcc70xx-freertos-debug/obj/port.o
 .debug_loc     0x0000000000014514      0x1b8 ./../../../build/tcc70xx/gcc/tcc70xx-freertos-debug/obj/heap_5.o
 .debug_loc     0x00000000000146cc      0x1e0 ./../../../build/tcc70xx/gcc/tcc70xx-freertos-debug/obj/FreeRTOS_ARP.o
 .debug_loc     0x00000000000148ac      0x360 ./../../../build/tcc70xx/gcc/tcc70xx-freertos-debug/obj/FreeRTOS_DNS.o
 .debug_loc     0x0000000000014c0c      0x9e4 ./../../../build/tcc70xx/gcc/tcc70xx-freertos-debug/obj/FreeRTOS_IP.o
 .debug_loc     0x00000000000155f0      0xe74 ./../../../build/tcc70xx/gcc/tcc70xx-freertos-debug/obj/FreeRTOS_Sockets.o
 .debug_loc     0x0000000000016464      0x1f0 ./../../../build/tcc70xx/gcc/tcc70xx-freertos-debug/obj/FreeRTOS_Stream_Buffer.o
 .debug_loc     0x0000000000016654      0xa88 ./../../../build/tcc70xx/gcc/tcc70xx-freertos-debug/obj/FreeRTOS_TCP_IP.o
 .debug_loc     0x00000000000170dc      0x7bc ./../../../build/tcc70xx/gcc/tcc70xx-freertos-debug/obj/FreeRTOS_TCP_WIN.o
 .debug_loc     0x0000000000017898       0x70 ./../../../build/tcc70xx/gcc/tcc70xx-freertos-debug/obj/FreeRTOS_UDP_IP.o
 .debug_loc     0x0000000000017908      0x174 ./../../../build/tcc70xx/gcc/tcc70xx-freertos-debug/obj/FreeRTOS_Port.o
 .debug_loc     0x0000000000017a7c      0x26c ./../../../build/tcc70xx/gcc/tcc70xx-freertos-debug/obj/BufferAllocation_1.o
 .debug_loc     0x0000000000017ce8      0x144 ./../../../build/tcc70xx/gcc/tcc70xx-freertos-debug/obj/NetworkInterface.o
 .debug_loc     0x0000000000017e2c       0x38 ./../../../build/tcc70xx/gcc/tcc70xx-freertos-debug/obj/sal_api.o
 .debug_loc     0x0000000000017e64      0x6b8 ./../../../build/tcc70xx/gcc/tcc70xx-freertos-debug/obj/sal_freertos_impl.o
 .debug_loc     0x000000000001851c       0x63 /opt/gcc-linaro-7.2.1-2017.11-x86_64_arm-eabi/arm-eabi/libc/usr/lib/libc.a(lib_a-atoi.o)
 .debug_loc     0x000000000001857f      0x2b6 /opt/gcc-linaro-7.2.1-2017.11-x86_64_arm-eabi/arm-eabi/libc/usr/lib/libc.a(lib_a-memcmp.o)
 .debug_loc     0x0000000000018835      0x1be /opt/gcc-linaro-7.2.1-2017.11-x86_64_arm-eabi/arm-eabi/libc/usr/lib/libc.a(lib_a-memcpy-stub.o)
 .debug_loc     0x00000000000189f3      0x223 /opt/gcc-linaro-7.2.1-2017.11-x86_64_arm-eabi/arm-eabi/libc/usr/lib/libc.a(lib_a-memmove.o)
 .debug_loc     0x0000000000018c16      0x200 /opt/gcc-linaro-7.2.1-2017.11-x86_64_arm-eabi/arm-eabi/libc/usr/lib/libc.a(lib_a-memset.o)
 .debug_loc     0x0000000000018e16      0x199 /opt/gcc-linaro-7.2.1-2017.11-x86_64_arm-eabi/arm-eabi/libc/usr/lib/libc.a(lib_a-snprintf.o)
 .debug_loc     0x0000000000018faf       0x88 /opt/gcc-linaro-7.2.1-2017.11-x86_64_arm-eabi/arm-eabi/libc/usr/lib/libc.a(lib_a-sprintf.o)
 .debug_loc     0x0000000000019037       0x6e /opt/gcc-linaro-7.2.1-2017.11-x86_64_arm-eabi/arm-eabi/libc/usr/lib/libc.a(lib_a-sscanf.o)
 .debug_loc     0x00000000000190a5      0x2d6 /opt/gcc-linaro-7.2.1-2017.11-x86_64_arm-eabi/arm-eabi/libc/usr/lib/libc.a(lib_a-stdio.o)
 .debug_loc     0x000000000001937b       0x21 /opt/gcc-linaro-7.2.1-2017.11-x86_64_arm-eabi/arm-eabi/libc/usr/lib/libc.a(lib_a-strcpy.o)
 .debug_loc     0x000000000001939c       0x21 /opt/gcc-linaro-7.2.1-2017.11-x86_64_arm-eabi/arm-eabi/libc/usr/lib/libc.a(lib_a-strlen-stub.o)
 .debug_loc     0x00000000000193bd      0x150 /opt/gcc-linaro-7.2.1-2017.11-x86_64_arm-eabi/arm-eabi/libc/usr/lib/libc.a(lib_a-strncmp.o)
 .debug_loc     0x000000000001950d      0x128 /opt/gcc-linaro-7.2.1-2017.11-x86_64_arm-eabi/arm-eabi/libc/usr/lib/libc.a(lib_a-strncpy.o)
 .debug_loc     0x0000000000019635      0x14f /opt/gcc-linaro-7.2.1-2017.11-x86_64_arm-eabi/arm-eabi/libc/usr/lib/libc.a(lib_a-strnlen.o)
 .debug_loc     0x0000000000019784      0x49e /opt/gcc-linaro-7.2.1-2017.11-x86_64_arm-eabi/arm-eabi/libc/usr/lib/libc.a(lib_a-strtol.o)
 .debug_loc     0x0000000000019c22      0x496 /opt/gcc-linaro-7.2.1-2017.11-x86_64_arm-eabi/arm-eabi/libc/usr/lib/libc.a(lib_a-strtoul.o)
 .debug_loc     0x000000000001a0b8     0x8c37 /opt/gcc-linaro-7.2.1-2017.11-x86_64_arm-eabi/arm-eabi/libc/usr/lib/libc.a(lib_a-svfprintf.o)
 .debug_loc     0x0000000000022cef     0x32a6 /opt/gcc-linaro-7.2.1-2017.11-x86_64_arm-eabi/arm-eabi/libc/usr/lib/libc.a(lib_a-svfscanf.o)
 .debug_loc     0x0000000000025f95      0x250 /opt/gcc-linaro-7.2.1-2017.11-x86_64_arm-eabi/arm-eabi/libc/usr/lib/libc.a(lib_a-wcrtomb.o)
 .debug_loc     0x00000000000261e5      0x142 /opt/gcc-linaro-7.2.1-2017.11-x86_64_arm-eabi/arm-eabi/libc/usr/lib/libc.a(lib_a-wcsrtombs.o)
 .debug_loc     0x0000000000026327       0xa5 /opt/gcc-linaro-7.2.1-2017.11-x86_64_arm-eabi/arm-eabi/libc/usr/lib/libc.a(lib_a-writer.o)
 .debug_loc     0x00000000000263cc       0x4d /opt/gcc-linaro-7.2.1-2017.11-x86_64_arm-eabi/arm-eabi/libc/usr/lib/libc.a(lib_a-closer.o)
 .debug_loc     0x0000000000026419     0x26a5 /opt/gcc-linaro-7.2.1-2017.11-x86_64_arm-eabi/arm-eabi/libc/usr/lib/libc.a(lib_a-dtoa.o)
 .debug_loc     0x0000000000028abe      0x4b2 /opt/gcc-linaro-7.2.1-2017.11-x86_64_arm-eabi/arm-eabi/libc/usr/lib/libc.a(lib_a-freer.o)
 .debug_loc     0x0000000000028f70       0x46 /opt/gcc-linaro-7.2.1-2017.11-x86_64_arm-eabi/arm-eabi/libc/usr/lib/libc.a(lib_a-iswspace.o)
 .debug_loc     0x0000000000028fb6      0x31e /opt/gcc-linaro-7.2.1-2017.11-x86_64_arm-eabi/arm-eabi/libc/usr/lib/libc.a(lib_a-jp2uc.o)
 .debug_loc     0x00000000000292d4      0x9e8 /opt/gcc-linaro-7.2.1-2017.11-x86_64_arm-eabi/arm-eabi/libc/usr/lib/libc.a(lib_a-locale.o)
 .debug_loc     0x0000000000029cbc       0x63 /opt/gcc-linaro-7.2.1-2017.11-x86_64_arm-eabi/arm-eabi/libc/usr/lib/libc.a(lib_a-localeconv.o)
 .debug_loc     0x0000000000029d1f       0xa5 /opt/gcc-linaro-7.2.1-2017.11-x86_64_arm-eabi/arm-eabi/libc/usr/lib/libc.a(lib_a-lseekr.o)
 .debug_loc     0x0000000000029dc4      0xb21 /opt/gcc-linaro-7.2.1-2017.11-x86_64_arm-eabi/arm-eabi/libc/usr/lib/libc.a(lib_a-mallocr.o)
 .debug_loc     0x000000000002a8e5      0x2ba /opt/gcc-linaro-7.2.1-2017.11-x86_64_arm-eabi/arm-eabi/libc/usr/lib/libc.a(lib_a-mbrtowc.o)
 .debug_loc     0x000000000002ab9f      0xc4f /opt/gcc-linaro-7.2.1-2017.11-x86_64_arm-eabi/arm-eabi/libc/usr/lib/libc.a(lib_a-mbtowc_r.o)
 .debug_loc     0x000000000002b7ee      0x1cd /opt/gcc-linaro-7.2.1-2017.11-x86_64_arm-eabi/arm-eabi/libc/usr/lib/libc.a(lib_a-memchr-stub.o)
 .debug_loc     0x000000000002b9bb     0x2457 /opt/gcc-linaro-7.2.1-2017.11-x86_64_arm-eabi/arm-eabi/libc/usr/lib/libc.a(lib_a-mprec.o)
 .debug_loc     0x000000000002de12       0xa5 /opt/gcc-linaro-7.2.1-2017.11-x86_64_arm-eabi/arm-eabi/libc/usr/lib/libc.a(lib_a-readr.o)
 .debug_loc     0x000000000002deb7      0x136 /opt/gcc-linaro-7.2.1-2017.11-x86_64_arm-eabi/arm-eabi/libc/usr/lib/libc.a(lib_a-reent.o)
 .debug_loc     0x000000000002dfed       0xe4 /opt/gcc-linaro-7.2.1-2017.11-x86_64_arm-eabi/arm-eabi/libc/usr/lib/libc.a(lib_a-s_frexp.o)
 .debug_loc     0x000000000002e0d1       0x4d /opt/gcc-linaro-7.2.1-2017.11-x86_64_arm-eabi/arm-eabi/libc/usr/lib/libc.a(lib_a-sbrkr.o)
 .debug_loc     0x000000000002e11e      0x146 /opt/gcc-linaro-7.2.1-2017.11-x86_64_arm-eabi/arm-eabi/libc/usr/lib/libc.a(lib_a-sccl.o)
 .debug_loc     0x000000000002e264       0x21 /opt/gcc-linaro-7.2.1-2017.11-x86_64_arm-eabi/arm-eabi/libc/usr/lib/libc.a(lib_a-sf_nan.o)
 .debug_loc     0x000000000002e285      0x16e /opt/gcc-linaro-7.2.1-2017.11-x86_64_arm-eabi/arm-eabi/libc/usr/lib/libc.a(lib_a-stpncpy.o)
 .debug_loc     0x000000000002e3f3      0x130 /opt/gcc-linaro-7.2.1-2017.11-x86_64_arm-eabi/arm-eabi/libc/usr/lib/libc.a(lib_a-strcasecmp.o)
 .debug_loc     0x000000000002e523       0xa0 /opt/gcc-linaro-7.2.1-2017.11-x86_64_arm-eabi/arm-eabi/libc/usr/lib/libc.a(lib_a-strcat.o)
 .debug_loc     0x000000000002e5c3      0x21f /opt/gcc-linaro-7.2.1-2017.11-x86_64_arm-eabi/arm-eabi/libc/usr/lib/libc.a(lib_a-strchr.o)
 .debug_loc     0x000000000002e7e2      0x10b /opt/gcc-linaro-7.2.1-2017.11-x86_64_arm-eabi/arm-eabi/libc/usr/lib/libc.a(lib_a-strlcpy.o)
 .debug_loc     0x000000000002e8ed      0x196 /opt/gcc-linaro-7.2.1-2017.11-x86_64_arm-eabi/arm-eabi/libc/usr/lib/libc.a(lib_a-strncasecmp.o)
 .debug_loc     0x000000000002ea83     0x1e35 /opt/gcc-linaro-7.2.1-2017.11-x86_64_arm-eabi/arm-eabi/libc/usr/lib/libc.a(lib_a-strtod.o)
 .debug_loc     0x00000000000308b8      0x541 /opt/gcc-linaro-7.2.1-2017.11-x86_64_arm-eabi/arm-eabi/libc/usr/lib/libc.a(lib_a-strtoll.o)
 .debug_loc     0x0000000000030df9      0x4b5 /opt/gcc-linaro-7.2.1-2017.11-x86_64_arm-eabi/arm-eabi/libc/usr/lib/libc.a(lib_a-strtoull.o)
 .debug_loc     0x00000000000312ae     0x751b /opt/gcc-linaro-7.2.1-2017.11-x86_64_arm-eabi/arm-eabi/libc/usr/lib/libc.a(lib_a-svfiprintf.o)
 .debug_loc     0x00000000000387c9     0x22d5 /opt/gcc-linaro-7.2.1-2017.11-x86_64_arm-eabi/arm-eabi/libc/usr/lib/libc.a(lib_a-svfiscanf.o)
 .debug_loc     0x000000000003aa9e     0x125f /opt/gcc-linaro-7.2.1-2017.11-x86_64_arm-eabi/arm-eabi/libc/usr/lib/libc.a(lib_a-syscalls.o)
 .debug_loc     0x000000000003bcfd      0x2c9 /opt/gcc-linaro-7.2.1-2017.11-x86_64_arm-eabi/arm-eabi/libc/usr/lib/libc.a(lib_a-ungetc.o)
 .debug_loc     0x000000000003bfc6      0x5d8 /opt/gcc-linaro-7.2.1-2017.11-x86_64_arm-eabi/arm-eabi/libc/usr/lib/libc.a(lib_a-wcsnrtombs.o)
 .debug_loc     0x000000000003c59e      0x86a /opt/gcc-linaro-7.2.1-2017.11-x86_64_arm-eabi/arm-eabi/libc/usr/lib/libc.a(lib_a-wctomb_r.o)
 .debug_loc     0x000000000003ce08      0x201 /opt/gcc-linaro-7.2.1-2017.11-x86_64_arm-eabi/arm-eabi/libc/usr/lib/libc.a(lib_a-callocr.o)
 .debug_loc     0x000000000003d009      0x342 /opt/gcc-linaro-7.2.1-2017.11-x86_64_arm-eabi/arm-eabi/libc/usr/lib/libc.a(lib_a-fflush.o)
 .debug_loc     0x000000000003d34b      0x331 /opt/gcc-linaro-7.2.1-2017.11-x86_64_arm-eabi/arm-eabi/libc/usr/lib/libc.a(lib_a-findfp.o)
 .debug_loc     0x000000000003d67c      0x1c1 /opt/gcc-linaro-7.2.1-2017.11-x86_64_arm-eabi/arm-eabi/libc/usr/lib/libc.a(lib_a-fwalk.o)
 .debug_loc     0x000000000003d83d      0xe09 /opt/gcc-linaro-7.2.1-2017.11-x86_64_arm-eabi/arm-eabi/libc/usr/lib/libc.a(lib_a-gdtoa-gethex.o)
 .debug_loc     0x000000000003e646      0x5bb /opt/gcc-linaro-7.2.1-2017.11-x86_64_arm-eabi/arm-eabi/libc/usr/lib/libc.a(lib_a-gdtoa-hexnan.o)
 .debug_loc     0x000000000003ec01      0x1a6 /opt/gcc-linaro-7.2.1-2017.11-x86_64_arm-eabi/arm-eabi/libc/usr/lib/libc.a(lib_a-getenv_r.o)
 .debug_loc     0x000000000003eda7      0xbe9 /opt/gcc-linaro-7.2.1-2017.11-x86_64_arm-eabi/arm-eabi/libc/usr/lib/libc.a(lib_a-reallocr.o)
 .debug_loc     0x000000000003f990      0x17e /opt/gcc-linaro-7.2.1-2017.11-x86_64_arm-eabi/arm-eabi/libc/usr/lib/libc.a(lib_a-fclose.o)
 .debug_loc     0x000000000003fb0e       0x3b /opt/gcc-linaro-7.2.1-2017.11-x86_64_arm-eabi/arm-eabi/libc/usr/lib/libm.a(lib_a-sf_fabs.o)
 .debug_loc     0x000000000003fb49      0x1ab /opt/gcc-linaro-7.2.1-2017.11-x86_64_arm-eabi/arm-eabi/libc/usr/lib/libgcc.a(_udivmoddi4.o)

.debug_aranges  0x0000000000000000     0x1858
 .debug_aranges
                0x0000000000000000       0x20 ./../../../build/tcc70xx/gcc/tcc70xx-freertos-debug/obj/main.o
 .debug_aranges
                0x0000000000000020       0x20 ./../../../build/tcc70xx/gcc/tcc70xx-freertos-debug/obj/can_demo.o
 .debug_aranges
                0x0000000000000040       0x20 ./../../../build/tcc70xx/gcc/tcc70xx-freertos-debug/obj/can_vcp_ctrl.o
 .debug_aranges
                0x0000000000000060       0x20 ./../../../build/tcc70xx/gcc/tcc70xx-freertos-debug/obj/console.o
 .debug_aranges
                0x0000000000000080       0x20 ./../../../build/tcc70xx/gcc/tcc70xx-freertos-debug/obj/fwupdate.o
 .debug_aranges
                0x00000000000000a0       0x20 ./../../../build/tcc70xx/gcc/tcc70xx-freertos-debug/obj/idle.o
 .debug_aranges
                0x00000000000000c0       0x20 ./../../../build/tcc70xx/gcc/tcc70xx-freertos-debug/obj/iperf_task_v3_0d.o
 .debug_aranges
                0x00000000000000e0       0x20 ./../../../build/tcc70xx/gcc/tcc70xx-freertos-debug/obj/spi_led.o
 .debug_aranges
                0x0000000000000100       0x20 ./../../../build/tcc70xx/gcc/tcc70xx-freertos-debug/obj/audio_test.o
 .debug_aranges
                0x0000000000000120       0x20 ./../../../build/tcc70xx/gcc/tcc70xx-freertos-debug/obj/audio_chip_veri.o
 .debug_aranges
                0x0000000000000140       0x20 ./../../../build/tcc70xx/gcc/tcc70xx-freertos-debug/obj/wm8904.o
 .debug_aranges
                0x0000000000000160       0x20 ./../../../build/tcc70xx/gcc/tcc70xx-freertos-debug/obj/cpu_test.o
 .debug_aranges
                0x0000000000000180       0x20 ./../../../build/tcc70xx/gcc/tcc70xx-freertos-debug/obj/dse_test.o
 .debug_aranges
                0x00000000000001a0       0x20 ./../../../build/tcc70xx/gcc/tcc70xx-freertos-debug/obj/eflash_test.o
 .debug_aranges
                0x00000000000001c0       0x20 ./../../../build/tcc70xx/gcc/tcc70xx-freertos-debug/obj/fmu_test.o
 .debug_aranges
                0x00000000000001e0       0x20 ./../../../build/tcc70xx/gcc/tcc70xx-freertos-debug/obj/gdma_test.o
 .debug_aranges
                0x0000000000000200       0x18 ./../../../build/tcc70xx/gcc/tcc70xx-freertos-debug/obj/gdma_ip_test.o
 .debug_aranges
                0x0000000000000218       0x20 ./../../../build/tcc70xx/gcc/tcc70xx-freertos-debug/obj/gic_test.o
 .debug_aranges
                0x0000000000000238       0x20 ./../../../build/tcc70xx/gcc/tcc70xx-freertos-debug/obj/gpio_test.o
 .debug_aranges
                0x0000000000000258       0x20 ./../../../build/tcc70xx/gcc/tcc70xx-freertos-debug/obj/gpsb_test.o
 .debug_aranges
                0x0000000000000278       0x20 ./../../../build/tcc70xx/gcc/tcc70xx-freertos-debug/obj/hsm_test.o
 .debug_aranges
                0x0000000000000298       0x20 ./../../../build/tcc70xx/gcc/tcc70xx-freertos-debug/obj/i2c_test.o
 .debug_aranges
                0x00000000000002b8       0x20 ./../../../build/tcc70xx/gcc/tcc70xx-freertos-debug/obj/ictc_test.o
 .debug_aranges
                0x00000000000002d8       0x20 ./../../../build/tcc70xx/gcc/tcc70xx-freertos-debug/obj/lin_test.o
 .debug_aranges
                0x00000000000002f8       0x20 ./../../../build/tcc70xx/gcc/tcc70xx-freertos-debug/obj/pdm_test.o
 .debug_aranges
                0x0000000000000318       0x20 ./../../../build/tcc70xx/gcc/tcc70xx-freertos-debug/obj/pmu_test.o
 .debug_aranges
                0x0000000000000338       0x20 ./../../../build/tcc70xx/gcc/tcc70xx-freertos-debug/obj/rtc_test.o
 .debug_aranges
                0x0000000000000358       0x20 ./../../../build/tcc70xx/gcc/tcc70xx-freertos-debug/obj/sfmc_test.o
 .debug_aranges
                0x0000000000000378       0x20 ./../../../build/tcc70xx/gcc/tcc70xx-freertos-debug/obj/echo_test.o
 .debug_aranges
                0x0000000000000398       0x20 ./../../../build/tcc70xx/gcc/tcc70xx-freertos-debug/obj/timer_test.o
 .debug_aranges
                0x00000000000003b8       0x20 ./../../../build/tcc70xx/gcc/tcc70xx-freertos-debug/obj/uart_test.o
 .debug_aranges
                0x00000000000003d8       0x20 ./../../../build/tcc70xx/gcc/tcc70xx-freertos-debug/obj/wdt_test.o
 .debug_aranges
                0x00000000000003f8       0x20 ./../../../build/tcc70xx/gcc/tcc70xx-freertos-debug/obj/writelock_test.o
 .debug_aranges
                0x0000000000000418       0x20 ./../../../build/tcc70xx/gcc/tcc70xx-freertos-debug/obj/eth_test.o
 .debug_aranges
                0x0000000000000438       0x20 ./../../../build/tcc70xx/gcc/tcc70xx-freertos-debug/obj/spu_test.o
 .debug_aranges
                0x0000000000000458       0x20 ./../../../build/tcc70xx/gcc/tcc70xx-freertos-debug/obj/power_app.o
 .debug_aranges
                0x0000000000000478       0x20 ./../../../build/tcc70xx/gcc/tcc70xx-freertos-debug/obj/power_com.o
 .debug_aranges
                0x0000000000000498       0x20 ./../../../build/tcc70xx/gcc/tcc70xx-freertos-debug/obj/spi_eccp.o
 .debug_aranges
                0x00000000000004b8       0x20 ./../../../build/tcc70xx/gcc/tcc70xx-freertos-debug/obj/hsm_manager.o
 .debug_aranges
                0x00000000000004d8       0x20 ./../../../build/tcc70xx/gcc/tcc70xx-freertos-debug/obj/lin.o
 .debug_aranges
                0x00000000000004f8       0x20 ./../../../build/tcc70xx/gcc/tcc70xx-freertos-debug/obj/swl.o
 .debug_aranges
                0x0000000000000518       0x20 ./../../../build/tcc70xx/gcc/tcc70xx-freertos-debug/obj/adc.o
 .debug_aranges
                0x0000000000000538       0x20 ./../../../build/tcc70xx/gcc/tcc70xx-freertos-debug/obj/can.o
 .debug_aranges
                0x0000000000000558       0x20 ./../../../build/tcc70xx/gcc/tcc70xx-freertos-debug/obj/can_drv.o
 .debug_aranges
                0x0000000000000578       0x20 ./../../../build/tcc70xx/gcc/tcc70xx-freertos-debug/obj/can_msg.o
 .debug_aranges
                0x0000000000000598       0x18 ./../../../build/tcc70xx/gcc/tcc70xx-freertos-debug/obj/can_par.o
 .debug_aranges
                0x00000000000005b0       0x20 ./../../../build/tcc70xx/gcc/tcc70xx-freertos-debug/obj/can_porting.o
 .debug_aranges
                0x00000000000005d0       0x20 ./../../../build/tcc70xx/gcc/tcc70xx-freertos-debug/obj/clock_dev.o
 .debug_aranges
                0x00000000000005f0       0x20 ./../../../build/tcc70xx/gcc/tcc70xx-freertos-debug/obj/debug.o
 .debug_aranges
                0x0000000000000610       0x20 ./../../../build/tcc70xx/gcc/tcc70xx-freertos-debug/obj/bsp.o
 .debug_aranges
                0x0000000000000630       0x20 ./../../../build/tcc70xx/gcc/tcc70xx-freertos-debug/obj/dse.o
 .debug_aranges
                0x0000000000000650       0x20 ./../../../build/tcc70xx/gcc/tcc70xx-freertos-debug/obj/eflash.o
 .debug_aranges
                0x0000000000000670       0x20 ./../../../build/tcc70xx/gcc/tcc70xx-freertos-debug/obj/eth.o
 .debug_aranges
                0x0000000000000690       0x20 ./../../../build/tcc70xx/gcc/tcc70xx-freertos-debug/obj/eth_mii.o
 .debug_aranges
                0x00000000000006b0       0x20 ./../../../build/tcc70xx/gcc/tcc70xx-freertos-debug/obj/fmu.o
 .debug_aranges
                0x00000000000006d0       0x20 ./../../../build/tcc70xx/gcc/tcc70xx-freertos-debug/obj/gdma.o
 .debug_aranges
                0x00000000000006f0       0x20 ./../../../build/tcc70xx/gcc/tcc70xx-freertos-debug/obj/gic.o
 .debug_aranges
                0x0000000000000710       0x20 ./../../../build/tcc70xx/gcc/tcc70xx-freertos-debug/obj/gpio.o
 .debug_aranges
                0x0000000000000730       0x20 ./../../../build/tcc70xx/gcc/tcc70xx-freertos-debug/obj/gpsb.o
 .debug_aranges
                0x0000000000000750       0x18 ./../../../build/tcc70xx/gcc/tcc70xx-freertos-debug/obj/gpsb_reg.o
 .debug_aranges
                0x0000000000000768       0x20 ./../../../build/tcc70xx/gcc/tcc70xx-freertos-debug/obj/i2c.o
 .debug_aranges
                0x0000000000000788       0x18 ./../../../build/tcc70xx/gcc/tcc70xx-freertos-debug/obj/i2c_reg.o
 .debug_aranges
                0x00000000000007a0       0x20 ./../../../build/tcc70xx/gcc/tcc70xx-freertos-debug/obj/i2s.o
 .debug_aranges
                0x00000000000007c0       0x20 ./../../../build/tcc70xx/gcc/tcc70xx-freertos-debug/obj/ictc.o
 .debug_aranges
                0x00000000000007e0       0x20 ./../../../build/tcc70xx/gcc/tcc70xx-freertos-debug/obj/mbox.o
 .debug_aranges
                0x0000000000000800       0x20 ./../../../build/tcc70xx/gcc/tcc70xx-freertos-debug/obj/midf.o
 .debug_aranges
                0x0000000000000820       0x20 ./../../../build/tcc70xx/gcc/tcc70xx-freertos-debug/obj/mpu.o
 .debug_aranges
                0x0000000000000840       0x28 ./../../../build/tcc70xx/gcc/tcc70xx-freertos-debug/obj/preload.o
 .debug_aranges
                0x0000000000000868       0x20 ./../../../build/tcc70xx/gcc/tcc70xx-freertos-debug/obj/pdm.o
 .debug_aranges
                0x0000000000000888       0x20 ./../../../build/tcc70xx/gcc/tcc70xx-freertos-debug/obj/pmio_dev.o
 .debug_aranges
                0x00000000000008a8       0x20 ./../../../build/tcc70xx/gcc/tcc70xx-freertos-debug/obj/pmio_dev_extn_pw_ctl.o
 .debug_aranges
                0x00000000000008c8       0x20 ./../../../build/tcc70xx/gcc/tcc70xx-freertos-debug/obj/pmu.o
 .debug_aranges
                0x00000000000008e8       0x20 ./../../../build/tcc70xx/gcc/tcc70xx-freertos-debug/obj/rtc_dev.o
 .debug_aranges
                0x0000000000000908       0x20 ./../../../build/tcc70xx/gcc/tcc70xx-freertos-debug/obj/snor_mio.o
 .debug_aranges
                0x0000000000000928       0x20 ./../../../build/tcc70xx/gcc/tcc70xx-freertos-debug/obj/spu.o
 .debug_aranges
                0x0000000000000948       0x20 ./../../../build/tcc70xx/gcc/tcc70xx-freertos-debug/obj/ssm.o
 .debug_aranges
                0x0000000000000968       0x20 ./../../../build/tcc70xx/gcc/tcc70xx-freertos-debug/obj/timer.o
 .debug_aranges
                0x0000000000000988       0x20 ./../../../build/tcc70xx/gcc/tcc70xx-freertos-debug/obj/uart.o
 .debug_aranges
                0x00000000000009a8       0x20 ./../../../build/tcc70xx/gcc/tcc70xx-freertos-debug/obj/wdt.o
 .debug_aranges
                0x00000000000009c8       0x20 ./../../../build/tcc70xx/gcc/tcc70xx-freertos-debug/obj/wdt_pmu.o
 .debug_aranges
                0x00000000000009e8       0x20 ./../../../build/tcc70xx/gcc/tcc70xx-freertos-debug/obj/tasks.o
 .debug_aranges
                0x0000000000000a08       0x20 ./../../../build/tcc70xx/gcc/tcc70xx-freertos-debug/obj/list.o
 .debug_aranges
                0x0000000000000a28       0x20 ./../../../build/tcc70xx/gcc/tcc70xx-freertos-debug/obj/queue.o
 .debug_aranges
                0x0000000000000a48       0x20 ./../../../build/tcc70xx/gcc/tcc70xx-freertos-debug/obj/event_groups.o
 .debug_aranges
                0x0000000000000a68       0x20 ./../../../build/tcc70xx/gcc/tcc70xx-freertos-debug/obj/timers.o
 .debug_aranges
                0x0000000000000a88       0x20 ./../../../build/tcc70xx/gcc/tcc70xx-freertos-debug/obj/stream_buffer.o
 .debug_aranges
                0x0000000000000aa8       0x20 ./../../../build/tcc70xx/gcc/tcc70xx-freertos-debug/obj/port.o
 .debug_aranges
                0x0000000000000ac8       0x20 ./../../../build/tcc70xx/gcc/tcc70xx-freertos-debug/obj/heap_5.o
 .debug_aranges
                0x0000000000000ae8       0x20 ./../../../build/tcc70xx/gcc/tcc70xx-freertos-debug/obj/FreeRTOS_ARP.o
 .debug_aranges
                0x0000000000000b08       0x18 ./../../../build/tcc70xx/gcc/tcc70xx-freertos-debug/obj/FreeRTOS_DHCP.o
 .debug_aranges
                0x0000000000000b20       0x20 ./../../../build/tcc70xx/gcc/tcc70xx-freertos-debug/obj/FreeRTOS_DNS.o
 .debug_aranges
                0x0000000000000b40       0x20 ./../../../build/tcc70xx/gcc/tcc70xx-freertos-debug/obj/FreeRTOS_IP.o
 .debug_aranges
                0x0000000000000b60       0x20 ./../../../build/tcc70xx/gcc/tcc70xx-freertos-debug/obj/FreeRTOS_Sockets.o
 .debug_aranges
                0x0000000000000b80       0x20 ./../../../build/tcc70xx/gcc/tcc70xx-freertos-debug/obj/FreeRTOS_Stream_Buffer.o
 .debug_aranges
                0x0000000000000ba0       0x20 ./../../../build/tcc70xx/gcc/tcc70xx-freertos-debug/obj/FreeRTOS_TCP_IP.o
 .debug_aranges
                0x0000000000000bc0       0x20 ./../../../build/tcc70xx/gcc/tcc70xx-freertos-debug/obj/FreeRTOS_TCP_WIN.o
 .debug_aranges
                0x0000000000000be0       0x20 ./../../../build/tcc70xx/gcc/tcc70xx-freertos-debug/obj/FreeRTOS_UDP_IP.o
 .debug_aranges
                0x0000000000000c00       0x20 ./../../../build/tcc70xx/gcc/tcc70xx-freertos-debug/obj/FreeRTOS_Port.o
 .debug_aranges
                0x0000000000000c20       0x20 ./../../../build/tcc70xx/gcc/tcc70xx-freertos-debug/obj/BufferAllocation_1.o
 .debug_aranges
                0x0000000000000c40       0x20 ./../../../build/tcc70xx/gcc/tcc70xx-freertos-debug/obj/NetworkInterface.o
 .debug_aranges
                0x0000000000000c60       0x20 ./../../../build/tcc70xx/gcc/tcc70xx-freertos-debug/obj/sal_api.o
 .debug_aranges
                0x0000000000000c80       0x20 ./../../../build/tcc70xx/gcc/tcc70xx-freertos-debug/obj/sal_freertos_impl.o
 .debug_aranges
                0x0000000000000ca0       0x20 ./../../../build/tcc70xx/gcc/tcc70xx-freertos-debug/obj/startup.o
 .debug_aranges
                0x0000000000000cc0       0x20 ./../../../build/tcc70xx/gcc/tcc70xx-freertos-debug/obj/vector.o
 .debug_aranges
                0x0000000000000ce0       0x20 ./../../../build/tcc70xx/gcc/tcc70xx-freertos-debug/obj/vfp_init.o
 .debug_aranges
                0x0000000000000d00       0x20 ./../../../build/tcc70xx/gcc/tcc70xx-freertos-debug/obj/arm_a.o
 .debug_aranges
                0x0000000000000d20       0x20 ./../../../build/tcc70xx/gcc/tcc70xx-freertos-debug/obj/portASM.o
 .debug_aranges
                0x0000000000000d40       0x20 ./../../../build/tcc70xx/gcc/tcc70xx-freertos-debug/obj/freertos.o
 .debug_aranges
                0x0000000000000d60       0x20 ./../../../build/tcc70xx/gcc/tcc70xx-freertos-debug/obj/sal.o
 .debug_aranges
                0x0000000000000d80       0x20 /opt/gcc-linaro-7.2.1-2017.11-x86_64_arm-eabi/arm-eabi/libc/usr/lib/libc.a(lib_a-atoi.o)
 .debug_aranges
                0x0000000000000da0       0x20 /opt/gcc-linaro-7.2.1-2017.11-x86_64_arm-eabi/arm-eabi/libc/usr/lib/libc.a(lib_a-memcmp.o)
 .debug_aranges
                0x0000000000000dc0       0x20 /opt/gcc-linaro-7.2.1-2017.11-x86_64_arm-eabi/arm-eabi/libc/usr/lib/libc.a(lib_a-memcpy-stub.o)
 .debug_aranges
                0x0000000000000de0       0x20 /opt/gcc-linaro-7.2.1-2017.11-x86_64_arm-eabi/arm-eabi/libc/usr/lib/libc.a(lib_a-memmove.o)
 .debug_aranges
                0x0000000000000e00       0x20 /opt/gcc-linaro-7.2.1-2017.11-x86_64_arm-eabi/arm-eabi/libc/usr/lib/libc.a(lib_a-memset.o)
 .debug_aranges
                0x0000000000000e20       0x20 /opt/gcc-linaro-7.2.1-2017.11-x86_64_arm-eabi/arm-eabi/libc/usr/lib/libc.a(lib_a-snprintf.o)
 .debug_aranges
                0x0000000000000e40       0x20 /opt/gcc-linaro-7.2.1-2017.11-x86_64_arm-eabi/arm-eabi/libc/usr/lib/libc.a(lib_a-sprintf.o)
 .debug_aranges
                0x0000000000000e60       0x20 /opt/gcc-linaro-7.2.1-2017.11-x86_64_arm-eabi/arm-eabi/libc/usr/lib/libc.a(lib_a-sscanf.o)
 .debug_aranges
                0x0000000000000e80       0x20 /opt/gcc-linaro-7.2.1-2017.11-x86_64_arm-eabi/arm-eabi/libc/usr/lib/libc.a(lib_a-stdio.o)
 .debug_aranges
                0x0000000000000ea0       0x20 /opt/gcc-linaro-7.2.1-2017.11-x86_64_arm-eabi/arm-eabi/libc/usr/lib/libc.a(lib_a-strcmp.o)
 .debug_aranges
                0x0000000000000ec0       0x20 /opt/gcc-linaro-7.2.1-2017.11-x86_64_arm-eabi/arm-eabi/libc/usr/lib/libc.a(lib_a-strcpy.o)
 .debug_aranges
                0x0000000000000ee0       0x20 /opt/gcc-linaro-7.2.1-2017.11-x86_64_arm-eabi/arm-eabi/libc/usr/lib/libc.a(lib_a-strlen-stub.o)
 .debug_aranges
                0x0000000000000f00       0x20 /opt/gcc-linaro-7.2.1-2017.11-x86_64_arm-eabi/arm-eabi/libc/usr/lib/libc.a(lib_a-strncmp.o)
 .debug_aranges
                0x0000000000000f20       0x20 /opt/gcc-linaro-7.2.1-2017.11-x86_64_arm-eabi/arm-eabi/libc/usr/lib/libc.a(lib_a-strncpy.o)
 .debug_aranges
                0x0000000000000f40       0x20 /opt/gcc-linaro-7.2.1-2017.11-x86_64_arm-eabi/arm-eabi/libc/usr/lib/libc.a(lib_a-strnlen.o)
 .debug_aranges
                0x0000000000000f60       0x20 /opt/gcc-linaro-7.2.1-2017.11-x86_64_arm-eabi/arm-eabi/libc/usr/lib/libc.a(lib_a-strtol.o)
 .debug_aranges
                0x0000000000000f80       0x20 /opt/gcc-linaro-7.2.1-2017.11-x86_64_arm-eabi/arm-eabi/libc/usr/lib/libc.a(lib_a-strtoul.o)
 .debug_aranges
                0x0000000000000fa0       0x20 /opt/gcc-linaro-7.2.1-2017.11-x86_64_arm-eabi/arm-eabi/libc/usr/lib/libc.a(lib_a-svfprintf.o)
 .debug_aranges
                0x0000000000000fc0       0x20 /opt/gcc-linaro-7.2.1-2017.11-x86_64_arm-eabi/arm-eabi/libc/usr/lib/libc.a(lib_a-svfscanf.o)
 .debug_aranges
                0x0000000000000fe0       0x20 /opt/gcc-linaro-7.2.1-2017.11-x86_64_arm-eabi/arm-eabi/libc/usr/lib/libc.a(lib_a-wcrtomb.o)
 .debug_aranges
                0x0000000000001000       0x20 /opt/gcc-linaro-7.2.1-2017.11-x86_64_arm-eabi/arm-eabi/libc/usr/lib/libc.a(lib_a-wcsrtombs.o)
 .debug_aranges
                0x0000000000001020       0x20 /opt/gcc-linaro-7.2.1-2017.11-x86_64_arm-eabi/arm-eabi/libc/usr/lib/libc.a(lib_a-writer.o)
 .debug_aranges
                0x0000000000001040       0x20 /opt/gcc-linaro-7.2.1-2017.11-x86_64_arm-eabi/arm-eabi/libc/usr/lib/libc.a(lib_a-closer.o)
 .debug_aranges
                0x0000000000001060       0x20 /opt/gcc-linaro-7.2.1-2017.11-x86_64_arm-eabi/arm-eabi/libc/usr/lib/libc.a(lib_a-dtoa.o)
 .debug_aranges
                0x0000000000001080       0x20 /opt/gcc-linaro-7.2.1-2017.11-x86_64_arm-eabi/arm-eabi/libc/usr/lib/libc.a(lib_a-freer.o)
 .debug_aranges
                0x00000000000010a0       0x18 /opt/gcc-linaro-7.2.1-2017.11-x86_64_arm-eabi/arm-eabi/libc/usr/lib/libc.a(lib_a-impure.o)
 .debug_aranges
                0x00000000000010b8       0x20 /opt/gcc-linaro-7.2.1-2017.11-x86_64_arm-eabi/arm-eabi/libc/usr/lib/libc.a(lib_a-iswspace.o)
 .debug_aranges
                0x00000000000010d8       0x20 /opt/gcc-linaro-7.2.1-2017.11-x86_64_arm-eabi/arm-eabi/libc/usr/lib/libc.a(lib_a-jp2uc.o)
 .debug_aranges
                0x00000000000010f8       0x20 /opt/gcc-linaro-7.2.1-2017.11-x86_64_arm-eabi/arm-eabi/libc/usr/lib/libc.a(lib_a-locale.o)
 .debug_aranges
                0x0000000000001118       0x20 /opt/gcc-linaro-7.2.1-2017.11-x86_64_arm-eabi/arm-eabi/libc/usr/lib/libc.a(lib_a-localeconv.o)
 .debug_aranges
                0x0000000000001138       0x20 /opt/gcc-linaro-7.2.1-2017.11-x86_64_arm-eabi/arm-eabi/libc/usr/lib/libc.a(lib_a-lseekr.o)
 .debug_aranges
                0x0000000000001158       0x20 /opt/gcc-linaro-7.2.1-2017.11-x86_64_arm-eabi/arm-eabi/libc/usr/lib/libc.a(lib_a-mallocr.o)
 .debug_aranges
                0x0000000000001178       0x20 /opt/gcc-linaro-7.2.1-2017.11-x86_64_arm-eabi/arm-eabi/libc/usr/lib/libc.a(lib_a-mbrtowc.o)
 .debug_aranges
                0x0000000000001198       0x20 /opt/gcc-linaro-7.2.1-2017.11-x86_64_arm-eabi/arm-eabi/libc/usr/lib/libc.a(lib_a-mbtowc_r.o)
 .debug_aranges
                0x00000000000011b8       0x20 /opt/gcc-linaro-7.2.1-2017.11-x86_64_arm-eabi/arm-eabi/libc/usr/lib/libc.a(lib_a-memchr-stub.o)
 .debug_aranges
                0x00000000000011d8       0x20 /opt/gcc-linaro-7.2.1-2017.11-x86_64_arm-eabi/arm-eabi/libc/usr/lib/libc.a(lib_a-mlock.o)
 .debug_aranges
                0x00000000000011f8       0x20 /opt/gcc-linaro-7.2.1-2017.11-x86_64_arm-eabi/arm-eabi/libc/usr/lib/libc.a(lib_a-mprec.o)
 .debug_aranges
                0x0000000000001218       0x20 /opt/gcc-linaro-7.2.1-2017.11-x86_64_arm-eabi/arm-eabi/libc/usr/lib/libc.a(lib_a-readr.o)
 .debug_aranges
                0x0000000000001238       0x20 /opt/gcc-linaro-7.2.1-2017.11-x86_64_arm-eabi/arm-eabi/libc/usr/lib/libc.a(lib_a-reent.o)
 .debug_aranges
                0x0000000000001258       0x20 /opt/gcc-linaro-7.2.1-2017.11-x86_64_arm-eabi/arm-eabi/libc/usr/lib/libc.a(lib_a-s_frexp.o)
 .debug_aranges
                0x0000000000001278       0x20 /opt/gcc-linaro-7.2.1-2017.11-x86_64_arm-eabi/arm-eabi/libc/usr/lib/libc.a(lib_a-sbrkr.o)
 .debug_aranges
                0x0000000000001298       0x20 /opt/gcc-linaro-7.2.1-2017.11-x86_64_arm-eabi/arm-eabi/libc/usr/lib/libc.a(lib_a-sccl.o)
 .debug_aranges
                0x00000000000012b8       0x20 /opt/gcc-linaro-7.2.1-2017.11-x86_64_arm-eabi/arm-eabi/libc/usr/lib/libc.a(lib_a-sf_nan.o)
 .debug_aranges
                0x00000000000012d8       0x20 /opt/gcc-linaro-7.2.1-2017.11-x86_64_arm-eabi/arm-eabi/libc/usr/lib/libc.a(lib_a-stpncpy.o)
 .debug_aranges
                0x00000000000012f8       0x20 /opt/gcc-linaro-7.2.1-2017.11-x86_64_arm-eabi/arm-eabi/libc/usr/lib/libc.a(lib_a-strcasecmp.o)
 .debug_aranges
                0x0000000000001318       0x20 /opt/gcc-linaro-7.2.1-2017.11-x86_64_arm-eabi/arm-eabi/libc/usr/lib/libc.a(lib_a-strcat.o)
 .debug_aranges
                0x0000000000001338       0x20 /opt/gcc-linaro-7.2.1-2017.11-x86_64_arm-eabi/arm-eabi/libc/usr/lib/libc.a(lib_a-strchr.o)
 .debug_aranges
                0x0000000000001358       0x20 /opt/gcc-linaro-7.2.1-2017.11-x86_64_arm-eabi/arm-eabi/libc/usr/lib/libc.a(lib_a-strlcpy.o)
 .debug_aranges
                0x0000000000001378       0x20 /opt/gcc-linaro-7.2.1-2017.11-x86_64_arm-eabi/arm-eabi/libc/usr/lib/libc.a(lib_a-strncasecmp.o)
 .debug_aranges
                0x0000000000001398       0x28 /opt/gcc-linaro-7.2.1-2017.11-x86_64_arm-eabi/arm-eabi/libc/usr/lib/libc.a(lib_a-strtod.o)
 .debug_aranges
                0x00000000000013c0       0x20 /opt/gcc-linaro-7.2.1-2017.11-x86_64_arm-eabi/arm-eabi/libc/usr/lib/libc.a(lib_a-strtoll.o)
 .debug_aranges
                0x00000000000013e0       0x20 /opt/gcc-linaro-7.2.1-2017.11-x86_64_arm-eabi/arm-eabi/libc/usr/lib/libc.a(lib_a-strtoull.o)
 .debug_aranges
                0x0000000000001400       0x20 /opt/gcc-linaro-7.2.1-2017.11-x86_64_arm-eabi/arm-eabi/libc/usr/lib/libc.a(lib_a-svfiprintf.o)
 .debug_aranges
                0x0000000000001420       0x20 /opt/gcc-linaro-7.2.1-2017.11-x86_64_arm-eabi/arm-eabi/libc/usr/lib/libc.a(lib_a-svfiscanf.o)
 .debug_aranges
                0x0000000000001440       0x20 /opt/gcc-linaro-7.2.1-2017.11-x86_64_arm-eabi/arm-eabi/libc/usr/lib/libc.a(lib_a-syscalls.o)
 .debug_aranges
                0x0000000000001460       0x20 /opt/gcc-linaro-7.2.1-2017.11-x86_64_arm-eabi/arm-eabi/libc/usr/lib/libc.a(lib_a-ungetc.o)
 .debug_aranges
                0x0000000000001480       0x20 /opt/gcc-linaro-7.2.1-2017.11-x86_64_arm-eabi/arm-eabi/libc/usr/lib/libc.a(lib_a-wcsnrtombs.o)
 .debug_aranges
                0x00000000000014a0       0x20 /opt/gcc-linaro-7.2.1-2017.11-x86_64_arm-eabi/arm-eabi/libc/usr/lib/libc.a(lib_a-wctomb_r.o)
 .debug_aranges
                0x00000000000014c0       0x20 /opt/gcc-linaro-7.2.1-2017.11-x86_64_arm-eabi/arm-eabi/libc/usr/lib/libc.a(lib_a-callocr.o)
 .debug_aranges
                0x00000000000014e0       0x20 /opt/gcc-linaro-7.2.1-2017.11-x86_64_arm-eabi/arm-eabi/libc/usr/lib/libc.a(lib_a-ctype_.o)
 .debug_aranges
                0x0000000000001500       0x20 /opt/gcc-linaro-7.2.1-2017.11-x86_64_arm-eabi/arm-eabi/libc/usr/lib/libc.a(lib_a-errno.o)
 .debug_aranges
                0x0000000000001520       0x20 /opt/gcc-linaro-7.2.1-2017.11-x86_64_arm-eabi/arm-eabi/libc/usr/lib/libc.a(lib_a-fflush.o)
 .debug_aranges
                0x0000000000001540       0x20 /opt/gcc-linaro-7.2.1-2017.11-x86_64_arm-eabi/arm-eabi/libc/usr/lib/libc.a(lib_a-findfp.o)
 .debug_aranges
                0x0000000000001560       0x20 /opt/gcc-linaro-7.2.1-2017.11-x86_64_arm-eabi/arm-eabi/libc/usr/lib/libc.a(lib_a-fwalk.o)
 .debug_aranges
                0x0000000000001580       0x20 /opt/gcc-linaro-7.2.1-2017.11-x86_64_arm-eabi/arm-eabi/libc/usr/lib/libc.a(lib_a-gdtoa-gethex.o)
 .debug_aranges
                0x00000000000015a0       0x20 /opt/gcc-linaro-7.2.1-2017.11-x86_64_arm-eabi/arm-eabi/libc/usr/lib/libc.a(lib_a-gdtoa-hexnan.o)
 .debug_aranges
                0x00000000000015c0       0x20 /opt/gcc-linaro-7.2.1-2017.11-x86_64_arm-eabi/arm-eabi/libc/usr/lib/libc.a(lib_a-getenv_r.o)
 .debug_aranges
                0x00000000000015e0       0x20 /opt/gcc-linaro-7.2.1-2017.11-x86_64_arm-eabi/arm-eabi/libc/usr/lib/libc.a(lib_a-reallocr.o)
 .debug_aranges
                0x0000000000001600       0x18 /opt/gcc-linaro-7.2.1-2017.11-x86_64_arm-eabi/arm-eabi/libc/usr/lib/libc.a(lib_a-environ.o)
 .debug_aranges
                0x0000000000001618       0x20 /opt/gcc-linaro-7.2.1-2017.11-x86_64_arm-eabi/arm-eabi/libc/usr/lib/libc.a(lib_a-envlock.o)
 .debug_aranges
                0x0000000000001638       0x20 /opt/gcc-linaro-7.2.1-2017.11-x86_64_arm-eabi/arm-eabi/libc/usr/lib/libc.a(lib_a-fclose.o)
 .debug_aranges
                0x0000000000001658       0x20 /opt/gcc-linaro-7.2.1-2017.11-x86_64_arm-eabi/arm-eabi/libc/usr/lib/libm.a(lib_a-sf_fabs.o)
 .debug_aranges
                0x0000000000001678       0x20 /opt/gcc-linaro-7.2.1-2017.11-x86_64_arm-eabi/arm-eabi/libc/usr/lib/libgcc.a(_udivsi3.o)
 .debug_aranges
                0x0000000000001698       0x20 /opt/gcc-linaro-7.2.1-2017.11-x86_64_arm-eabi/arm-eabi/libc/usr/lib/libgcc.a(_dvmd_tls.o)
 .debug_aranges
                0x00000000000016b8       0x20 /opt/gcc-linaro-7.2.1-2017.11-x86_64_arm-eabi/arm-eabi/libc/usr/lib/libgcc.a(_arm_addsubdf3.o)
 .debug_aranges
                0x00000000000016d8       0x20 /opt/gcc-linaro-7.2.1-2017.11-x86_64_arm-eabi/arm-eabi/libc/usr/lib/libgcc.a(_arm_muldivdf3.o)
 .debug_aranges
                0x00000000000016f8       0x20 /opt/gcc-linaro-7.2.1-2017.11-x86_64_arm-eabi/arm-eabi/libc/usr/lib/libgcc.a(_arm_cmpdf2.o)
 .debug_aranges
                0x0000000000001718       0x20 /opt/gcc-linaro-7.2.1-2017.11-x86_64_arm-eabi/arm-eabi/libc/usr/lib/libgcc.a(_arm_unorddf2.o)
 .debug_aranges
                0x0000000000001738       0x20 /opt/gcc-linaro-7.2.1-2017.11-x86_64_arm-eabi/arm-eabi/libc/usr/lib/libgcc.a(_arm_fixdfsi.o)
 .debug_aranges
                0x0000000000001758       0x20 /opt/gcc-linaro-7.2.1-2017.11-x86_64_arm-eabi/arm-eabi/libc/usr/lib/libgcc.a(_arm_fixunsdfsi.o)
 .debug_aranges
                0x0000000000001778       0x20 /opt/gcc-linaro-7.2.1-2017.11-x86_64_arm-eabi/arm-eabi/libc/usr/lib/libgcc.a(_arm_truncdfsf2.o)
 .debug_aranges
                0x0000000000001798       0x20 /opt/gcc-linaro-7.2.1-2017.11-x86_64_arm-eabi/arm-eabi/libc/usr/lib/libgcc.a(_arm_cmpsf2.o)
 .debug_aranges
                0x00000000000017b8       0x20 /opt/gcc-linaro-7.2.1-2017.11-x86_64_arm-eabi/arm-eabi/libc/usr/lib/libgcc.a(_arm_unordsf2.o)
 .debug_aranges
                0x00000000000017d8       0x20 /opt/gcc-linaro-7.2.1-2017.11-x86_64_arm-eabi/arm-eabi/libc/usr/lib/libgcc.a(_aeabi_uldivmod.o)
 .debug_aranges
                0x00000000000017f8       0x20 /opt/gcc-linaro-7.2.1-2017.11-x86_64_arm-eabi/arm-eabi/libc/usr/lib/libgcc.a(_udivmoddi4.o)
 .debug_aranges
                0x0000000000001818       0x20 /opt/gcc-linaro-7.2.1-2017.11-x86_64_arm-eabi/arm-eabi/libc/usr/lib/libgcc.a(_clzdi2.o)
 .debug_aranges
                0x0000000000001838       0x20 /opt/gcc-linaro-7.2.1-2017.11-x86_64_arm-eabi/arm-eabi/libc/usr/lib/libgcc.a(_clzsi2.o)

.debug_line     0x0000000000000000    0x32cf1
 .debug_line    0x0000000000000000      0x181 ./../../../build/tcc70xx/gcc/tcc70xx-freertos-debug/obj/main.o
 .debug_line    0x0000000000000181      0x4df ./../../../build/tcc70xx/gcc/tcc70xx-freertos-debug/obj/can_demo.o
 .debug_line    0x0000000000000660      0x2e4 ./../../../build/tcc70xx/gcc/tcc70xx-freertos-debug/obj/can_vcp_ctrl.o
 .debug_line    0x0000000000000944      0xbd9 ./../../../build/tcc70xx/gcc/tcc70xx-freertos-debug/obj/console.o
 .debug_line    0x000000000000151d      0x4c3 ./../../../build/tcc70xx/gcc/tcc70xx-freertos-debug/obj/fwupdate.o
 .debug_line    0x00000000000019e0       0xa0 ./../../../build/tcc70xx/gcc/tcc70xx-freertos-debug/obj/idle.o
 .debug_line    0x0000000000001a80      0x516 ./../../../build/tcc70xx/gcc/tcc70xx-freertos-debug/obj/iperf_task_v3_0d.o
 .debug_line    0x0000000000001f96      0x14f ./../../../build/tcc70xx/gcc/tcc70xx-freertos-debug/obj/spi_led.o
 .debug_line    0x00000000000020e5      0x460 ./../../../build/tcc70xx/gcc/tcc70xx-freertos-debug/obj/audio_test.o
 .debug_line    0x0000000000002545      0x301 ./../../../build/tcc70xx/gcc/tcc70xx-freertos-debug/obj/audio_chip_veri.o
 .debug_line    0x0000000000002846      0x1f8 ./../../../build/tcc70xx/gcc/tcc70xx-freertos-debug/obj/wm8904.o
 .debug_line    0x0000000000002a3e      0x268 ./../../../build/tcc70xx/gcc/tcc70xx-freertos-debug/obj/cpu_test.o
 .debug_line    0x0000000000002ca6      0x1bd ./../../../build/tcc70xx/gcc/tcc70xx-freertos-debug/obj/dse_test.o
 .debug_line    0x0000000000002e63      0x5fd ./../../../build/tcc70xx/gcc/tcc70xx-freertos-debug/obj/eflash_test.o
 .debug_line    0x0000000000003460      0x1ad ./../../../build/tcc70xx/gcc/tcc70xx-freertos-debug/obj/fmu_test.o
 .debug_line    0x000000000000360d      0x193 ./../../../build/tcc70xx/gcc/tcc70xx-freertos-debug/obj/gdma_test.o
 .debug_line    0x00000000000037a0       0x7b ./../../../build/tcc70xx/gcc/tcc70xx-freertos-debug/obj/gdma_ip_test.o
 .debug_line    0x000000000000381b      0x1ce ./../../../build/tcc70xx/gcc/tcc70xx-freertos-debug/obj/gic_test.o
 .debug_line    0x00000000000039e9      0x7fb ./../../../build/tcc70xx/gcc/tcc70xx-freertos-debug/obj/gpio_test.o
 .debug_line    0x00000000000041e4      0x55a ./../../../build/tcc70xx/gcc/tcc70xx-freertos-debug/obj/gpsb_test.o
 .debug_line    0x000000000000473e      0xdc8 ./../../../build/tcc70xx/gcc/tcc70xx-freertos-debug/obj/hsm_test.o
 .debug_line    0x0000000000005506      0x1c3 ./../../../build/tcc70xx/gcc/tcc70xx-freertos-debug/obj/i2c_test.o
 .debug_line    0x00000000000056c9      0x234 ./../../../build/tcc70xx/gcc/tcc70xx-freertos-debug/obj/ictc_test.o
 .debug_line    0x00000000000058fd      0x2a4 ./../../../build/tcc70xx/gcc/tcc70xx-freertos-debug/obj/lin_test.o
 .debug_line    0x0000000000005ba1      0x27c ./../../../build/tcc70xx/gcc/tcc70xx-freertos-debug/obj/pdm_test.o
 .debug_line    0x0000000000005e1d      0x4b4 ./../../../build/tcc70xx/gcc/tcc70xx-freertos-debug/obj/pmu_test.o
 .debug_line    0x00000000000062d1      0x272 ./../../../build/tcc70xx/gcc/tcc70xx-freertos-debug/obj/rtc_test.o
 .debug_line    0x0000000000006543      0x168 ./../../../build/tcc70xx/gcc/tcc70xx-freertos-debug/obj/sfmc_test.o
 .debug_line    0x00000000000066ab      0x397 ./../../../build/tcc70xx/gcc/tcc70xx-freertos-debug/obj/echo_test.o
 .debug_line    0x0000000000006a42      0x3aa ./../../../build/tcc70xx/gcc/tcc70xx-freertos-debug/obj/timer_test.o
 .debug_line    0x0000000000006dec      0x357 ./../../../build/tcc70xx/gcc/tcc70xx-freertos-debug/obj/uart_test.o
 .debug_line    0x0000000000007143      0x3fa ./../../../build/tcc70xx/gcc/tcc70xx-freertos-debug/obj/wdt_test.o
 .debug_line    0x000000000000753d      0x230 ./../../../build/tcc70xx/gcc/tcc70xx-freertos-debug/obj/writelock_test.o
 .debug_line    0x000000000000776d      0x2a2 ./../../../build/tcc70xx/gcc/tcc70xx-freertos-debug/obj/eth_test.o
 .debug_line    0x0000000000007a0f      0x421 ./../../../build/tcc70xx/gcc/tcc70xx-freertos-debug/obj/spu_test.o
 .debug_line    0x0000000000007e30      0x23b ./../../../build/tcc70xx/gcc/tcc70xx-freertos-debug/obj/power_app.o
 .debug_line    0x000000000000806b      0x443 ./../../../build/tcc70xx/gcc/tcc70xx-freertos-debug/obj/power_com.o
 .debug_line    0x00000000000084ae      0x581 ./../../../build/tcc70xx/gcc/tcc70xx-freertos-debug/obj/spi_eccp.o
 .debug_line    0x0000000000008a2f      0xa4d ./../../../build/tcc70xx/gcc/tcc70xx-freertos-debug/obj/hsm_manager.o
 .debug_line    0x000000000000947c      0x3ff ./../../../build/tcc70xx/gcc/tcc70xx-freertos-debug/obj/lin.o
 .debug_line    0x000000000000987b      0x263 ./../../../build/tcc70xx/gcc/tcc70xx-freertos-debug/obj/swl.o
 .debug_line    0x0000000000009ade      0x28e ./../../../build/tcc70xx/gcc/tcc70xx-freertos-debug/obj/adc.o
 .debug_line    0x0000000000009d6c      0x227 ./../../../build/tcc70xx/gcc/tcc70xx-freertos-debug/obj/can.o
 .debug_line    0x0000000000009f93      0x583 ./../../../build/tcc70xx/gcc/tcc70xx-freertos-debug/obj/can_drv.o
 .debug_line    0x000000000000a516      0x3fc ./../../../build/tcc70xx/gcc/tcc70xx-freertos-debug/obj/can_msg.o
 .debug_line    0x000000000000a912       0xcf ./../../../build/tcc70xx/gcc/tcc70xx-freertos-debug/obj/can_par.o
 .debug_line    0x000000000000a9e1      0x324 ./../../../build/tcc70xx/gcc/tcc70xx-freertos-debug/obj/can_porting.o
 .debug_line    0x000000000000ad05      0x518 ./../../../build/tcc70xx/gcc/tcc70xx-freertos-debug/obj/clock_dev.o
 .debug_line    0x000000000000b21d      0x287 ./../../../build/tcc70xx/gcc/tcc70xx-freertos-debug/obj/debug.o
 .debug_line    0x000000000000b4a4      0x13d ./../../../build/tcc70xx/gcc/tcc70xx-freertos-debug/obj/bsp.o
 .debug_line    0x000000000000b5e1      0x1ab ./../../../build/tcc70xx/gcc/tcc70xx-freertos-debug/obj/dse.o
 .debug_line    0x000000000000b78c      0x687 ./../../../build/tcc70xx/gcc/tcc70xx-freertos-debug/obj/eflash.o
 .debug_line    0x000000000000be13      0x7b5 ./../../../build/tcc70xx/gcc/tcc70xx-freertos-debug/obj/eth.o
 .debug_line    0x000000000000c5c8      0x3bf ./../../../build/tcc70xx/gcc/tcc70xx-freertos-debug/obj/eth_mii.o
 .debug_line    0x000000000000c987      0x33b ./../../../build/tcc70xx/gcc/tcc70xx-freertos-debug/obj/fmu.o
 .debug_line    0x000000000000ccc2      0x385 ./../../../build/tcc70xx/gcc/tcc70xx-freertos-debug/obj/gdma.o
 .debug_line    0x000000000000d047      0x27f ./../../../build/tcc70xx/gcc/tcc70xx-freertos-debug/obj/gic.o
 .debug_line    0x000000000000d2c6      0x25d ./../../../build/tcc70xx/gcc/tcc70xx-freertos-debug/obj/gpio.o
 .debug_line    0x000000000000d523      0xc42 ./../../../build/tcc70xx/gcc/tcc70xx-freertos-debug/obj/gpsb.o
 .debug_line    0x000000000000e165      0x127 ./../../../build/tcc70xx/gcc/tcc70xx-freertos-debug/obj/gpsb_reg.o
 .debug_line    0x000000000000e28c      0x7cf ./../../../build/tcc70xx/gcc/tcc70xx-freertos-debug/obj/i2c.o
 .debug_line    0x000000000000ea5b      0x122 ./../../../build/tcc70xx/gcc/tcc70xx-freertos-debug/obj/i2c_reg.o
 .debug_line    0x000000000000eb7d      0x47e ./../../../build/tcc70xx/gcc/tcc70xx-freertos-debug/obj/i2s.o
 .debug_line    0x000000000000effb      0x4a8 ./../../../build/tcc70xx/gcc/tcc70xx-freertos-debug/obj/ictc.o
 .debug_line    0x000000000000f4a3      0x17a ./../../../build/tcc70xx/gcc/tcc70xx-freertos-debug/obj/mbox.o
 .debug_line    0x000000000000f61d      0x181 ./../../../build/tcc70xx/gcc/tcc70xx-freertos-debug/obj/midf.o
 .debug_line    0x000000000000f79e       0xfa ./../../../build/tcc70xx/gcc/tcc70xx-freertos-debug/obj/mpu.o
 .debug_line    0x000000000000f898      0x266 ./../../../build/tcc70xx/gcc/tcc70xx-freertos-debug/obj/preload.o
 .debug_line    0x000000000000fafe      0x6a0 ./../../../build/tcc70xx/gcc/tcc70xx-freertos-debug/obj/pdm.o
 .debug_line    0x000000000001019e      0x396 ./../../../build/tcc70xx/gcc/tcc70xx-freertos-debug/obj/pmio_dev.o
 .debug_line    0x0000000000010534      0x182 ./../../../build/tcc70xx/gcc/tcc70xx-freertos-debug/obj/pmio_dev_extn_pw_ctl.o
 .debug_line    0x00000000000106b6      0x1b6 ./../../../build/tcc70xx/gcc/tcc70xx-freertos-debug/obj/pmu.o
 .debug_line    0x000000000001086c      0x22a ./../../../build/tcc70xx/gcc/tcc70xx-freertos-debug/obj/rtc_dev.o
 .debug_line    0x0000000000010a96      0xf53 ./../../../build/tcc70xx/gcc/tcc70xx-freertos-debug/obj/snor_mio.o
 .debug_line    0x00000000000119e9      0x51a ./../../../build/tcc70xx/gcc/tcc70xx-freertos-debug/obj/spu.o
 .debug_line    0x0000000000011f03      0x22e ./../../../build/tcc70xx/gcc/tcc70xx-freertos-debug/obj/ssm.o
 .debug_line    0x0000000000012131      0x407 ./../../../build/tcc70xx/gcc/tcc70xx-freertos-debug/obj/timer.o
 .debug_line    0x0000000000012538      0x7c1 ./../../../build/tcc70xx/gcc/tcc70xx-freertos-debug/obj/uart.o
 .debug_line    0x0000000000012cf9      0x268 ./../../../build/tcc70xx/gcc/tcc70xx-freertos-debug/obj/wdt.o
 .debug_line    0x0000000000012f61      0x270 ./../../../build/tcc70xx/gcc/tcc70xx-freertos-debug/obj/wdt_pmu.o
 .debug_line    0x00000000000131d1      0xaa4 ./../../../build/tcc70xx/gcc/tcc70xx-freertos-debug/obj/tasks.o
 .debug_line    0x0000000000013c75      0x2c9 ./../../../build/tcc70xx/gcc/tcc70xx-freertos-debug/obj/list.o
 .debug_line    0x0000000000013f3e      0x8c9 ./../../../build/tcc70xx/gcc/tcc70xx-freertos-debug/obj/queue.o
 .debug_line    0x0000000000014807      0x408 ./../../../build/tcc70xx/gcc/tcc70xx-freertos-debug/obj/event_groups.o
 .debug_line    0x0000000000014c0f      0x4e6 ./../../../build/tcc70xx/gcc/tcc70xx-freertos-debug/obj/timers.o
 .debug_line    0x00000000000150f5      0x4ed ./../../../build/tcc70xx/gcc/tcc70xx-freertos-debug/obj/stream_buffer.o
 .debug_line    0x00000000000155e2      0x431 ./../../../build/tcc70xx/gcc/tcc70xx-freertos-debug/obj/port.o
 .debug_line    0x0000000000015a13      0x38d ./../../../build/tcc70xx/gcc/tcc70xx-freertos-debug/obj/heap_5.o
 .debug_line    0x0000000000015da0      0x469 ./../../../build/tcc70xx/gcc/tcc70xx-freertos-debug/obj/FreeRTOS_ARP.o
 .debug_line    0x0000000000016209      0x2c3 ./../../../build/tcc70xx/gcc/tcc70xx-freertos-debug/obj/FreeRTOS_DHCP.o
 .debug_line    0x00000000000164cc      0x607 ./../../../build/tcc70xx/gcc/tcc70xx-freertos-debug/obj/FreeRTOS_DNS.o
 .debug_line    0x0000000000016ad3      0x6b3 ./../../../build/tcc70xx/gcc/tcc70xx-freertos-debug/obj/FreeRTOS_IP.o
 .debug_line    0x0000000000017186      0xa55 ./../../../build/tcc70xx/gcc/tcc70xx-freertos-debug/obj/FreeRTOS_Sockets.o
 .debug_line    0x0000000000017bdb      0x3aa ./../../../build/tcc70xx/gcc/tcc70xx-freertos-debug/obj/FreeRTOS_Stream_Buffer.o
 .debug_line    0x0000000000017f85      0x9e2 ./../../../build/tcc70xx/gcc/tcc70xx-freertos-debug/obj/FreeRTOS_TCP_IP.o
 .debug_line    0x0000000000018967      0x624 ./../../../build/tcc70xx/gcc/tcc70xx-freertos-debug/obj/FreeRTOS_TCP_WIN.o
 .debug_line    0x0000000000018f8b      0x408 ./../../../build/tcc70xx/gcc/tcc70xx-freertos-debug/obj/FreeRTOS_UDP_IP.o
 .debug_line    0x0000000000019393      0x32f ./../../../build/tcc70xx/gcc/tcc70xx-freertos-debug/obj/FreeRTOS_Port.o
 .debug_line    0x00000000000196c2      0x3ee ./../../../build/tcc70xx/gcc/tcc70xx-freertos-debug/obj/BufferAllocation_1.o
 .debug_line    0x0000000000019ab0      0x408 ./../../../build/tcc70xx/gcc/tcc70xx-freertos-debug/obj/NetworkInterface.o
 .debug_line    0x0000000000019eb8      0x19c ./../../../build/tcc70xx/gcc/tcc70xx-freertos-debug/obj/sal_api.o
 .debug_line    0x000000000001a054      0x6ce ./../../../build/tcc70xx/gcc/tcc70xx-freertos-debug/obj/sal_freertos_impl.o
 .debug_line    0x000000000001a722       0xe0 ./../../../build/tcc70xx/gcc/tcc70xx-freertos-debug/obj/startup.o
 .debug_line    0x000000000001a802       0x67 ./../../../build/tcc70xx/gcc/tcc70xx-freertos-debug/obj/vector.o
 .debug_line    0x000000000001a869       0x6b ./../../../build/tcc70xx/gcc/tcc70xx-freertos-debug/obj/vfp_init.o
 .debug_line    0x000000000001a8d4       0x53 ./../../../build/tcc70xx/gcc/tcc70xx-freertos-debug/obj/arm_a.o
 .debug_line    0x000000000001a927       0xcf ./../../../build/tcc70xx/gcc/tcc70xx-freertos-debug/obj/portASM.o
 .debug_line    0x000000000001a9f6       0xbc ./../../../build/tcc70xx/gcc/tcc70xx-freertos-debug/obj/freertos.o
 .debug_line    0x000000000001aab2       0x59 ./../../../build/tcc70xx/gcc/tcc70xx-freertos-debug/obj/sal.o
 .debug_line    0x000000000001ab0b      0x31c /opt/gcc-linaro-7.2.1-2017.11-x86_64_arm-eabi/arm-eabi/libc/usr/lib/libc.a(lib_a-atoi.o)
 .debug_line    0x000000000001ae27      0x345 /opt/gcc-linaro-7.2.1-2017.11-x86_64_arm-eabi/arm-eabi/libc/usr/lib/libc.a(lib_a-memcmp.o)
 .debug_line    0x000000000001b16c      0x36d /opt/gcc-linaro-7.2.1-2017.11-x86_64_arm-eabi/arm-eabi/libc/usr/lib/libc.a(lib_a-memcpy-stub.o)
 .debug_line    0x000000000001b4d9      0x440 /opt/gcc-linaro-7.2.1-2017.11-x86_64_arm-eabi/arm-eabi/libc/usr/lib/libc.a(lib_a-memmove.o)
 .debug_line    0x000000000001b919      0x433 /opt/gcc-linaro-7.2.1-2017.11-x86_64_arm-eabi/arm-eabi/libc/usr/lib/libc.a(lib_a-memset.o)
 .debug_line    0x000000000001bd4c      0x41b /opt/gcc-linaro-7.2.1-2017.11-x86_64_arm-eabi/arm-eabi/libc/usr/lib/libc.a(lib_a-snprintf.o)
 .debug_line    0x000000000001c167      0x388 /opt/gcc-linaro-7.2.1-2017.11-x86_64_arm-eabi/arm-eabi/libc/usr/lib/libc.a(lib_a-sprintf.o)
 .debug_line    0x000000000001c4ef      0x38f /opt/gcc-linaro-7.2.1-2017.11-x86_64_arm-eabi/arm-eabi/libc/usr/lib/libc.a(lib_a-sscanf.o)
 .debug_line    0x000000000001c87e      0x382 /opt/gcc-linaro-7.2.1-2017.11-x86_64_arm-eabi/arm-eabi/libc/usr/lib/libc.a(lib_a-stdio.o)
 .debug_line    0x000000000001cc00      0x176 /opt/gcc-linaro-7.2.1-2017.11-x86_64_arm-eabi/arm-eabi/libc/usr/lib/libc.a(lib_a-strcmp.o)
 .debug_line    0x000000000001cd76      0x31e /opt/gcc-linaro-7.2.1-2017.11-x86_64_arm-eabi/arm-eabi/libc/usr/lib/libc.a(lib_a-strcpy.o)
 .debug_line    0x000000000001d094      0x323 /opt/gcc-linaro-7.2.1-2017.11-x86_64_arm-eabi/arm-eabi/libc/usr/lib/libc.a(lib_a-strlen-stub.o)
 .debug_line    0x000000000001d3b7      0x370 /opt/gcc-linaro-7.2.1-2017.11-x86_64_arm-eabi/arm-eabi/libc/usr/lib/libc.a(lib_a-strncmp.o)
 .debug_line    0x000000000001d727      0x345 /opt/gcc-linaro-7.2.1-2017.11-x86_64_arm-eabi/arm-eabi/libc/usr/lib/libc.a(lib_a-strncpy.o)
 .debug_line    0x000000000001da6c      0x324 /opt/gcc-linaro-7.2.1-2017.11-x86_64_arm-eabi/arm-eabi/libc/usr/lib/libc.a(lib_a-strnlen.o)
 .debug_line    0x000000000001dd90      0x47c /opt/gcc-linaro-7.2.1-2017.11-x86_64_arm-eabi/arm-eabi/libc/usr/lib/libc.a(lib_a-strtol.o)
 .debug_line    0x000000000001e20c      0x47b /opt/gcc-linaro-7.2.1-2017.11-x86_64_arm-eabi/arm-eabi/libc/usr/lib/libc.a(lib_a-strtoul.o)
 .debug_line    0x000000000001e687     0x23c8 /opt/gcc-linaro-7.2.1-2017.11-x86_64_arm-eabi/arm-eabi/libc/usr/lib/libc.a(lib_a-svfprintf.o)
 .debug_line    0x0000000000020a4f      0xda2 /opt/gcc-linaro-7.2.1-2017.11-x86_64_arm-eabi/arm-eabi/libc/usr/lib/libc.a(lib_a-svfscanf.o)
 .debug_line    0x00000000000217f1      0x45e /opt/gcc-linaro-7.2.1-2017.11-x86_64_arm-eabi/arm-eabi/libc/usr/lib/libc.a(lib_a-wcrtomb.o)
 .debug_line    0x0000000000021c4f      0x324 /opt/gcc-linaro-7.2.1-2017.11-x86_64_arm-eabi/arm-eabi/libc/usr/lib/libc.a(lib_a-wcsrtombs.o)
 .debug_line    0x0000000000021f73      0x336 /opt/gcc-linaro-7.2.1-2017.11-x86_64_arm-eabi/arm-eabi/libc/usr/lib/libc.a(lib_a-writer.o)
 .debug_line    0x00000000000222a9      0x336 /opt/gcc-linaro-7.2.1-2017.11-x86_64_arm-eabi/arm-eabi/libc/usr/lib/libc.a(lib_a-closer.o)
 .debug_line    0x00000000000225df      0x950 /opt/gcc-linaro-7.2.1-2017.11-x86_64_arm-eabi/arm-eabi/libc/usr/lib/libc.a(lib_a-dtoa.o)
 .debug_line    0x0000000000022f2f      0x417 /opt/gcc-linaro-7.2.1-2017.11-x86_64_arm-eabi/arm-eabi/libc/usr/lib/libc.a(lib_a-freer.o)
 .debug_line    0x0000000000023346      0x259 /opt/gcc-linaro-7.2.1-2017.11-x86_64_arm-eabi/arm-eabi/libc/usr/lib/libc.a(lib_a-impure.o)
 .debug_line    0x000000000002359f      0x427 /opt/gcc-linaro-7.2.1-2017.11-x86_64_arm-eabi/arm-eabi/libc/usr/lib/libc.a(lib_a-iswspace.o)
 .debug_line    0x00000000000239c6      0x483 /opt/gcc-linaro-7.2.1-2017.11-x86_64_arm-eabi/arm-eabi/libc/usr/lib/libc.a(lib_a-jp2uc.o)
 .debug_line    0x0000000000023e49      0x61c /opt/gcc-linaro-7.2.1-2017.11-x86_64_arm-eabi/arm-eabi/libc/usr/lib/libc.a(lib_a-locale.o)
 .debug_line    0x0000000000024465      0x35d /opt/gcc-linaro-7.2.1-2017.11-x86_64_arm-eabi/arm-eabi/libc/usr/lib/libc.a(lib_a-localeconv.o)
 .debug_line    0x00000000000247c2      0x336 /opt/gcc-linaro-7.2.1-2017.11-x86_64_arm-eabi/arm-eabi/libc/usr/lib/libc.a(lib_a-lseekr.o)
 .debug_line    0x0000000000024af8      0x536 /opt/gcc-linaro-7.2.1-2017.11-x86_64_arm-eabi/arm-eabi/libc/usr/lib/libc.a(lib_a-mallocr.o)
 .debug_line    0x000000000002502e      0x45d /opt/gcc-linaro-7.2.1-2017.11-x86_64_arm-eabi/arm-eabi/libc/usr/lib/libc.a(lib_a-mbrtowc.o)
 .debug_line    0x000000000002548b      0x61e /opt/gcc-linaro-7.2.1-2017.11-x86_64_arm-eabi/arm-eabi/libc/usr/lib/libc.a(lib_a-mbtowc_r.o)
 .debug_line    0x0000000000025aa9      0x35d /opt/gcc-linaro-7.2.1-2017.11-x86_64_arm-eabi/arm-eabi/libc/usr/lib/libc.a(lib_a-memchr-stub.o)
 .debug_line    0x0000000000025e06      0x269 /opt/gcc-linaro-7.2.1-2017.11-x86_64_arm-eabi/arm-eabi/libc/usr/lib/libc.a(lib_a-mlock.o)
 .debug_line    0x000000000002606f      0x8d4 /opt/gcc-linaro-7.2.1-2017.11-x86_64_arm-eabi/arm-eabi/libc/usr/lib/libc.a(lib_a-mprec.o)
 .debug_line    0x0000000000026943      0x335 /opt/gcc-linaro-7.2.1-2017.11-x86_64_arm-eabi/arm-eabi/libc/usr/lib/libc.a(lib_a-readr.o)
 .debug_line    0x0000000000026c78      0x34d /opt/gcc-linaro-7.2.1-2017.11-x86_64_arm-eabi/arm-eabi/libc/usr/lib/libc.a(lib_a-reent.o)
 .debug_line    0x0000000000026fc5      0x4ac /opt/gcc-linaro-7.2.1-2017.11-x86_64_arm-eabi/arm-eabi/libc/usr/lib/libc.a(lib_a-s_frexp.o)
 .debug_line    0x0000000000027471      0x335 /opt/gcc-linaro-7.2.1-2017.11-x86_64_arm-eabi/arm-eabi/libc/usr/lib/libc.a(lib_a-sbrkr.o)
 .debug_line    0x00000000000277a6      0x375 /opt/gcc-linaro-7.2.1-2017.11-x86_64_arm-eabi/arm-eabi/libc/usr/lib/libc.a(lib_a-sccl.o)
 .debug_line    0x0000000000027b1b      0x317 /opt/gcc-linaro-7.2.1-2017.11-x86_64_arm-eabi/arm-eabi/libc/usr/lib/libc.a(lib_a-sf_nan.o)
 .debug_line    0x0000000000027e32      0x344 /opt/gcc-linaro-7.2.1-2017.11-x86_64_arm-eabi/arm-eabi/libc/usr/lib/libc.a(lib_a-stpncpy.o)
 .debug_line    0x0000000000028176      0x342 /opt/gcc-linaro-7.2.1-2017.11-x86_64_arm-eabi/arm-eabi/libc/usr/lib/libc.a(lib_a-strcasecmp.o)
 .debug_line    0x00000000000284b8      0x32a /opt/gcc-linaro-7.2.1-2017.11-x86_64_arm-eabi/arm-eabi/libc/usr/lib/libc.a(lib_a-strcat.o)
 .debug_line    0x00000000000287e2      0x357 /opt/gcc-linaro-7.2.1-2017.11-x86_64_arm-eabi/arm-eabi/libc/usr/lib/libc.a(lib_a-strchr.o)
 .debug_line    0x0000000000028b39      0x332 /opt/gcc-linaro-7.2.1-2017.11-x86_64_arm-eabi/arm-eabi/libc/usr/lib/libc.a(lib_a-strlcpy.o)
 .debug_line    0x0000000000028e6b      0x353 /opt/gcc-linaro-7.2.1-2017.11-x86_64_arm-eabi/arm-eabi/libc/usr/lib/libc.a(lib_a-strncasecmp.o)
 .debug_line    0x00000000000291be      0x996 /opt/gcc-linaro-7.2.1-2017.11-x86_64_arm-eabi/arm-eabi/libc/usr/lib/libc.a(lib_a-strtod.o)
 .debug_line    0x0000000000029b54      0x486 /opt/gcc-linaro-7.2.1-2017.11-x86_64_arm-eabi/arm-eabi/libc/usr/lib/libc.a(lib_a-strtoll.o)
 .debug_line    0x0000000000029fda      0x483 /opt/gcc-linaro-7.2.1-2017.11-x86_64_arm-eabi/arm-eabi/libc/usr/lib/libc.a(lib_a-strtoull.o)
 .debug_line    0x000000000002a45d     0x1f1b /opt/gcc-linaro-7.2.1-2017.11-x86_64_arm-eabi/arm-eabi/libc/usr/lib/libc.a(lib_a-svfiprintf.o)
 .debug_line    0x000000000002c378      0xc8f /opt/gcc-linaro-7.2.1-2017.11-x86_64_arm-eabi/arm-eabi/libc/usr/lib/libc.a(lib_a-svfiscanf.o)
 .debug_line    0x000000000002d007      0x79c /opt/gcc-linaro-7.2.1-2017.11-x86_64_arm-eabi/arm-eabi/libc/usr/lib/libc.a(lib_a-syscalls.o)
 .debug_line    0x000000000002d7a3      0x3ca /opt/gcc-linaro-7.2.1-2017.11-x86_64_arm-eabi/arm-eabi/libc/usr/lib/libc.a(lib_a-ungetc.o)
 .debug_line    0x000000000002db6d      0x480 /opt/gcc-linaro-7.2.1-2017.11-x86_64_arm-eabi/arm-eabi/libc/usr/lib/libc.a(lib_a-wcsnrtombs.o)
 .debug_line    0x000000000002dfed      0x50b /opt/gcc-linaro-7.2.1-2017.11-x86_64_arm-eabi/arm-eabi/libc/usr/lib/libc.a(lib_a-wctomb_r.o)
 .debug_line    0x000000000002e4f8      0x2ad /opt/gcc-linaro-7.2.1-2017.11-x86_64_arm-eabi/arm-eabi/libc/usr/lib/libc.a(lib_a-callocr.o)
 .debug_line    0x000000000002e7a5      0x3f8 /opt/gcc-linaro-7.2.1-2017.11-x86_64_arm-eabi/arm-eabi/libc/usr/lib/libc.a(lib_a-ctype_.o)
 .debug_line    0x000000000002eb9d      0x274 /opt/gcc-linaro-7.2.1-2017.11-x86_64_arm-eabi/arm-eabi/libc/usr/lib/libc.a(lib_a-errno.o)
 .debug_line    0x000000000002ee11      0x41e /opt/gcc-linaro-7.2.1-2017.11-x86_64_arm-eabi/arm-eabi/libc/usr/lib/libc.a(lib_a-fflush.o)
 .debug_line    0x000000000002f22f      0x44f /opt/gcc-linaro-7.2.1-2017.11-x86_64_arm-eabi/arm-eabi/libc/usr/lib/libc.a(lib_a-findfp.o)
 .debug_line    0x000000000002f67e      0x38e /opt/gcc-linaro-7.2.1-2017.11-x86_64_arm-eabi/arm-eabi/libc/usr/lib/libc.a(lib_a-fwalk.o)
 .debug_line    0x000000000002fa0c      0x6a0 /opt/gcc-linaro-7.2.1-2017.11-x86_64_arm-eabi/arm-eabi/libc/usr/lib/libc.a(lib_a-gdtoa-gethex.o)
 .debug_line    0x00000000000300ac      0x4ad /opt/gcc-linaro-7.2.1-2017.11-x86_64_arm-eabi/arm-eabi/libc/usr/lib/libc.a(lib_a-gdtoa-hexnan.o)
 .debug_line    0x0000000000030559      0x363 /opt/gcc-linaro-7.2.1-2017.11-x86_64_arm-eabi/arm-eabi/libc/usr/lib/libc.a(lib_a-getenv_r.o)
 .debug_line    0x00000000000308bc      0x3a8 /opt/gcc-linaro-7.2.1-2017.11-x86_64_arm-eabi/arm-eabi/libc/usr/lib/libc.a(lib_a-reallocr.o)
 .debug_line    0x0000000000030c64       0xcc /opt/gcc-linaro-7.2.1-2017.11-x86_64_arm-eabi/arm-eabi/libc/usr/lib/libc.a(lib_a-environ.o)
 .debug_line    0x0000000000030d30      0x31b /opt/gcc-linaro-7.2.1-2017.11-x86_64_arm-eabi/arm-eabi/libc/usr/lib/libc.a(lib_a-envlock.o)
 .debug_line    0x000000000003104b      0x371 /opt/gcc-linaro-7.2.1-2017.11-x86_64_arm-eabi/arm-eabi/libc/usr/lib/libc.a(lib_a-fclose.o)
 .debug_line    0x00000000000313bc      0x48c /opt/gcc-linaro-7.2.1-2017.11-x86_64_arm-eabi/arm-eabi/libc/usr/lib/libm.a(lib_a-sf_fabs.o)
 .debug_line    0x0000000000031848       0xfd /opt/gcc-linaro-7.2.1-2017.11-x86_64_arm-eabi/arm-eabi/libc/usr/lib/libgcc.a(_udivsi3.o)
 .debug_line    0x0000000000031945       0xe0 /opt/gcc-linaro-7.2.1-2017.11-x86_64_arm-eabi/arm-eabi/libc/usr/lib/libgcc.a(_dvmd_tls.o)
 .debug_line    0x0000000000031a25      0x1ef /opt/gcc-linaro-7.2.1-2017.11-x86_64_arm-eabi/arm-eabi/libc/usr/lib/libgcc.a(_arm_addsubdf3.o)
 .debug_line    0x0000000000031c14      0x201 /opt/gcc-linaro-7.2.1-2017.11-x86_64_arm-eabi/arm-eabi/libc/usr/lib/libgcc.a(_arm_muldivdf3.o)
 .debug_line    0x0000000000031e15      0x131 /opt/gcc-linaro-7.2.1-2017.11-x86_64_arm-eabi/arm-eabi/libc/usr/lib/libgcc.a(_arm_cmpdf2.o)
 .debug_line    0x0000000000031f46       0xee /opt/gcc-linaro-7.2.1-2017.11-x86_64_arm-eabi/arm-eabi/libc/usr/lib/libgcc.a(_arm_unorddf2.o)
 .debug_line    0x0000000000032034       0xf7 /opt/gcc-linaro-7.2.1-2017.11-x86_64_arm-eabi/arm-eabi/libc/usr/lib/libgcc.a(_arm_fixdfsi.o)
 .debug_line    0x000000000003212b       0xf5 /opt/gcc-linaro-7.2.1-2017.11-x86_64_arm-eabi/arm-eabi/libc/usr/lib/libgcc.a(_arm_fixunsdfsi.o)
 .debug_line    0x0000000000032220      0x108 /opt/gcc-linaro-7.2.1-2017.11-x86_64_arm-eabi/arm-eabi/libc/usr/lib/libgcc.a(_arm_truncdfsf2.o)
 .debug_line    0x0000000000032328      0x125 /opt/gcc-linaro-7.2.1-2017.11-x86_64_arm-eabi/arm-eabi/libc/usr/lib/libgcc.a(_arm_cmpsf2.o)
 .debug_line    0x000000000003244d       0xee /opt/gcc-linaro-7.2.1-2017.11-x86_64_arm-eabi/arm-eabi/libc/usr/lib/libgcc.a(_arm_unordsf2.o)
 .debug_line    0x000000000003253b       0xe0 /opt/gcc-linaro-7.2.1-2017.11-x86_64_arm-eabi/arm-eabi/libc/usr/lib/libgcc.a(_aeabi_uldivmod.o)
 .debug_line    0x000000000003261b      0x4ff /opt/gcc-linaro-7.2.1-2017.11-x86_64_arm-eabi/arm-eabi/libc/usr/lib/libgcc.a(_udivmoddi4.o)
 .debug_line    0x0000000000032b1a       0xea /opt/gcc-linaro-7.2.1-2017.11-x86_64_arm-eabi/arm-eabi/libc/usr/lib/libgcc.a(_clzdi2.o)
 .debug_line    0x0000000000032c04       0xed /opt/gcc-linaro-7.2.1-2017.11-x86_64_arm-eabi/arm-eabi/libc/usr/lib/libgcc.a(_clzsi2.o)

.debug_str      0x0000000000000000    0x208b0
 .debug_str     0x0000000000000000     0x138e ./../../../build/tcc70xx/gcc/tcc70xx-freertos-debug/obj/main.o
                                       0x1449 (size before relaxing)
 .debug_str     0x000000000000138e     0x250b ./../../../build/tcc70xx/gcc/tcc70xx-freertos-debug/obj/can_demo.o
                                       0x384c (size before relaxing)
 .debug_str     0x0000000000003899      0x7ae ./../../../build/tcc70xx/gcc/tcc70xx-freertos-debug/obj/can_vcp_ctrl.o
                                       0x1b5b (size before relaxing)
 .debug_str     0x0000000000004047      0xc33 ./../../../build/tcc70xx/gcc/tcc70xx-freertos-debug/obj/console.o
                                       0x23d8 (size before relaxing)
 .debug_str     0x0000000000004c7a      0xbb7 ./../../../build/tcc70xx/gcc/tcc70xx-freertos-debug/obj/fwupdate.o
                                       0x1f92 (size before relaxing)
 .debug_str     0x0000000000005831       0x53 ./../../../build/tcc70xx/gcc/tcc70xx-freertos-debug/obj/idle.o
                                       0x1321 (size before relaxing)
 .debug_str     0x0000000000005884      0x624 ./../../../build/tcc70xx/gcc/tcc70xx-freertos-debug/obj/iperf_task_v3_0d.o
                                       0x1dc7 (size before relaxing)
 .debug_str     0x0000000000005ea8      0x167 ./../../../build/tcc70xx/gcc/tcc70xx-freertos-debug/obj/spi_led.o
                                       0x1477 (size before relaxing)
 .debug_str     0x000000000000600f      0x700 ./../../../build/tcc70xx/gcc/tcc70xx-freertos-debug/obj/audio_test.o
                                       0x2584 (size before relaxing)
 .debug_str     0x000000000000670f      0x1cf ./../../../build/tcc70xx/gcc/tcc70xx-freertos-debug/obj/audio_chip_veri.o
                                       0x2356 (size before relaxing)
 .debug_str     0x00000000000068de      0x14e ./../../../build/tcc70xx/gcc/tcc70xx-freertos-debug/obj/wm8904.o
                                       0x1add (size before relaxing)
 .debug_str     0x0000000000006a2c      0x135 ./../../../build/tcc70xx/gcc/tcc70xx-freertos-debug/obj/cpu_test.o
                                       0x1818 (size before relaxing)
 .debug_str     0x0000000000006b61      0x518 ./../../../build/tcc70xx/gcc/tcc70xx-freertos-debug/obj/dse_test.o
                                       0x1850 (size before relaxing)
 .debug_str     0x0000000000007079      0x380 ./../../../build/tcc70xx/gcc/tcc70xx-freertos-debug/obj/eflash_test.o
                                       0x208b (size before relaxing)
 .debug_str     0x00000000000073f9      0x9a2 ./../../../build/tcc70xx/gcc/tcc70xx-freertos-debug/obj/fmu_test.o
                                       0x20e8 (size before relaxing)
 .debug_str     0x0000000000007d9b       0xe8 ./../../../build/tcc70xx/gcc/tcc70xx-freertos-debug/obj/gdma_test.o
                                       0x1431 (size before relaxing)
 .debug_str     0x0000000000007e83       0x39 ./../../../build/tcc70xx/gcc/tcc70xx-freertos-debug/obj/gdma_ip_test.o
                                       0x131f (size before relaxing)
 .debug_str     0x0000000000007ebc       0x80 ./../../../build/tcc70xx/gcc/tcc70xx-freertos-debug/obj/gic_test.o
                                       0x190e (size before relaxing)
 .debug_str     0x0000000000007f3c      0x4cc ./../../../build/tcc70xx/gcc/tcc70xx-freertos-debug/obj/gpio_test.o
                                       0x219e (size before relaxing)
 .debug_str     0x0000000000008408      0x29c ./../../../build/tcc70xx/gcc/tcc70xx-freertos-debug/obj/gpsb_test.o
                                       0x1cf4 (size before relaxing)
 .debug_str     0x00000000000086a4      0x604 ./../../../build/tcc70xx/gcc/tcc70xx-freertos-debug/obj/hsm_test.o
                                       0x223c (size before relaxing)
 .debug_str     0x0000000000008ca8      0x11d ./../../../build/tcc70xx/gcc/tcc70xx-freertos-debug/obj/i2c_test.o
                                       0x1628 (size before relaxing)
 .debug_str     0x0000000000008dc5      0x32c ./../../../build/tcc70xx/gcc/tcc70xx-freertos-debug/obj/ictc_test.o
                                       0x1763 (size before relaxing)
 .debug_str     0x00000000000090f1      0x33d ./../../../build/tcc70xx/gcc/tcc70xx-freertos-debug/obj/lin_test.o
                                       0x17c3 (size before relaxing)
 .debug_str     0x000000000000942e       0xe6 ./../../../build/tcc70xx/gcc/tcc70xx-freertos-debug/obj/pdm_test.o
                                       0x1524 (size before relaxing)
 .debug_str     0x0000000000009514      0x3dd ./../../../build/tcc70xx/gcc/tcc70xx-freertos-debug/obj/pmu_test.o
                                       0x209f (size before relaxing)
 .debug_str     0x00000000000098f1      0x137 ./../../../build/tcc70xx/gcc/tcc70xx-freertos-debug/obj/rtc_test.o
                                       0x1838 (size before relaxing)
 .debug_str     0x0000000000009a28       0x5b ./../../../build/tcc70xx/gcc/tcc70xx-freertos-debug/obj/sfmc_test.o
                                       0x189a (size before relaxing)
 .debug_str     0x0000000000009a83      0x16a ./../../../build/tcc70xx/gcc/tcc70xx-freertos-debug/obj/echo_test.o
                                       0x1924 (size before relaxing)
 .debug_str     0x0000000000009bed      0x579 ./../../../build/tcc70xx/gcc/tcc70xx-freertos-debug/obj/timer_test.o
                                       0x1e09 (size before relaxing)
 .debug_str     0x000000000000a166      0x13a ./../../../build/tcc70xx/gcc/tcc70xx-freertos-debug/obj/uart_test.o
                                       0x1969 (size before relaxing)
 .debug_str     0x000000000000a2a0      0x344 ./../../../build/tcc70xx/gcc/tcc70xx-freertos-debug/obj/wdt_test.o
                                       0x1d26 (size before relaxing)
 .debug_str     0x000000000000a5e4      0x190 ./../../../build/tcc70xx/gcc/tcc70xx-freertos-debug/obj/writelock_test.o
                                       0x1484 (size before relaxing)
 .debug_str     0x000000000000a774       0x8f ./../../../build/tcc70xx/gcc/tcc70xx-freertos-debug/obj/eth_test.o
                                       0x180f (size before relaxing)
 .debug_str     0x000000000000a803      0x373 ./../../../build/tcc70xx/gcc/tcc70xx-freertos-debug/obj/spu_test.o
                                       0x1d5f (size before relaxing)
 .debug_str     0x000000000000ab76      0x45a ./../../../build/tcc70xx/gcc/tcc70xx-freertos-debug/obj/power_app.o
                                       0x1cdc (size before relaxing)
 .debug_str     0x000000000000afd0      0x47c ./../../../build/tcc70xx/gcc/tcc70xx-freertos-debug/obj/power_com.o
                                       0x1eca (size before relaxing)
 .debug_str     0x000000000000b44c      0x340 ./../../../build/tcc70xx/gcc/tcc70xx-freertos-debug/obj/spi_eccp.o
                                       0x1f36 (size before relaxing)
 .debug_str     0x000000000000b78c      0x2f6 ./../../../build/tcc70xx/gcc/tcc70xx-freertos-debug/obj/hsm_manager.o
                                       0x1b6e (size before relaxing)
 .debug_str     0x000000000000ba82      0x234 ./../../../build/tcc70xx/gcc/tcc70xx-freertos-debug/obj/lin.o
                                       0x196d (size before relaxing)
 .debug_str     0x000000000000bcb6      0x112 ./../../../build/tcc70xx/gcc/tcc70xx-freertos-debug/obj/swl.o
                                       0x182d (size before relaxing)
 .debug_str     0x000000000000bdc8      0x549 ./../../../build/tcc70xx/gcc/tcc70xx-freertos-debug/obj/adc.o
                                       0x1e16 (size before relaxing)
 .debug_str     0x000000000000c311      0x2ac ./../../../build/tcc70xx/gcc/tcc70xx-freertos-debug/obj/can.o
                                       0x384c (size before relaxing)
 .debug_str     0x000000000000c5bd      0x930 ./../../../build/tcc70xx/gcc/tcc70xx-freertos-debug/obj/can_drv.o
                                       0x3ef8 (size before relaxing)
 .debug_str     0x000000000000ceed      0x83c ./../../../build/tcc70xx/gcc/tcc70xx-freertos-debug/obj/can_msg.o
                                       0x3ef9 (size before relaxing)
 .debug_str     0x000000000000d729       0xbb ./../../../build/tcc70xx/gcc/tcc70xx-freertos-debug/obj/can_par.o
                                       0x1dfb (size before relaxing)
 .debug_str     0x000000000000d7e4      0x4b2 ./../../../build/tcc70xx/gcc/tcc70xx-freertos-debug/obj/can_porting.o
                                       0x4445 (size before relaxing)
 .debug_str     0x000000000000dc96      0xe05 ./../../../build/tcc70xx/gcc/tcc70xx-freertos-debug/obj/clock_dev.o
                                       0x2821 (size before relaxing)
 .debug_str     0x000000000000ea9b       0xf2 ./../../../build/tcc70xx/gcc/tcc70xx-freertos-debug/obj/debug.o
                                       0x13f5 (size before relaxing)
 .debug_str     0x000000000000eb8d       0xa2 ./../../../build/tcc70xx/gcc/tcc70xx-freertos-debug/obj/bsp.o
                                       0x13c4 (size before relaxing)
 .debug_str     0x000000000000ec2f       0xc3 ./../../../build/tcc70xx/gcc/tcc70xx-freertos-debug/obj/dse.o
                                       0x1962 (size before relaxing)
 .debug_str     0x000000000000ecf2      0x3a6 ./../../../build/tcc70xx/gcc/tcc70xx-freertos-debug/obj/eflash.o
                                       0x1c27 (size before relaxing)
 .debug_str     0x000000000000f098      0x754 ./../../../build/tcc70xx/gcc/tcc70xx-freertos-debug/obj/eth.o
                                       0x2e55 (size before relaxing)
 .debug_str     0x000000000000f7ec      0x176 ./../../../build/tcc70xx/gcc/tcc70xx-freertos-debug/obj/eth_mii.o
                                       0x1718 (size before relaxing)
 .debug_str     0x000000000000f962      0x1d3 ./../../../build/tcc70xx/gcc/tcc70xx-freertos-debug/obj/fmu.o
                                       0x2803 (size before relaxing)
 .debug_str     0x000000000000fb35      0x30d ./../../../build/tcc70xx/gcc/tcc70xx-freertos-debug/obj/gdma.o
                                       0x2154 (size before relaxing)
 .debug_str     0x000000000000fe42      0x228 ./../../../build/tcc70xx/gcc/tcc70xx-freertos-debug/obj/gic.o
                                       0x1adf (size before relaxing)
 .debug_str     0x000000000001006a      0x1ba ./../../../build/tcc70xx/gcc/tcc70xx-freertos-debug/obj/gpio.o
                                       0x1a70 (size before relaxing)
 .debug_str     0x0000000000010224      0x589 ./../../../build/tcc70xx/gcc/tcc70xx-freertos-debug/obj/gpsb.o
                                       0x2388 (size before relaxing)
 .debug_str     0x00000000000107ad       0x35 ./../../../build/tcc70xx/gcc/tcc70xx-freertos-debug/obj/gpsb_reg.o
                                       0x1cbd (size before relaxing)
 .debug_str     0x00000000000107e2      0x331 ./../../../build/tcc70xx/gcc/tcc70xx-freertos-debug/obj/i2c.o
                                       0x25e7 (size before relaxing)
 .debug_str     0x0000000000010b13       0x33 ./../../../build/tcc70xx/gcc/tcc70xx-freertos-debug/obj/i2c_reg.o
                                       0x1cf0 (size before relaxing)
 .debug_str     0x0000000000010b46      0x762 ./../../../build/tcc70xx/gcc/tcc70xx-freertos-debug/obj/i2s.o
                                       0x23ec (size before relaxing)
 .debug_str     0x00000000000112a8      0x3c6 ./../../../build/tcc70xx/gcc/tcc70xx-freertos-debug/obj/ictc.o
                                       0x204f (size before relaxing)
 .debug_str     0x000000000001166e       0x69 ./../../../build/tcc70xx/gcc/tcc70xx-freertos-debug/obj/mbox.o
                                       0x137e (size before relaxing)
 .debug_str     0x00000000000116d7       0xcd ./../../../build/tcc70xx/gcc/tcc70xx-freertos-debug/obj/midf.o
                                       0x13da (size before relaxing)
 .debug_str     0x00000000000117a4      0x12b ./../../../build/tcc70xx/gcc/tcc70xx-freertos-debug/obj/mpu.o
                                       0x1440 (size before relaxing)
 .debug_str     0x00000000000118cf       0x9f ./../../../build/tcc70xx/gcc/tcc70xx-freertos-debug/obj/preload.o
                                       0x17b4 (size before relaxing)
 .debug_str     0x000000000001196e      0x52a ./../../../build/tcc70xx/gcc/tcc70xx-freertos-debug/obj/pdm.o
                                       0x1cc0 (size before relaxing)
 .debug_str     0x0000000000011e98      0x457 ./../../../build/tcc70xx/gcc/tcc70xx-freertos-debug/obj/pmio_dev.o
                                       0x1db8 (size before relaxing)
 .debug_str     0x00000000000122ef      0x10b ./../../../build/tcc70xx/gcc/tcc70xx-freertos-debug/obj/pmio_dev_extn_pw_ctl.o
                                       0x19ee (size before relaxing)
 .debug_str     0x00000000000123fa      0x1ba ./../../../build/tcc70xx/gcc/tcc70xx-freertos-debug/obj/pmu.o
                                       0x197b (size before relaxing)
 .debug_str     0x00000000000125b4      0x197 ./../../../build/tcc70xx/gcc/tcc70xx-freertos-debug/obj/rtc_dev.o
                                       0x1a94 (size before relaxing)
 .debug_str     0x000000000001274b      0x879 ./../../../build/tcc70xx/gcc/tcc70xx-freertos-debug/obj/snor_mio.o
                                       0x1c3d (size before relaxing)
 .debug_str     0x0000000000012fc4      0x614 ./../../../build/tcc70xx/gcc/tcc70xx-freertos-debug/obj/spu.o
                                       0x201c (size before relaxing)
 .debug_str     0x00000000000135d8      0x2c0 ./../../../build/tcc70xx/gcc/tcc70xx-freertos-debug/obj/ssm.o
                                       0x1ae9 (size before relaxing)
 .debug_str     0x0000000000013898      0x30a ./../../../build/tcc70xx/gcc/tcc70xx-freertos-debug/obj/timer.o
                                       0x1dca (size before relaxing)
 .debug_str     0x0000000000013ba2      0x498 ./../../../build/tcc70xx/gcc/tcc70xx-freertos-debug/obj/uart.o
                                       0x28c9 (size before relaxing)
 .debug_str     0x000000000001403a      0x1f3 ./../../../build/tcc70xx/gcc/tcc70xx-freertos-debug/obj/wdt.o
                                       0x2329 (size before relaxing)
 .debug_str     0x000000000001422d      0x28f ./../../../build/tcc70xx/gcc/tcc70xx-freertos-debug/obj/wdt_pmu.o
                                       0x2390 (size before relaxing)
 .debug_str     0x00000000000144bc      0xcf8 ./../../../build/tcc70xx/gcc/tcc70xx-freertos-debug/obj/tasks.o
                                       0x1426 (size before relaxing)
 .debug_str     0x00000000000151b4       0xa8 ./../../../build/tcc70xx/gcc/tcc70xx-freertos-debug/obj/list.o
                                        0x6f6 (size before relaxing)
 .debug_str     0x000000000001525c      0x7b1 ./../../../build/tcc70xx/gcc/tcc70xx-freertos-debug/obj/queue.o
                                        0xf7a (size before relaxing)
 .debug_str     0x0000000000015a0d      0x2bf ./../../../build/tcc70xx/gcc/tcc70xx-freertos-debug/obj/event_groups.o
                                        0xa11 (size before relaxing)
 .debug_str     0x0000000000015ccc      0x581 ./../../../build/tcc70xx/gcc/tcc70xx-freertos-debug/obj/timers.o
                                        0xe5a (size before relaxing)
 .debug_str     0x000000000001624d      0x475 ./../../../build/tcc70xx/gcc/tcc70xx-freertos-debug/obj/stream_buffer.o
                                        0xbaa (size before relaxing)
 .debug_str     0x00000000000166c2      0x411 ./../../../build/tcc70xx/gcc/tcc70xx-freertos-debug/obj/port.o
                                       0x2273 (size before relaxing)
 .debug_str     0x0000000000016ad3      0x30f ./../../../build/tcc70xx/gcc/tcc70xx-freertos-debug/obj/heap_5.o
                                        0x924 (size before relaxing)
 .debug_str     0x0000000000016de2      0x4c7 ./../../../build/tcc70xx/gcc/tcc70xx-freertos-debug/obj/FreeRTOS_ARP.o
                                       0x1f0d (size before relaxing)
 .debug_str     0x00000000000172a9       0x3f ./../../../build/tcc70xx/gcc/tcc70xx-freertos-debug/obj/FreeRTOS_DHCP.o
                                       0x199c (size before relaxing)
 .debug_str     0x00000000000172e8      0xc21 ./../../../build/tcc70xx/gcc/tcc70xx-freertos-debug/obj/FreeRTOS_DNS.o
                                       0x27fe (size before relaxing)
 .debug_str     0x0000000000017f09      0x8d2 ./../../../build/tcc70xx/gcc/tcc70xx-freertos-debug/obj/FreeRTOS_IP.o
                                       0x2ff1 (size before relaxing)
 .debug_str     0x00000000000187db      0x901 ./../../../build/tcc70xx/gcc/tcc70xx-freertos-debug/obj/FreeRTOS_Sockets.o
                                       0x2e29 (size before relaxing)
 .debug_str     0x00000000000190dc       0xb7 ./../../../build/tcc70xx/gcc/tcc70xx-freertos-debug/obj/FreeRTOS_Stream_Buffer.o
                                       0x1b27 (size before relaxing)
 .debug_str     0x0000000000019193      0x5a7 ./../../../build/tcc70xx/gcc/tcc70xx-freertos-debug/obj/FreeRTOS_TCP_IP.o
                                       0x2c08 (size before relaxing)
 .debug_str     0x000000000001973a      0x398 ./../../../build/tcc70xx/gcc/tcc70xx-freertos-debug/obj/FreeRTOS_TCP_WIN.o
                                       0x2092 (size before relaxing)
 .debug_str     0x0000000000019ad2       0x89 ./../../../build/tcc70xx/gcc/tcc70xx-freertos-debug/obj/FreeRTOS_UDP_IP.o
                                       0x246e (size before relaxing)
 .debug_str     0x0000000000019b5b      0x12d ./../../../build/tcc70xx/gcc/tcc70xx-freertos-debug/obj/FreeRTOS_Port.o
                                       0x18f0 (size before relaxing)
 .debug_str     0x0000000000019c88      0x210 ./../../../build/tcc70xx/gcc/tcc70xx-freertos-debug/obj/BufferAllocation_1.o
                                       0x1c96 (size before relaxing)
 .debug_str     0x0000000000019e98      0x119 ./../../../build/tcc70xx/gcc/tcc70xx-freertos-debug/obj/NetworkInterface.o
                                       0x1d5e (size before relaxing)
 .debug_str     0x0000000000019fb1       0xce ./../../../build/tcc70xx/gcc/tcc70xx-freertos-debug/obj/sal_api.o
                                       0x177a (size before relaxing)
 .debug_str     0x000000000001a07f      0x541 ./../../../build/tcc70xx/gcc/tcc70xx-freertos-debug/obj/sal_freertos_impl.o
                                       0x1f29 (size before relaxing)
 .debug_str     0x000000000001a5c0      0x1c3 /opt/gcc-linaro-7.2.1-2017.11-x86_64_arm-eabi/arm-eabi/libc/usr/lib/libc.a(lib_a-atoi.o)
                                        0x641 (size before relaxing)
 .debug_str     0x000000000001a783      0x183 /opt/gcc-linaro-7.2.1-2017.11-x86_64_arm-eabi/arm-eabi/libc/usr/lib/libc.a(lib_a-memcmp.o)
                                        0x629 (size before relaxing)
 .debug_str     0x000000000001a906      0x1b9 /opt/gcc-linaro-7.2.1-2017.11-x86_64_arm-eabi/arm-eabi/libc/usr/lib/libc.a(lib_a-memcpy-stub.o)
                                        0x65f (size before relaxing)
 .debug_str     0x000000000001aabf      0x303 /opt/gcc-linaro-7.2.1-2017.11-x86_64_arm-eabi/arm-eabi/libc/usr/lib/libc.a(lib_a-memmove.o)
                                        0x971 (size before relaxing)
 .debug_str     0x000000000001adc2       0xbf /opt/gcc-linaro-7.2.1-2017.11-x86_64_arm-eabi/arm-eabi/libc/usr/lib/libc.a(lib_a-memset.o)
                                        0x952 (size before relaxing)
 .debug_str     0x000000000001ae81      0x2c4 /opt/gcc-linaro-7.2.1-2017.11-x86_64_arm-eabi/arm-eabi/libc/usr/lib/libc.a(lib_a-snprintf.o)
                                        0x7c6 (size before relaxing)
 .debug_str     0x000000000001b145       0xbe /opt/gcc-linaro-7.2.1-2017.11-x86_64_arm-eabi/arm-eabi/libc/usr/lib/libc.a(lib_a-sprintf.o)
                                        0x7a0 (size before relaxing)
 .debug_str     0x000000000001b203       0xd0 /opt/gcc-linaro-7.2.1-2017.11-x86_64_arm-eabi/arm-eabi/libc/usr/lib/libc.a(lib_a-sscanf.o)
                                        0x7a5 (size before relaxing)
 .debug_str     0x000000000001b2d3      0x109 /opt/gcc-linaro-7.2.1-2017.11-x86_64_arm-eabi/arm-eabi/libc/usr/lib/libc.a(lib_a-stdio.o)
                                        0x7ef (size before relaxing)
 .debug_str     0x000000000001b3dc       0xb7 /opt/gcc-linaro-7.2.1-2017.11-x86_64_arm-eabi/arm-eabi/libc/usr/lib/libc.a(lib_a-strcpy.o)
                                        0x62c (size before relaxing)
 .debug_str     0x000000000001b493       0xb5 /opt/gcc-linaro-7.2.1-2017.11-x86_64_arm-eabi/arm-eabi/libc/usr/lib/libc.a(lib_a-strlen-stub.o)
                                        0x638 (size before relaxing)
 .debug_str     0x000000000001b548       0xb4 /opt/gcc-linaro-7.2.1-2017.11-x86_64_arm-eabi/arm-eabi/libc/usr/lib/libc.a(lib_a-strncmp.o)
                                        0x62b (size before relaxing)
 .debug_str     0x000000000001b5fc       0xb4 /opt/gcc-linaro-7.2.1-2017.11-x86_64_arm-eabi/arm-eabi/libc/usr/lib/libc.a(lib_a-strncpy.o)
                                        0x653 (size before relaxing)
 .debug_str     0x000000000001b6b0       0xb4 /opt/gcc-linaro-7.2.1-2017.11-x86_64_arm-eabi/arm-eabi/libc/usr/lib/libc.a(lib_a-strnlen.o)
                                        0x631 (size before relaxing)
 .debug_str     0x000000000001b764      0x125 /opt/gcc-linaro-7.2.1-2017.11-x86_64_arm-eabi/arm-eabi/libc/usr/lib/libc.a(lib_a-strtol.o)
                                        0x9f5 (size before relaxing)
 .debug_str     0x000000000001b889       0xca /opt/gcc-linaro-7.2.1-2017.11-x86_64_arm-eabi/arm-eabi/libc/usr/lib/libc.a(lib_a-strtoul.o)
                                        0x9fa (size before relaxing)
 .debug_str     0x000000000001b953      0x438 /opt/gcc-linaro-7.2.1-2017.11-x86_64_arm-eabi/arm-eabi/libc/usr/lib/libc.a(lib_a-svfprintf.o)
                                        0xfc2 (size before relaxing)
 .debug_str     0x000000000001bd8b      0x1fc /opt/gcc-linaro-7.2.1-2017.11-x86_64_arm-eabi/arm-eabi/libc/usr/lib/libc.a(lib_a-svfscanf.o)
                                        0xd8a (size before relaxing)
 .debug_str     0x000000000001bf87       0xb4 /opt/gcc-linaro-7.2.1-2017.11-x86_64_arm-eabi/arm-eabi/libc/usr/lib/libc.a(lib_a-wcrtomb.o)
                                        0x9c2 (size before relaxing)
 .debug_str     0x000000000001c03b       0xc6 /opt/gcc-linaro-7.2.1-2017.11-x86_64_arm-eabi/arm-eabi/libc/usr/lib/libc.a(lib_a-wcsrtombs.o)
                                        0x65c (size before relaxing)
 .debug_str     0x000000000001c101      0x17a /opt/gcc-linaro-7.2.1-2017.11-x86_64_arm-eabi/arm-eabi/libc/usr/lib/libc.a(lib_a-writer.o)
                                        0x665 (size before relaxing)
 .debug_str     0x000000000001c27b       0xaa /opt/gcc-linaro-7.2.1-2017.11-x86_64_arm-eabi/arm-eabi/libc/usr/lib/libc.a(lib_a-closer.o)
                                        0x655 (size before relaxing)
 .debug_str     0x000000000001c325      0x1d6 /opt/gcc-linaro-7.2.1-2017.11-x86_64_arm-eabi/arm-eabi/libc/usr/lib/libc.a(lib_a-dtoa.o)
                                        0xb2b (size before relaxing)
 .debug_str     0x000000000001c4fb      0x218 /opt/gcc-linaro-7.2.1-2017.11-x86_64_arm-eabi/arm-eabi/libc/usr/lib/libc.a(lib_a-freer.o)
                                        0x806 (size before relaxing)
 .debug_str     0x000000000001c713       0xb6 /opt/gcc-linaro-7.2.1-2017.11-x86_64_arm-eabi/arm-eabi/libc/usr/lib/libc.a(lib_a-impure.o)
                                        0x625 (size before relaxing)
 .debug_str     0x000000000001c7c9      0x17c /opt/gcc-linaro-7.2.1-2017.11-x86_64_arm-eabi/arm-eabi/libc/usr/lib/libc.a(lib_a-iswspace.o)
                                        0x94f (size before relaxing)
 .debug_str     0x000000000001c945       0xe9 /opt/gcc-linaro-7.2.1-2017.11-x86_64_arm-eabi/arm-eabi/libc/usr/lib/libc.a(lib_a-jp2uc.o)
                                        0x9bf (size before relaxing)
 .debug_str     0x000000000001ca2e      0x2c2 /opt/gcc-linaro-7.2.1-2017.11-x86_64_arm-eabi/arm-eabi/libc/usr/lib/libc.a(lib_a-locale.o)
                                        0xb66 (size before relaxing)
 .debug_str     0x000000000001ccf0       0xd8 /opt/gcc-linaro-7.2.1-2017.11-x86_64_arm-eabi/arm-eabi/libc/usr/lib/libc.a(lib_a-localeconv.o)
                                        0x9c2 (size before relaxing)
 .debug_str     0x000000000001cdc8       0xb1 /opt/gcc-linaro-7.2.1-2017.11-x86_64_arm-eabi/arm-eabi/libc/usr/lib/libc.a(lib_a-lseekr.o)
                                        0x663 (size before relaxing)
 .debug_str     0x000000000001ce79       0xb0 /opt/gcc-linaro-7.2.1-2017.11-x86_64_arm-eabi/arm-eabi/libc/usr/lib/libc.a(lib_a-mallocr.o)
                                        0x88d (size before relaxing)
 .debug_str     0x000000000001cf29       0xb4 /opt/gcc-linaro-7.2.1-2017.11-x86_64_arm-eabi/arm-eabi/libc/usr/lib/libc.a(lib_a-mbrtowc.o)
                                        0x9c2 (size before relaxing)
 .debug_str     0x000000000001cfdd      0x1cf /opt/gcc-linaro-7.2.1-2017.11-x86_64_arm-eabi/arm-eabi/libc/usr/lib/libc.a(lib_a-mbtowc_r.o)
                                        0xafe (size before relaxing)
 .debug_str     0x000000000001d1ac       0xba /opt/gcc-linaro-7.2.1-2017.11-x86_64_arm-eabi/arm-eabi/libc/usr/lib/libc.a(lib_a-memchr-stub.o)
                                        0x652 (size before relaxing)
 .debug_str     0x000000000001d266       0xbf /opt/gcc-linaro-7.2.1-2017.11-x86_64_arm-eabi/arm-eabi/libc/usr/lib/libc.a(lib_a-mlock.o)
                                        0x64d (size before relaxing)
 .debug_str     0x000000000001d325      0x104 /opt/gcc-linaro-7.2.1-2017.11-x86_64_arm-eabi/arm-eabi/libc/usr/lib/libc.a(lib_a-mprec.o)
                                        0xad4 (size before relaxing)
 .debug_str     0x000000000001d429       0xa9 /opt/gcc-linaro-7.2.1-2017.11-x86_64_arm-eabi/arm-eabi/libc/usr/lib/libc.a(lib_a-readr.o)
                                        0x663 (size before relaxing)
 .debug_str     0x000000000001d4d2       0xd5 /opt/gcc-linaro-7.2.1-2017.11-x86_64_arm-eabi/arm-eabi/libc/usr/lib/libc.a(lib_a-reent.o)
                                        0x661 (size before relaxing)
 .debug_str     0x000000000001d5a7      0x1b0 /opt/gcc-linaro-7.2.1-2017.11-x86_64_arm-eabi/arm-eabi/libc/usr/lib/libc.a(lib_a-s_frexp.o)
                                        0x6d8 (size before relaxing)
 .debug_str     0x000000000001d757       0xbe /opt/gcc-linaro-7.2.1-2017.11-x86_64_arm-eabi/arm-eabi/libc/usr/lib/libc.a(lib_a-sbrkr.o)
                                        0x668 (size before relaxing)
 .debug_str     0x000000000001d815       0xb8 /opt/gcc-linaro-7.2.1-2017.11-x86_64_arm-eabi/arm-eabi/libc/usr/lib/libc.a(lib_a-sccl.o)
                                        0x769 (size before relaxing)
 .debug_str     0x000000000001d8cd      0x17c /opt/gcc-linaro-7.2.1-2017.11-x86_64_arm-eabi/arm-eabi/libc/usr/lib/libc.a(lib_a-sf_nan.o)
                                        0x68f (size before relaxing)
 .debug_str     0x000000000001da49       0xac /opt/gcc-linaro-7.2.1-2017.11-x86_64_arm-eabi/arm-eabi/libc/usr/lib/libc.a(lib_a-stpncpy.o)
                                        0x649 (size before relaxing)
 .debug_str     0x000000000001daf5       0xaf /opt/gcc-linaro-7.2.1-2017.11-x86_64_arm-eabi/arm-eabi/libc/usr/lib/libc.a(lib_a-strcasecmp.o)
                                        0x645 (size before relaxing)
 .debug_str     0x000000000001dba4       0xb6 /opt/gcc-linaro-7.2.1-2017.11-x86_64_arm-eabi/arm-eabi/libc/usr/lib/libc.a(lib_a-strcat.o)
                                        0x634 (size before relaxing)
 .debug_str     0x000000000001dc5a       0xab /opt/gcc-linaro-7.2.1-2017.11-x86_64_arm-eabi/arm-eabi/libc/usr/lib/libc.a(lib_a-strchr.o)
                                        0x634 (size before relaxing)
 .debug_str     0x000000000001dd05       0xac /opt/gcc-linaro-7.2.1-2017.11-x86_64_arm-eabi/arm-eabi/libc/usr/lib/libc.a(lib_a-strlcpy.o)
                                        0x62b (size before relaxing)
 .debug_str     0x000000000001ddb1       0xb0 /opt/gcc-linaro-7.2.1-2017.11-x86_64_arm-eabi/arm-eabi/libc/usr/lib/libc.a(lib_a-strncasecmp.o)
                                        0x64e (size before relaxing)
 .debug_str     0x000000000001de61      0x257 /opt/gcc-linaro-7.2.1-2017.11-x86_64_arm-eabi/arm-eabi/libc/usr/lib/libc.a(lib_a-strtod.o)
                                        0xcc6 (size before relaxing)
 .debug_str     0x000000000001e0b8       0xbf /opt/gcc-linaro-7.2.1-2017.11-x86_64_arm-eabi/arm-eabi/libc/usr/lib/libc.a(lib_a-strtoll.o)
                                        0x9fa (size before relaxing)
 .debug_str     0x000000000001e177       0xc2 /opt/gcc-linaro-7.2.1-2017.11-x86_64_arm-eabi/arm-eabi/libc/usr/lib/libc.a(lib_a-strtoull.o)
                                        0x9ff (size before relaxing)
 .debug_str     0x000000000001e239       0x28 /opt/gcc-linaro-7.2.1-2017.11-x86_64_arm-eabi/arm-eabi/libc/usr/lib/libc.a(lib_a-svfiprintf.o)
                                        0xf39 (size before relaxing)
 .debug_str     0x000000000001e261       0x1f /opt/gcc-linaro-7.2.1-2017.11-x86_64_arm-eabi/arm-eabi/libc/usr/lib/libc.a(lib_a-svfiscanf.o)
                                        0xcc7 (size before relaxing)
 .debug_str     0x000000000001e280      0x45c /opt/gcc-linaro-7.2.1-2017.11-x86_64_arm-eabi/arm-eabi/libc/usr/lib/libc.a(lib_a-syscalls.o)
                                        0xa33 (size before relaxing)
 .debug_str     0x000000000001e6dc       0xd5 /opt/gcc-linaro-7.2.1-2017.11-x86_64_arm-eabi/arm-eabi/libc/usr/lib/libc.a(lib_a-ungetc.o)
                                        0x7be (size before relaxing)
 .debug_str     0x000000000001e7b1       0xcd /opt/gcc-linaro-7.2.1-2017.11-x86_64_arm-eabi/arm-eabi/libc/usr/lib/libc.a(lib_a-wcsnrtombs.o)
                                        0x9e2 (size before relaxing)
 .debug_str     0x000000000001e87e      0x111 /opt/gcc-linaro-7.2.1-2017.11-x86_64_arm-eabi/arm-eabi/libc/usr/lib/libc.a(lib_a-wctomb_r.o)
                                        0xa13 (size before relaxing)
 .debug_str     0x000000000001e98f        0xf /opt/gcc-linaro-7.2.1-2017.11-x86_64_arm-eabi/arm-eabi/libc/usr/lib/libc.a(lib_a-callocr.o)
                                        0x7b1 (size before relaxing)
 .debug_str     0x000000000001e99e       0xaa /opt/gcc-linaro-7.2.1-2017.11-x86_64_arm-eabi/arm-eabi/libc/usr/lib/libc.a(lib_a-ctype_.o)
                                        0x951 (size before relaxing)
 .debug_str     0x000000000001ea48      0x179 /opt/gcc-linaro-7.2.1-2017.11-x86_64_arm-eabi/arm-eabi/libc/usr/lib/libc.a(lib_a-errno.o)
                                        0x637 (size before relaxing)
 .debug_str     0x000000000001ebc1       0xda /opt/gcc-linaro-7.2.1-2017.11-x86_64_arm-eabi/arm-eabi/libc/usr/lib/libc.a(lib_a-fflush.o)
                                        0x7d7 (size before relaxing)
 .debug_str     0x000000000001ec9b      0x187 /opt/gcc-linaro-7.2.1-2017.11-x86_64_arm-eabi/arm-eabi/libc/usr/lib/libc.a(lib_a-findfp.o)
                                        0x8b3 (size before relaxing)
 .debug_str     0x000000000001ee22       0xb8 /opt/gcc-linaro-7.2.1-2017.11-x86_64_arm-eabi/arm-eabi/libc/usr/lib/libc.a(lib_a-fwalk.o)
                                        0x79b (size before relaxing)
 .debug_str     0x000000000001eeda      0x137 /opt/gcc-linaro-7.2.1-2017.11-x86_64_arm-eabi/arm-eabi/libc/usr/lib/libc.a(lib_a-gdtoa-gethex.o)
                                        0xbfd (size before relaxing)
 .debug_str     0x000000000001f011       0xb9 /opt/gcc-linaro-7.2.1-2017.11-x86_64_arm-eabi/arm-eabi/libc/usr/lib/libc.a(lib_a-gdtoa-hexnan.o)
                                        0xb08 (size before relaxing)
 .debug_str     0x000000000001f0ca       0xda /opt/gcc-linaro-7.2.1-2017.11-x86_64_arm-eabi/arm-eabi/libc/usr/lib/libc.a(lib_a-getenv_r.o)
                                        0x684 (size before relaxing)
 .debug_str     0x000000000001f1a4       0x4e /opt/gcc-linaro-7.2.1-2017.11-x86_64_arm-eabi/arm-eabi/libc/usr/lib/libc.a(lib_a-reallocr.o)
                                        0x844 (size before relaxing)
 .debug_str     0x000000000001f1f2       0xb8 /opt/gcc-linaro-7.2.1-2017.11-x86_64_arm-eabi/arm-eabi/libc/usr/lib/libc.a(lib_a-environ.o)
                                        0x1ce (size before relaxing)
 .debug_str     0x000000000001f2aa       0xbe /opt/gcc-linaro-7.2.1-2017.11-x86_64_arm-eabi/arm-eabi/libc/usr/lib/libc.a(lib_a-envlock.o)
                                        0x646 (size before relaxing)
 .debug_str     0x000000000001f368       0xbb /opt/gcc-linaro-7.2.1-2017.11-x86_64_arm-eabi/arm-eabi/libc/usr/lib/libc.a(lib_a-fclose.o)
                                        0x7c0 (size before relaxing)
 .debug_str     0x000000000001f423       0xd5 /opt/gcc-linaro-7.2.1-2017.11-x86_64_arm-eabi/arm-eabi/libc/usr/lib/libm.a(lib_a-sf_fabs.o)
                                        0x6bc (size before relaxing)
 .debug_str     0x000000000001f4f8     0x13b8 /opt/gcc-linaro-7.2.1-2017.11-x86_64_arm-eabi/arm-eabi/libc/usr/lib/libgcc.a(_udivmoddi4.o)
                                       0x18a8 (size before relaxing)

.comment        0x0000000000000000       0x2d
 .comment       0x0000000000000000       0x2d ./../../../build/tcc70xx/gcc/tcc70xx-freertos-debug/obj/main.o
                                         0x2e (size before relaxing)
 .comment       0x000000000000002d       0x2e ./../../../build/tcc70xx/gcc/tcc70xx-freertos-debug/obj/can_demo.o
 .comment       0x000000000000002d       0x2e ./../../../build/tcc70xx/gcc/tcc70xx-freertos-debug/obj/can_vcp_ctrl.o
 .comment       0x000000000000002d       0x2e ./../../../build/tcc70xx/gcc/tcc70xx-freertos-debug/obj/console.o
 .comment       0x000000000000002d       0x2e ./../../../build/tcc70xx/gcc/tcc70xx-freertos-debug/obj/fwupdate.o
 .comment       0x000000000000002d       0x2e ./../../../build/tcc70xx/gcc/tcc70xx-freertos-debug/obj/idle.o
 .comment       0x000000000000002d       0x2e ./../../../build/tcc70xx/gcc/tcc70xx-freertos-debug/obj/iperf_task_v3_0d.o
 .comment       0x000000000000002d       0x2e ./../../../build/tcc70xx/gcc/tcc70xx-freertos-debug/obj/spi_led.o
 .comment       0x000000000000002d       0x2e ./../../../build/tcc70xx/gcc/tcc70xx-freertos-debug/obj/audio_test.o
 .comment       0x000000000000002d       0x2e ./../../../build/tcc70xx/gcc/tcc70xx-freertos-debug/obj/audio_chip_veri.o
 .comment       0x000000000000002d       0x2e ./../../../build/tcc70xx/gcc/tcc70xx-freertos-debug/obj/wm8904.o
 .comment       0x000000000000002d       0x2e ./../../../build/tcc70xx/gcc/tcc70xx-freertos-debug/obj/cpu_test.o
 .comment       0x000000000000002d       0x2e ./../../../build/tcc70xx/gcc/tcc70xx-freertos-debug/obj/dse_test.o
 .comment       0x000000000000002d       0x2e ./../../../build/tcc70xx/gcc/tcc70xx-freertos-debug/obj/eflash_test.o
 .comment       0x000000000000002d       0x2e ./../../../build/tcc70xx/gcc/tcc70xx-freertos-debug/obj/fmu_test.o
 .comment       0x000000000000002d       0x2e ./../../../build/tcc70xx/gcc/tcc70xx-freertos-debug/obj/gdma_test.o
 .comment       0x000000000000002d       0x2e ./../../../build/tcc70xx/gcc/tcc70xx-freertos-debug/obj/gdma_ip_test.o
 .comment       0x000000000000002d       0x2e ./../../../build/tcc70xx/gcc/tcc70xx-freertos-debug/obj/gic_test.o
 .comment       0x000000000000002d       0x2e ./../../../build/tcc70xx/gcc/tcc70xx-freertos-debug/obj/gpio_test.o
 .comment       0x000000000000002d       0x2e ./../../../build/tcc70xx/gcc/tcc70xx-freertos-debug/obj/gpsb_test.o
 .comment       0x000000000000002d       0x2e ./../../../build/tcc70xx/gcc/tcc70xx-freertos-debug/obj/hsm_test.o
 .comment       0x000000000000002d       0x2e ./../../../build/tcc70xx/gcc/tcc70xx-freertos-debug/obj/i2c_test.o
 .comment       0x000000000000002d       0x2e ./../../../build/tcc70xx/gcc/tcc70xx-freertos-debug/obj/ictc_test.o
 .comment       0x000000000000002d       0x2e ./../../../build/tcc70xx/gcc/tcc70xx-freertos-debug/obj/lin_test.o
 .comment       0x000000000000002d       0x2e ./../../../build/tcc70xx/gcc/tcc70xx-freertos-debug/obj/pdm_test.o
 .comment       0x000000000000002d       0x2e ./../../../build/tcc70xx/gcc/tcc70xx-freertos-debug/obj/pmu_test.o
 .comment       0x000000000000002d       0x2e ./../../../build/tcc70xx/gcc/tcc70xx-freertos-debug/obj/rtc_test.o
 .comment       0x000000000000002d       0x2e ./../../../build/tcc70xx/gcc/tcc70xx-freertos-debug/obj/sfmc_test.o
 .comment       0x000000000000002d       0x2e ./../../../build/tcc70xx/gcc/tcc70xx-freertos-debug/obj/echo_test.o
 .comment       0x000000000000002d       0x2e ./../../../build/tcc70xx/gcc/tcc70xx-freertos-debug/obj/timer_test.o
 .comment       0x000000000000002d       0x2e ./../../../build/tcc70xx/gcc/tcc70xx-freertos-debug/obj/uart_test.o
 .comment       0x000000000000002d       0x2e ./../../../build/tcc70xx/gcc/tcc70xx-freertos-debug/obj/wdt_test.o
 .comment       0x000000000000002d       0x2e ./../../../build/tcc70xx/gcc/tcc70xx-freertos-debug/obj/writelock_test.o
 .comment       0x000000000000002d       0x2e ./../../../build/tcc70xx/gcc/tcc70xx-freertos-debug/obj/eth_test.o
 .comment       0x000000000000002d       0x2e ./../../../build/tcc70xx/gcc/tcc70xx-freertos-debug/obj/spu_test.o
 .comment       0x000000000000002d       0x2e ./../../../build/tcc70xx/gcc/tcc70xx-freertos-debug/obj/power_app.o
 .comment       0x000000000000002d       0x2e ./../../../build/tcc70xx/gcc/tcc70xx-freertos-debug/obj/power_com.o
 .comment       0x000000000000002d       0x2e ./../../../build/tcc70xx/gcc/tcc70xx-freertos-debug/obj/spi_eccp.o
 .comment       0x000000000000002d       0x2e ./../../../build/tcc70xx/gcc/tcc70xx-freertos-debug/obj/hsm_manager.o
 .comment       0x000000000000002d       0x2e ./../../../build/tcc70xx/gcc/tcc70xx-freertos-debug/obj/lin.o
 .comment       0x000000000000002d       0x2e ./../../../build/tcc70xx/gcc/tcc70xx-freertos-debug/obj/swl.o
 .comment       0x000000000000002d       0x2e ./../../../build/tcc70xx/gcc/tcc70xx-freertos-debug/obj/adc.o
 .comment       0x000000000000002d       0x2e ./../../../build/tcc70xx/gcc/tcc70xx-freertos-debug/obj/can.o
 .comment       0x000000000000002d       0x2e ./../../../build/tcc70xx/gcc/tcc70xx-freertos-debug/obj/can_drv.o
 .comment       0x000000000000002d       0x2e ./../../../build/tcc70xx/gcc/tcc70xx-freertos-debug/obj/can_msg.o
 .comment       0x000000000000002d       0x2e ./../../../build/tcc70xx/gcc/tcc70xx-freertos-debug/obj/can_par.o
 .comment       0x000000000000002d       0x2e ./../../../build/tcc70xx/gcc/tcc70xx-freertos-debug/obj/can_porting.o
 .comment       0x000000000000002d       0x2e ./../../../build/tcc70xx/gcc/tcc70xx-freertos-debug/obj/clock_dev.o
 .comment       0x000000000000002d       0x2e ./../../../build/tcc70xx/gcc/tcc70xx-freertos-debug/obj/debug.o
 .comment       0x000000000000002d       0x2e ./../../../build/tcc70xx/gcc/tcc70xx-freertos-debug/obj/bsp.o
 .comment       0x000000000000002d       0x2e ./../../../build/tcc70xx/gcc/tcc70xx-freertos-debug/obj/dse.o
 .comment       0x000000000000002d       0x2e ./../../../build/tcc70xx/gcc/tcc70xx-freertos-debug/obj/eflash.o
 .comment       0x000000000000002d       0x2e ./../../../build/tcc70xx/gcc/tcc70xx-freertos-debug/obj/eth.o
 .comment       0x000000000000002d       0x2e ./../../../build/tcc70xx/gcc/tcc70xx-freertos-debug/obj/eth_mii.o
 .comment       0x000000000000002d       0x2e ./../../../build/tcc70xx/gcc/tcc70xx-freertos-debug/obj/fmu.o
 .comment       0x000000000000002d       0x2e ./../../../build/tcc70xx/gcc/tcc70xx-freertos-debug/obj/gdma.o
 .comment       0x000000000000002d       0x2e ./../../../build/tcc70xx/gcc/tcc70xx-freertos-debug/obj/gic.o
 .comment       0x000000000000002d       0x2e ./../../../build/tcc70xx/gcc/tcc70xx-freertos-debug/obj/gpio.o
 .comment       0x000000000000002d       0x2e ./../../../build/tcc70xx/gcc/tcc70xx-freertos-debug/obj/gpsb.o
 .comment       0x000000000000002d       0x2e ./../../../build/tcc70xx/gcc/tcc70xx-freertos-debug/obj/gpsb_reg.o
 .comment       0x000000000000002d       0x2e ./../../../build/tcc70xx/gcc/tcc70xx-freertos-debug/obj/i2c.o
 .comment       0x000000000000002d       0x2e ./../../../build/tcc70xx/gcc/tcc70xx-freertos-debug/obj/i2c_reg.o
 .comment       0x000000000000002d       0x2e ./../../../build/tcc70xx/gcc/tcc70xx-freertos-debug/obj/i2s.o
 .comment       0x000000000000002d       0x2e ./../../../build/tcc70xx/gcc/tcc70xx-freertos-debug/obj/ictc.o
 .comment       0x000000000000002d       0x2e ./../../../build/tcc70xx/gcc/tcc70xx-freertos-debug/obj/mbox.o
 .comment       0x000000000000002d       0x2e ./../../../build/tcc70xx/gcc/tcc70xx-freertos-debug/obj/midf.o
 .comment       0x000000000000002d       0x2e ./../../../build/tcc70xx/gcc/tcc70xx-freertos-debug/obj/mpu.o
 .comment       0x000000000000002d       0x2e ./../../../build/tcc70xx/gcc/tcc70xx-freertos-debug/obj/preload.o
 .comment       0x000000000000002d       0x2e ./../../../build/tcc70xx/gcc/tcc70xx-freertos-debug/obj/pdm.o
 .comment       0x000000000000002d       0x2e ./../../../build/tcc70xx/gcc/tcc70xx-freertos-debug/obj/pmio_dev.o
 .comment       0x000000000000002d       0x2e ./../../../build/tcc70xx/gcc/tcc70xx-freertos-debug/obj/pmio_dev_extn_pw_ctl.o
 .comment       0x000000000000002d       0x2e ./../../../build/tcc70xx/gcc/tcc70xx-freertos-debug/obj/pmu.o
 .comment       0x000000000000002d       0x2e ./../../../build/tcc70xx/gcc/tcc70xx-freertos-debug/obj/rtc_dev.o
 .comment       0x000000000000002d       0x2e ./../../../build/tcc70xx/gcc/tcc70xx-freertos-debug/obj/snor_mio.o
 .comment       0x000000000000002d       0x2e ./../../../build/tcc70xx/gcc/tcc70xx-freertos-debug/obj/spu.o
 .comment       0x000000000000002d       0x2e ./../../../build/tcc70xx/gcc/tcc70xx-freertos-debug/obj/ssm.o
 .comment       0x000000000000002d       0x2e ./../../../build/tcc70xx/gcc/tcc70xx-freertos-debug/obj/timer.o
 .comment       0x000000000000002d       0x2e ./../../../build/tcc70xx/gcc/tcc70xx-freertos-debug/obj/uart.o
 .comment       0x000000000000002d       0x2e ./../../../build/tcc70xx/gcc/tcc70xx-freertos-debug/obj/wdt.o
 .comment       0x000000000000002d       0x2e ./../../../build/tcc70xx/gcc/tcc70xx-freertos-debug/obj/wdt_pmu.o
 .comment       0x000000000000002d       0x2e ./../../../build/tcc70xx/gcc/tcc70xx-freertos-debug/obj/tasks.o
 .comment       0x000000000000002d       0x2e ./../../../build/tcc70xx/gcc/tcc70xx-freertos-debug/obj/list.o
 .comment       0x000000000000002d       0x2e ./../../../build/tcc70xx/gcc/tcc70xx-freertos-debug/obj/queue.o
 .comment       0x000000000000002d       0x2e ./../../../build/tcc70xx/gcc/tcc70xx-freertos-debug/obj/event_groups.o
 .comment       0x000000000000002d       0x2e ./../../../build/tcc70xx/gcc/tcc70xx-freertos-debug/obj/timers.o
 .comment       0x000000000000002d       0x2e ./../../../build/tcc70xx/gcc/tcc70xx-freertos-debug/obj/stream_buffer.o
 .comment       0x000000000000002d       0x2e ./../../../build/tcc70xx/gcc/tcc70xx-freertos-debug/obj/port.o
 .comment       0x000000000000002d       0x2e ./../../../build/tcc70xx/gcc/tcc70xx-freertos-debug/obj/heap_5.o
 .comment       0x000000000000002d       0x2e ./../../../build/tcc70xx/gcc/tcc70xx-freertos-debug/obj/FreeRTOS_ARP.o
 .comment       0x000000000000002d       0x2e ./../../../build/tcc70xx/gcc/tcc70xx-freertos-debug/obj/FreeRTOS_DHCP.o
 .comment       0x000000000000002d       0x2e ./../../../build/tcc70xx/gcc/tcc70xx-freertos-debug/obj/FreeRTOS_DNS.o
 .comment       0x000000000000002d       0x2e ./../../../build/tcc70xx/gcc/tcc70xx-freertos-debug/obj/FreeRTOS_IP.o
 .comment       0x000000000000002d       0x2e ./../../../build/tcc70xx/gcc/tcc70xx-freertos-debug/obj/FreeRTOS_Sockets.o
 .comment       0x000000000000002d       0x2e ./../../../build/tcc70xx/gcc/tcc70xx-freertos-debug/obj/FreeRTOS_Stream_Buffer.o
 .comment       0x000000000000002d       0x2e ./../../../build/tcc70xx/gcc/tcc70xx-freertos-debug/obj/FreeRTOS_TCP_IP.o
 .comment       0x000000000000002d       0x2e ./../../../build/tcc70xx/gcc/tcc70xx-freertos-debug/obj/FreeRTOS_TCP_WIN.o
 .comment       0x000000000000002d       0x2e ./../../../build/tcc70xx/gcc/tcc70xx-freertos-debug/obj/FreeRTOS_UDP_IP.o
 .comment       0x000000000000002d       0x2e ./../../../build/tcc70xx/gcc/tcc70xx-freertos-debug/obj/FreeRTOS_Port.o
 .comment       0x000000000000002d       0x2e ./../../../build/tcc70xx/gcc/tcc70xx-freertos-debug/obj/BufferAllocation_1.o
 .comment       0x000000000000002d       0x2e ./../../../build/tcc70xx/gcc/tcc70xx-freertos-debug/obj/NetworkInterface.o
 .comment       0x000000000000002d       0x2e ./../../../build/tcc70xx/gcc/tcc70xx-freertos-debug/obj/sal_api.o
 .comment       0x000000000000002d       0x2e ./../../../build/tcc70xx/gcc/tcc70xx-freertos-debug/obj/sal_freertos_impl.o
 .comment       0x000000000000002d       0x2e /opt/gcc-linaro-7.2.1-2017.11-x86_64_arm-eabi/arm-eabi/libc/usr/lib/libc.a(lib_a-atoi.o)
 .comment       0x000000000000002d       0x2e /opt/gcc-linaro-7.2.1-2017.11-x86_64_arm-eabi/arm-eabi/libc/usr/lib/libc.a(lib_a-memcmp.o)
 .comment       0x000000000000002d       0x2e /opt/gcc-linaro-7.2.1-2017.11-x86_64_arm-eabi/arm-eabi/libc/usr/lib/libc.a(lib_a-memcpy-stub.o)
 .comment       0x000000000000002d       0x2e /opt/gcc-linaro-7.2.1-2017.11-x86_64_arm-eabi/arm-eabi/libc/usr/lib/libc.a(lib_a-memmove.o)
 .comment       0x000000000000002d       0x2e /opt/gcc-linaro-7.2.1-2017.11-x86_64_arm-eabi/arm-eabi/libc/usr/lib/libc.a(lib_a-memset.o)
 .comment       0x000000000000002d       0x2e /opt/gcc-linaro-7.2.1-2017.11-x86_64_arm-eabi/arm-eabi/libc/usr/lib/libc.a(lib_a-snprintf.o)
 .comment       0x000000000000002d       0x2e /opt/gcc-linaro-7.2.1-2017.11-x86_64_arm-eabi/arm-eabi/libc/usr/lib/libc.a(lib_a-sprintf.o)
 .comment       0x000000000000002d       0x2e /opt/gcc-linaro-7.2.1-2017.11-x86_64_arm-eabi/arm-eabi/libc/usr/lib/libc.a(lib_a-sscanf.o)
 .comment       0x000000000000002d       0x2e /opt/gcc-linaro-7.2.1-2017.11-x86_64_arm-eabi/arm-eabi/libc/usr/lib/libc.a(lib_a-stdio.o)
 .comment       0x000000000000002d       0x2e /opt/gcc-linaro-7.2.1-2017.11-x86_64_arm-eabi/arm-eabi/libc/usr/lib/libc.a(lib_a-strcpy.o)
 .comment       0x000000000000002d       0x2e /opt/gcc-linaro-7.2.1-2017.11-x86_64_arm-eabi/arm-eabi/libc/usr/lib/libc.a(lib_a-strlen-stub.o)
 .comment       0x000000000000002d       0x2e /opt/gcc-linaro-7.2.1-2017.11-x86_64_arm-eabi/arm-eabi/libc/usr/lib/libc.a(lib_a-strncmp.o)
 .comment       0x000000000000002d       0x2e /opt/gcc-linaro-7.2.1-2017.11-x86_64_arm-eabi/arm-eabi/libc/usr/lib/libc.a(lib_a-strncpy.o)
 .comment       0x000000000000002d       0x2e /opt/gcc-linaro-7.2.1-2017.11-x86_64_arm-eabi/arm-eabi/libc/usr/lib/libc.a(lib_a-strnlen.o)
 .comment       0x000000000000002d       0x2e /opt/gcc-linaro-7.2.1-2017.11-x86_64_arm-eabi/arm-eabi/libc/usr/lib/libc.a(lib_a-strtol.o)
 .comment       0x000000000000002d       0x2e /opt/gcc-linaro-7.2.1-2017.11-x86_64_arm-eabi/arm-eabi/libc/usr/lib/libc.a(lib_a-strtoul.o)
 .comment       0x000000000000002d       0x2e /opt/gcc-linaro-7.2.1-2017.11-x86_64_arm-eabi/arm-eabi/libc/usr/lib/libc.a(lib_a-svfprintf.o)
 .comment       0x000000000000002d       0x2e /opt/gcc-linaro-7.2.1-2017.11-x86_64_arm-eabi/arm-eabi/libc/usr/lib/libc.a(lib_a-svfscanf.o)
 .comment       0x000000000000002d       0x2e /opt/gcc-linaro-7.2.1-2017.11-x86_64_arm-eabi/arm-eabi/libc/usr/lib/libc.a(lib_a-wcrtomb.o)
 .comment       0x000000000000002d       0x2e /opt/gcc-linaro-7.2.1-2017.11-x86_64_arm-eabi/arm-eabi/libc/usr/lib/libc.a(lib_a-wcsrtombs.o)
 .comment       0x000000000000002d       0x2e /opt/gcc-linaro-7.2.1-2017.11-x86_64_arm-eabi/arm-eabi/libc/usr/lib/libc.a(lib_a-writer.o)
 .comment       0x000000000000002d       0x2e /opt/gcc-linaro-7.2.1-2017.11-x86_64_arm-eabi/arm-eabi/libc/usr/lib/libc.a(lib_a-closer.o)
 .comment       0x000000000000002d       0x2e /opt/gcc-linaro-7.2.1-2017.11-x86_64_arm-eabi/arm-eabi/libc/usr/lib/libc.a(lib_a-dtoa.o)
 .comment       0x000000000000002d       0x2e /opt/gcc-linaro-7.2.1-2017.11-x86_64_arm-eabi/arm-eabi/libc/usr/lib/libc.a(lib_a-freer.o)
 .comment       0x000000000000002d       0x2e /opt/gcc-linaro-7.2.1-2017.11-x86_64_arm-eabi/arm-eabi/libc/usr/lib/libc.a(lib_a-impure.o)
 .comment       0x000000000000002d       0x2e /opt/gcc-linaro-7.2.1-2017.11-x86_64_arm-eabi/arm-eabi/libc/usr/lib/libc.a(lib_a-iswspace.o)
 .comment       0x000000000000002d       0x2e /opt/gcc-linaro-7.2.1-2017.11-x86_64_arm-eabi/arm-eabi/libc/usr/lib/libc.a(lib_a-jp2uc.o)
 .comment       0x000000000000002d       0x2e /opt/gcc-linaro-7.2.1-2017.11-x86_64_arm-eabi/arm-eabi/libc/usr/lib/libc.a(lib_a-locale.o)
 .comment       0x000000000000002d       0x2e /opt/gcc-linaro-7.2.1-2017.11-x86_64_arm-eabi/arm-eabi/libc/usr/lib/libc.a(lib_a-localeconv.o)
 .comment       0x000000000000002d       0x2e /opt/gcc-linaro-7.2.1-2017.11-x86_64_arm-eabi/arm-eabi/libc/usr/lib/libc.a(lib_a-lseekr.o)
 .comment       0x000000000000002d       0x2e /opt/gcc-linaro-7.2.1-2017.11-x86_64_arm-eabi/arm-eabi/libc/usr/lib/libc.a(lib_a-mallocr.o)
 .comment       0x000000000000002d       0x2e /opt/gcc-linaro-7.2.1-2017.11-x86_64_arm-eabi/arm-eabi/libc/usr/lib/libc.a(lib_a-mbrtowc.o)
 .comment       0x000000000000002d       0x2e /opt/gcc-linaro-7.2.1-2017.11-x86_64_arm-eabi/arm-eabi/libc/usr/lib/libc.a(lib_a-mbtowc_r.o)
 .comment       0x000000000000002d       0x2e /opt/gcc-linaro-7.2.1-2017.11-x86_64_arm-eabi/arm-eabi/libc/usr/lib/libc.a(lib_a-memchr-stub.o)
 .comment       0x000000000000002d       0x2e /opt/gcc-linaro-7.2.1-2017.11-x86_64_arm-eabi/arm-eabi/libc/usr/lib/libc.a(lib_a-mlock.o)
 .comment       0x000000000000002d       0x2e /opt/gcc-linaro-7.2.1-2017.11-x86_64_arm-eabi/arm-eabi/libc/usr/lib/libc.a(lib_a-mprec.o)
 .comment       0x000000000000002d       0x2e /opt/gcc-linaro-7.2.1-2017.11-x86_64_arm-eabi/arm-eabi/libc/usr/lib/libc.a(lib_a-readr.o)
 .comment       0x000000000000002d       0x2e /opt/gcc-linaro-7.2.1-2017.11-x86_64_arm-eabi/arm-eabi/libc/usr/lib/libc.a(lib_a-reent.o)
 .comment       0x000000000000002d       0x2e /opt/gcc-linaro-7.2.1-2017.11-x86_64_arm-eabi/arm-eabi/libc/usr/lib/libc.a(lib_a-s_frexp.o)
 .comment       0x000000000000002d       0x2e /opt/gcc-linaro-7.2.1-2017.11-x86_64_arm-eabi/arm-eabi/libc/usr/lib/libc.a(lib_a-sbrkr.o)
 .comment       0x000000000000002d       0x2e /opt/gcc-linaro-7.2.1-2017.11-x86_64_arm-eabi/arm-eabi/libc/usr/lib/libc.a(lib_a-sccl.o)
 .comment       0x000000000000002d       0x2e /opt/gcc-linaro-7.2.1-2017.11-x86_64_arm-eabi/arm-eabi/libc/usr/lib/libc.a(lib_a-sf_nan.o)
 .comment       0x000000000000002d       0x2e /opt/gcc-linaro-7.2.1-2017.11-x86_64_arm-eabi/arm-eabi/libc/usr/lib/libc.a(lib_a-stpncpy.o)
 .comment       0x000000000000002d       0x2e /opt/gcc-linaro-7.2.1-2017.11-x86_64_arm-eabi/arm-eabi/libc/usr/lib/libc.a(lib_a-strcasecmp.o)
 .comment       0x000000000000002d       0x2e /opt/gcc-linaro-7.2.1-2017.11-x86_64_arm-eabi/arm-eabi/libc/usr/lib/libc.a(lib_a-strcat.o)
 .comment       0x000000000000002d       0x2e /opt/gcc-linaro-7.2.1-2017.11-x86_64_arm-eabi/arm-eabi/libc/usr/lib/libc.a(lib_a-strchr.o)
 .comment       0x000000000000002d       0x2e /opt/gcc-linaro-7.2.1-2017.11-x86_64_arm-eabi/arm-eabi/libc/usr/lib/libc.a(lib_a-strlcpy.o)
 .comment       0x000000000000002d       0x2e /opt/gcc-linaro-7.2.1-2017.11-x86_64_arm-eabi/arm-eabi/libc/usr/lib/libc.a(lib_a-strncasecmp.o)
 .comment       0x000000000000002d       0x2e /opt/gcc-linaro-7.2.1-2017.11-x86_64_arm-eabi/arm-eabi/libc/usr/lib/libc.a(lib_a-strtod.o)
 .comment       0x000000000000002d       0x2e /opt/gcc-linaro-7.2.1-2017.11-x86_64_arm-eabi/arm-eabi/libc/usr/lib/libc.a(lib_a-strtoll.o)
 .comment       0x000000000000002d       0x2e /opt/gcc-linaro-7.2.1-2017.11-x86_64_arm-eabi/arm-eabi/libc/usr/lib/libc.a(lib_a-strtoull.o)
 .comment       0x000000000000002d       0x2e /opt/gcc-linaro-7.2.1-2017.11-x86_64_arm-eabi/arm-eabi/libc/usr/lib/libc.a(lib_a-svfiprintf.o)
 .comment       0x000000000000002d       0x2e /opt/gcc-linaro-7.2.1-2017.11-x86_64_arm-eabi/arm-eabi/libc/usr/lib/libc.a(lib_a-svfiscanf.o)
 .comment       0x000000000000002d       0x2e /opt/gcc-linaro-7.2.1-2017.11-x86_64_arm-eabi/arm-eabi/libc/usr/lib/libc.a(lib_a-syscalls.o)
 .comment       0x000000000000002d       0x2e /opt/gcc-linaro-7.2.1-2017.11-x86_64_arm-eabi/arm-eabi/libc/usr/lib/libc.a(lib_a-ungetc.o)
 .comment       0x000000000000002d       0x2e /opt/gcc-linaro-7.2.1-2017.11-x86_64_arm-eabi/arm-eabi/libc/usr/lib/libc.a(lib_a-wcsnrtombs.o)
 .comment       0x000000000000002d       0x2e /opt/gcc-linaro-7.2.1-2017.11-x86_64_arm-eabi/arm-eabi/libc/usr/lib/libc.a(lib_a-wctomb_r.o)
 .comment       0x000000000000002d       0x2e /opt/gcc-linaro-7.2.1-2017.11-x86_64_arm-eabi/arm-eabi/libc/usr/lib/libc.a(lib_a-callocr.o)
 .comment       0x000000000000002d       0x2e /opt/gcc-linaro-7.2.1-2017.11-x86_64_arm-eabi/arm-eabi/libc/usr/lib/libc.a(lib_a-ctype_.o)
 .comment       0x000000000000002d       0x2e /opt/gcc-linaro-7.2.1-2017.11-x86_64_arm-eabi/arm-eabi/libc/usr/lib/libc.a(lib_a-errno.o)
 .comment       0x000000000000002d       0x2e /opt/gcc-linaro-7.2.1-2017.11-x86_64_arm-eabi/arm-eabi/libc/usr/lib/libc.a(lib_a-fflush.o)
 .comment       0x000000000000002d       0x2e /opt/gcc-linaro-7.2.1-2017.11-x86_64_arm-eabi/arm-eabi/libc/usr/lib/libc.a(lib_a-findfp.o)
 .comment       0x000000000000002d       0x2e /opt/gcc-linaro-7.2.1-2017.11-x86_64_arm-eabi/arm-eabi/libc/usr/lib/libc.a(lib_a-fwalk.o)
 .comment       0x000000000000002d       0x2e /opt/gcc-linaro-7.2.1-2017.11-x86_64_arm-eabi/arm-eabi/libc/usr/lib/libc.a(lib_a-gdtoa-gethex.o)
 .comment       0x000000000000002d       0x2e /opt/gcc-linaro-7.2.1-2017.11-x86_64_arm-eabi/arm-eabi/libc/usr/lib/libc.a(lib_a-gdtoa-hexnan.o)
 .comment       0x000000000000002d       0x2e /opt/gcc-linaro-7.2.1-2017.11-x86_64_arm-eabi/arm-eabi/libc/usr/lib/libc.a(lib_a-getenv_r.o)
 .comment       0x000000000000002d       0x2e /opt/gcc-linaro-7.2.1-2017.11-x86_64_arm-eabi/arm-eabi/libc/usr/lib/libc.a(lib_a-reallocr.o)
 .comment       0x000000000000002d       0x2e /opt/gcc-linaro-7.2.1-2017.11-x86_64_arm-eabi/arm-eabi/libc/usr/lib/libc.a(lib_a-environ.o)
 .comment       0x000000000000002d       0x2e /opt/gcc-linaro-7.2.1-2017.11-x86_64_arm-eabi/arm-eabi/libc/usr/lib/libc.a(lib_a-envlock.o)
 .comment       0x000000000000002d       0x2e /opt/gcc-linaro-7.2.1-2017.11-x86_64_arm-eabi/arm-eabi/libc/usr/lib/libc.a(lib_a-fclose.o)
 .comment       0x000000000000002d       0x2e /opt/gcc-linaro-7.2.1-2017.11-x86_64_arm-eabi/arm-eabi/libc/usr/lib/libm.a(lib_a-sf_fabs.o)
 .comment       0x000000000000002d       0x2e /opt/gcc-linaro-7.2.1-2017.11-x86_64_arm-eabi/arm-eabi/libc/usr/lib/libgcc.a(_udivmoddi4.o)

.ARM.attributes
                0x0000000000000000       0x35
 .ARM.attributes
                0x0000000000000000       0x37 ./../../../build/tcc70xx/gcc/tcc70xx-freertos-debug/obj/main.o
 .ARM.attributes
                0x0000000000000037       0x37 ./../../../build/tcc70xx/gcc/tcc70xx-freertos-debug/obj/can_demo.o
 .ARM.attributes
                0x000000000000006e       0x37 ./../../../build/tcc70xx/gcc/tcc70xx-freertos-debug/obj/can_vcp_ctrl.o
 .ARM.attributes
                0x00000000000000a5       0x37 ./../../../build/tcc70xx/gcc/tcc70xx-freertos-debug/obj/console.o
 .ARM.attributes
                0x00000000000000dc       0x37 ./../../../build/tcc70xx/gcc/tcc70xx-freertos-debug/obj/fwupdate.o
 .ARM.attributes
                0x0000000000000113       0x37 ./../../../build/tcc70xx/gcc/tcc70xx-freertos-debug/obj/idle.o
 .ARM.attributes
                0x000000000000014a       0x37 ./../../../build/tcc70xx/gcc/tcc70xx-freertos-debug/obj/iperf_task_v3_0d.o
 .ARM.attributes
                0x0000000000000181       0x37 ./../../../build/tcc70xx/gcc/tcc70xx-freertos-debug/obj/spi_led.o
 .ARM.attributes
                0x00000000000001b8       0x37 ./../../../build/tcc70xx/gcc/tcc70xx-freertos-debug/obj/audio_test.o
 .ARM.attributes
                0x00000000000001ef       0x37 ./../../../build/tcc70xx/gcc/tcc70xx-freertos-debug/obj/audio_chip_veri.o
 .ARM.attributes
                0x0000000000000226       0x37 ./../../../build/tcc70xx/gcc/tcc70xx-freertos-debug/obj/wm8904.o
 .ARM.attributes
                0x000000000000025d       0x37 ./../../../build/tcc70xx/gcc/tcc70xx-freertos-debug/obj/cpu_test.o
 .ARM.attributes
                0x0000000000000294       0x37 ./../../../build/tcc70xx/gcc/tcc70xx-freertos-debug/obj/dse_test.o
 .ARM.attributes
                0x00000000000002cb       0x37 ./../../../build/tcc70xx/gcc/tcc70xx-freertos-debug/obj/eflash_test.o
 .ARM.attributes
                0x0000000000000302       0x37 ./../../../build/tcc70xx/gcc/tcc70xx-freertos-debug/obj/fmu_test.o
 .ARM.attributes
                0x0000000000000339       0x37 ./../../../build/tcc70xx/gcc/tcc70xx-freertos-debug/obj/gdma_test.o
 .ARM.attributes
                0x0000000000000370       0x37 ./../../../build/tcc70xx/gcc/tcc70xx-freertos-debug/obj/gdma_ip_test.o
 .ARM.attributes
                0x00000000000003a7       0x37 ./../../../build/tcc70xx/gcc/tcc70xx-freertos-debug/obj/gic_test.o
 .ARM.attributes
                0x00000000000003de       0x37 ./../../../build/tcc70xx/gcc/tcc70xx-freertos-debug/obj/gpio_test.o
 .ARM.attributes
                0x0000000000000415       0x37 ./../../../build/tcc70xx/gcc/tcc70xx-freertos-debug/obj/gpsb_test.o
 .ARM.attributes
                0x000000000000044c       0x37 ./../../../build/tcc70xx/gcc/tcc70xx-freertos-debug/obj/hsm_test.o
 .ARM.attributes
                0x0000000000000483       0x37 ./../../../build/tcc70xx/gcc/tcc70xx-freertos-debug/obj/i2c_test.o
 .ARM.attributes
                0x00000000000004ba       0x37 ./../../../build/tcc70xx/gcc/tcc70xx-freertos-debug/obj/ictc_test.o
 .ARM.attributes
                0x00000000000004f1       0x37 ./../../../build/tcc70xx/gcc/tcc70xx-freertos-debug/obj/lin_test.o
 .ARM.attributes
                0x0000000000000528       0x37 ./../../../build/tcc70xx/gcc/tcc70xx-freertos-debug/obj/pdm_test.o
 .ARM.attributes
                0x000000000000055f       0x37 ./../../../build/tcc70xx/gcc/tcc70xx-freertos-debug/obj/pmu_test.o
 .ARM.attributes
                0x0000000000000596       0x37 ./../../../build/tcc70xx/gcc/tcc70xx-freertos-debug/obj/rtc_test.o
 .ARM.attributes
                0x00000000000005cd       0x37 ./../../../build/tcc70xx/gcc/tcc70xx-freertos-debug/obj/sfmc_test.o
 .ARM.attributes
                0x0000000000000604       0x37 ./../../../build/tcc70xx/gcc/tcc70xx-freertos-debug/obj/echo_test.o
 .ARM.attributes
                0x000000000000063b       0x37 ./../../../build/tcc70xx/gcc/tcc70xx-freertos-debug/obj/timer_test.o
 .ARM.attributes
                0x0000000000000672       0x37 ./../../../build/tcc70xx/gcc/tcc70xx-freertos-debug/obj/uart_test.o
 .ARM.attributes
                0x00000000000006a9       0x37 ./../../../build/tcc70xx/gcc/tcc70xx-freertos-debug/obj/wdt_test.o
 .ARM.attributes
                0x00000000000006e0       0x37 ./../../../build/tcc70xx/gcc/tcc70xx-freertos-debug/obj/writelock_test.o
 .ARM.attributes
                0x0000000000000717       0x37 ./../../../build/tcc70xx/gcc/tcc70xx-freertos-debug/obj/eth_test.o
 .ARM.attributes
                0x000000000000074e       0x37 ./../../../build/tcc70xx/gcc/tcc70xx-freertos-debug/obj/spu_test.o
 .ARM.attributes
                0x0000000000000785       0x37 ./../../../build/tcc70xx/gcc/tcc70xx-freertos-debug/obj/power_app.o
 .ARM.attributes
                0x00000000000007bc       0x37 ./../../../build/tcc70xx/gcc/tcc70xx-freertos-debug/obj/power_com.o
 .ARM.attributes
                0x00000000000007f3       0x37 ./../../../build/tcc70xx/gcc/tcc70xx-freertos-debug/obj/spi_eccp.o
 .ARM.attributes
                0x000000000000082a       0x37 ./../../../build/tcc70xx/gcc/tcc70xx-freertos-debug/obj/hsm_manager.o
 .ARM.attributes
                0x0000000000000861       0x37 ./../../../build/tcc70xx/gcc/tcc70xx-freertos-debug/obj/lin.o
 .ARM.attributes
                0x0000000000000898       0x37 ./../../../build/tcc70xx/gcc/tcc70xx-freertos-debug/obj/swl.o
 .ARM.attributes
                0x00000000000008cf       0x37 ./../../../build/tcc70xx/gcc/tcc70xx-freertos-debug/obj/adc.o
 .ARM.attributes
                0x0000000000000906       0x37 ./../../../build/tcc70xx/gcc/tcc70xx-freertos-debug/obj/can.o
 .ARM.attributes
                0x000000000000093d       0x37 ./../../../build/tcc70xx/gcc/tcc70xx-freertos-debug/obj/can_drv.o
 .ARM.attributes
                0x0000000000000974       0x37 ./../../../build/tcc70xx/gcc/tcc70xx-freertos-debug/obj/can_msg.o
 .ARM.attributes
                0x00000000000009ab       0x37 ./../../../build/tcc70xx/gcc/tcc70xx-freertos-debug/obj/can_par.o
 .ARM.attributes
                0x00000000000009e2       0x37 ./../../../build/tcc70xx/gcc/tcc70xx-freertos-debug/obj/can_porting.o
 .ARM.attributes
                0x0000000000000a19       0x37 ./../../../build/tcc70xx/gcc/tcc70xx-freertos-debug/obj/clock_dev.o
 .ARM.attributes
                0x0000000000000a50       0x37 ./../../../build/tcc70xx/gcc/tcc70xx-freertos-debug/obj/debug.o
 .ARM.attributes
                0x0000000000000a87       0x37 ./../../../build/tcc70xx/gcc/tcc70xx-freertos-debug/obj/bsp.o
 .ARM.attributes
                0x0000000000000abe       0x37 ./../../../build/tcc70xx/gcc/tcc70xx-freertos-debug/obj/dse.o
 .ARM.attributes
                0x0000000000000af5       0x37 ./../../../build/tcc70xx/gcc/tcc70xx-freertos-debug/obj/eflash.o
 .ARM.attributes
                0x0000000000000b2c       0x37 ./../../../build/tcc70xx/gcc/tcc70xx-freertos-debug/obj/eth.o
 .ARM.attributes
                0x0000000000000b63       0x37 ./../../../build/tcc70xx/gcc/tcc70xx-freertos-debug/obj/eth_mii.o
 .ARM.attributes
                0x0000000000000b9a       0x37 ./../../../build/tcc70xx/gcc/tcc70xx-freertos-debug/obj/fmu.o
 .ARM.attributes
                0x0000000000000bd1       0x37 ./../../../build/tcc70xx/gcc/tcc70xx-freertos-debug/obj/gdma.o
 .ARM.attributes
                0x0000000000000c08       0x37 ./../../../build/tcc70xx/gcc/tcc70xx-freertos-debug/obj/gic.o
 .ARM.attributes
                0x0000000000000c3f       0x37 ./../../../build/tcc70xx/gcc/tcc70xx-freertos-debug/obj/gpio.o
 .ARM.attributes
                0x0000000000000c76       0x37 ./../../../build/tcc70xx/gcc/tcc70xx-freertos-debug/obj/gpsb.o
 .ARM.attributes
                0x0000000000000cad       0x37 ./../../../build/tcc70xx/gcc/tcc70xx-freertos-debug/obj/gpsb_reg.o
 .ARM.attributes
                0x0000000000000ce4       0x37 ./../../../build/tcc70xx/gcc/tcc70xx-freertos-debug/obj/i2c.o
 .ARM.attributes
                0x0000000000000d1b       0x37 ./../../../build/tcc70xx/gcc/tcc70xx-freertos-debug/obj/i2c_reg.o
 .ARM.attributes
                0x0000000000000d52       0x37 ./../../../build/tcc70xx/gcc/tcc70xx-freertos-debug/obj/i2s.o
 .ARM.attributes
                0x0000000000000d89       0x37 ./../../../build/tcc70xx/gcc/tcc70xx-freertos-debug/obj/ictc.o
 .ARM.attributes
                0x0000000000000dc0       0x37 ./../../../build/tcc70xx/gcc/tcc70xx-freertos-debug/obj/mbox.o
 .ARM.attributes
                0x0000000000000df7       0x37 ./../../../build/tcc70xx/gcc/tcc70xx-freertos-debug/obj/midf.o
 .ARM.attributes
                0x0000000000000e2e       0x37 ./../../../build/tcc70xx/gcc/tcc70xx-freertos-debug/obj/mpu.o
 .ARM.attributes
                0x0000000000000e65       0x37 ./../../../build/tcc70xx/gcc/tcc70xx-freertos-debug/obj/preload.o
 .ARM.attributes
                0x0000000000000e9c       0x37 ./../../../build/tcc70xx/gcc/tcc70xx-freertos-debug/obj/pdm.o
 .ARM.attributes
                0x0000000000000ed3       0x37 ./../../../build/tcc70xx/gcc/tcc70xx-freertos-debug/obj/pmio_dev.o
 .ARM.attributes
                0x0000000000000f0a       0x37 ./../../../build/tcc70xx/gcc/tcc70xx-freertos-debug/obj/pmio_dev_extn_pw_ctl.o
 .ARM.attributes
                0x0000000000000f41       0x37 ./../../../build/tcc70xx/gcc/tcc70xx-freertos-debug/obj/pmu.o
 .ARM.attributes
                0x0000000000000f78       0x37 ./../../../build/tcc70xx/gcc/tcc70xx-freertos-debug/obj/rtc_dev.o
 .ARM.attributes
                0x0000000000000faf       0x37 ./../../../build/tcc70xx/gcc/tcc70xx-freertos-debug/obj/snor_mio.o
 .ARM.attributes
                0x0000000000000fe6       0x37 ./../../../build/tcc70xx/gcc/tcc70xx-freertos-debug/obj/spu.o
 .ARM.attributes
                0x000000000000101d       0x37 ./../../../build/tcc70xx/gcc/tcc70xx-freertos-debug/obj/ssm.o
 .ARM.attributes
                0x0000000000001054       0x37 ./../../../build/tcc70xx/gcc/tcc70xx-freertos-debug/obj/timer.o
 .ARM.attributes
                0x000000000000108b       0x37 ./../../../build/tcc70xx/gcc/tcc70xx-freertos-debug/obj/uart.o
 .ARM.attributes
                0x00000000000010c2       0x37 ./../../../build/tcc70xx/gcc/tcc70xx-freertos-debug/obj/wdt.o
 .ARM.attributes
                0x00000000000010f9       0x37 ./../../../build/tcc70xx/gcc/tcc70xx-freertos-debug/obj/wdt_pmu.o
 .ARM.attributes
                0x0000000000001130       0x37 ./../../../build/tcc70xx/gcc/tcc70xx-freertos-debug/obj/tasks.o
 .ARM.attributes
                0x0000000000001167       0x37 ./../../../build/tcc70xx/gcc/tcc70xx-freertos-debug/obj/list.o
 .ARM.attributes
                0x000000000000119e       0x37 ./../../../build/tcc70xx/gcc/tcc70xx-freertos-debug/obj/queue.o
 .ARM.attributes
                0x00000000000011d5       0x37 ./../../../build/tcc70xx/gcc/tcc70xx-freertos-debug/obj/event_groups.o
 .ARM.attributes
                0x000000000000120c       0x37 ./../../../build/tcc70xx/gcc/tcc70xx-freertos-debug/obj/timers.o
 .ARM.attributes
                0x0000000000001243       0x37 ./../../../build/tcc70xx/gcc/tcc70xx-freertos-debug/obj/stream_buffer.o
 .ARM.attributes
                0x000000000000127a       0x37 ./../../../build/tcc70xx/gcc/tcc70xx-freertos-debug/obj/port.o
 .ARM.attributes
                0x00000000000012b1       0x37 ./../../../build/tcc70xx/gcc/tcc70xx-freertos-debug/obj/heap_5.o
 .ARM.attributes
                0x00000000000012e8       0x37 ./../../../build/tcc70xx/gcc/tcc70xx-freertos-debug/obj/FreeRTOS_ARP.o
 .ARM.attributes
                0x000000000000131f       0x37 ./../../../build/tcc70xx/gcc/tcc70xx-freertos-debug/obj/FreeRTOS_DHCP.o
 .ARM.attributes
                0x0000000000001356       0x37 ./../../../build/tcc70xx/gcc/tcc70xx-freertos-debug/obj/FreeRTOS_DNS.o
 .ARM.attributes
                0x000000000000138d       0x37 ./../../../build/tcc70xx/gcc/tcc70xx-freertos-debug/obj/FreeRTOS_IP.o
 .ARM.attributes
                0x00000000000013c4       0x37 ./../../../build/tcc70xx/gcc/tcc70xx-freertos-debug/obj/FreeRTOS_Sockets.o
 .ARM.attributes
                0x00000000000013fb       0x37 ./../../../build/tcc70xx/gcc/tcc70xx-freertos-debug/obj/FreeRTOS_Stream_Buffer.o
 .ARM.attributes
                0x0000000000001432       0x37 ./../../../build/tcc70xx/gcc/tcc70xx-freertos-debug/obj/FreeRTOS_TCP_IP.o
 .ARM.attributes
                0x0000000000001469       0x37 ./../../../build/tcc70xx/gcc/tcc70xx-freertos-debug/obj/FreeRTOS_TCP_WIN.o
 .ARM.attributes
                0x00000000000014a0       0x37 ./../../../build/tcc70xx/gcc/tcc70xx-freertos-debug/obj/FreeRTOS_UDP_IP.o
 .ARM.attributes
                0x00000000000014d7       0x37 ./../../../build/tcc70xx/gcc/tcc70xx-freertos-debug/obj/FreeRTOS_Port.o
 .ARM.attributes
                0x000000000000150e       0x37 ./../../../build/tcc70xx/gcc/tcc70xx-freertos-debug/obj/BufferAllocation_1.o
 .ARM.attributes
                0x0000000000001545       0x37 ./../../../build/tcc70xx/gcc/tcc70xx-freertos-debug/obj/NetworkInterface.o
 .ARM.attributes
                0x000000000000157c       0x37 ./../../../build/tcc70xx/gcc/tcc70xx-freertos-debug/obj/sal_api.o
 .ARM.attributes
                0x00000000000015b3       0x37 ./../../../build/tcc70xx/gcc/tcc70xx-freertos-debug/obj/sal_freertos_impl.o
 .ARM.attributes
                0x00000000000015ea       0x27 ./../../../build/tcc70xx/gcc/tcc70xx-freertos-debug/obj/startup.o
 .ARM.attributes
                0x0000000000001611       0x27 ./../../../build/tcc70xx/gcc/tcc70xx-freertos-debug/obj/vector.o
 .ARM.attributes
                0x0000000000001638       0x27 ./../../../build/tcc70xx/gcc/tcc70xx-freertos-debug/obj/vfp_init.o
 .ARM.attributes
                0x000000000000165f       0x27 ./../../../build/tcc70xx/gcc/tcc70xx-freertos-debug/obj/arm_a.o
 .ARM.attributes
                0x0000000000001686       0x27 ./../../../build/tcc70xx/gcc/tcc70xx-freertos-debug/obj/portASM.o
 .ARM.attributes
                0x00000000000016ad       0x27 ./../../../build/tcc70xx/gcc/tcc70xx-freertos-debug/obj/freertos.o
 .ARM.attributes
                0x00000000000016d4       0x27 ./../../../build/tcc70xx/gcc/tcc70xx-freertos-debug/obj/sal.o
 .ARM.attributes
                0x00000000000016fb       0x30 /opt/gcc-linaro-7.2.1-2017.11-x86_64_arm-eabi/arm-eabi/libc/usr/lib/libc.a(lib_a-atoi.o)
 .ARM.attributes
                0x000000000000172b       0x30 /opt/gcc-linaro-7.2.1-2017.11-x86_64_arm-eabi/arm-eabi/libc/usr/lib/libc.a(lib_a-memcmp.o)
 .ARM.attributes
                0x000000000000175b       0x30 /opt/gcc-linaro-7.2.1-2017.11-x86_64_arm-eabi/arm-eabi/libc/usr/lib/libc.a(lib_a-memcpy-stub.o)
 .ARM.attributes
                0x000000000000178b       0x30 /opt/gcc-linaro-7.2.1-2017.11-x86_64_arm-eabi/arm-eabi/libc/usr/lib/libc.a(lib_a-memmove.o)
 .ARM.attributes
                0x00000000000017bb       0x30 /opt/gcc-linaro-7.2.1-2017.11-x86_64_arm-eabi/arm-eabi/libc/usr/lib/libc.a(lib_a-memset.o)
 .ARM.attributes
                0x00000000000017eb       0x30 /opt/gcc-linaro-7.2.1-2017.11-x86_64_arm-eabi/arm-eabi/libc/usr/lib/libc.a(lib_a-snprintf.o)
 .ARM.attributes
                0x000000000000181b       0x30 /opt/gcc-linaro-7.2.1-2017.11-x86_64_arm-eabi/arm-eabi/libc/usr/lib/libc.a(lib_a-sprintf.o)
 .ARM.attributes
                0x000000000000184b       0x30 /opt/gcc-linaro-7.2.1-2017.11-x86_64_arm-eabi/arm-eabi/libc/usr/lib/libc.a(lib_a-sscanf.o)
 .ARM.attributes
                0x000000000000187b       0x30 /opt/gcc-linaro-7.2.1-2017.11-x86_64_arm-eabi/arm-eabi/libc/usr/lib/libc.a(lib_a-stdio.o)
 .ARM.attributes
                0x00000000000018ab       0x16 /opt/gcc-linaro-7.2.1-2017.11-x86_64_arm-eabi/arm-eabi/libc/usr/lib/libc.a(lib_a-strcmp.o)
 .ARM.attributes
                0x00000000000018c1       0x30 /opt/gcc-linaro-7.2.1-2017.11-x86_64_arm-eabi/arm-eabi/libc/usr/lib/libc.a(lib_a-strcpy.o)
 .ARM.attributes
                0x00000000000018f1       0x30 /opt/gcc-linaro-7.2.1-2017.11-x86_64_arm-eabi/arm-eabi/libc/usr/lib/libc.a(lib_a-strlen-stub.o)
 .ARM.attributes
                0x0000000000001921       0x30 /opt/gcc-linaro-7.2.1-2017.11-x86_64_arm-eabi/arm-eabi/libc/usr/lib/libc.a(lib_a-strncmp.o)
 .ARM.attributes
                0x0000000000001951       0x30 /opt/gcc-linaro-7.2.1-2017.11-x86_64_arm-eabi/arm-eabi/libc/usr/lib/libc.a(lib_a-strncpy.o)
 .ARM.attributes
                0x0000000000001981       0x30 /opt/gcc-linaro-7.2.1-2017.11-x86_64_arm-eabi/arm-eabi/libc/usr/lib/libc.a(lib_a-strnlen.o)
 .ARM.attributes
                0x00000000000019b1       0x30 /opt/gcc-linaro-7.2.1-2017.11-x86_64_arm-eabi/arm-eabi/libc/usr/lib/libc.a(lib_a-strtol.o)
 .ARM.attributes
                0x00000000000019e1       0x30 /opt/gcc-linaro-7.2.1-2017.11-x86_64_arm-eabi/arm-eabi/libc/usr/lib/libc.a(lib_a-strtoul.o)
 .ARM.attributes
                0x0000000000001a11       0x30 /opt/gcc-linaro-7.2.1-2017.11-x86_64_arm-eabi/arm-eabi/libc/usr/lib/libc.a(lib_a-svfprintf.o)
 .ARM.attributes
                0x0000000000001a41       0x30 /opt/gcc-linaro-7.2.1-2017.11-x86_64_arm-eabi/arm-eabi/libc/usr/lib/libc.a(lib_a-svfscanf.o)
 .ARM.attributes
                0x0000000000001a71       0x30 /opt/gcc-linaro-7.2.1-2017.11-x86_64_arm-eabi/arm-eabi/libc/usr/lib/libc.a(lib_a-wcrtomb.o)
 .ARM.attributes
                0x0000000000001aa1       0x30 /opt/gcc-linaro-7.2.1-2017.11-x86_64_arm-eabi/arm-eabi/libc/usr/lib/libc.a(lib_a-wcsrtombs.o)
 .ARM.attributes
                0x0000000000001ad1       0x30 /opt/gcc-linaro-7.2.1-2017.11-x86_64_arm-eabi/arm-eabi/libc/usr/lib/libc.a(lib_a-writer.o)
 .ARM.attributes
                0x0000000000001b01       0x30 /opt/gcc-linaro-7.2.1-2017.11-x86_64_arm-eabi/arm-eabi/libc/usr/lib/libc.a(lib_a-closer.o)
 .ARM.attributes
                0x0000000000001b31       0x30 /opt/gcc-linaro-7.2.1-2017.11-x86_64_arm-eabi/arm-eabi/libc/usr/lib/libc.a(lib_a-dtoa.o)
 .ARM.attributes
                0x0000000000001b61       0x30 /opt/gcc-linaro-7.2.1-2017.11-x86_64_arm-eabi/arm-eabi/libc/usr/lib/libc.a(lib_a-freer.o)
 .ARM.attributes
                0x0000000000001b91       0x30 /opt/gcc-linaro-7.2.1-2017.11-x86_64_arm-eabi/arm-eabi/libc/usr/lib/libc.a(lib_a-impure.o)
 .ARM.attributes
                0x0000000000001bc1       0x30 /opt/gcc-linaro-7.2.1-2017.11-x86_64_arm-eabi/arm-eabi/libc/usr/lib/libc.a(lib_a-iswspace.o)
 .ARM.attributes
                0x0000000000001bf1       0x30 /opt/gcc-linaro-7.2.1-2017.11-x86_64_arm-eabi/arm-eabi/libc/usr/lib/libc.a(lib_a-jp2uc.o)
 .ARM.attributes
                0x0000000000001c21       0x30 /opt/gcc-linaro-7.2.1-2017.11-x86_64_arm-eabi/arm-eabi/libc/usr/lib/libc.a(lib_a-locale.o)
 .ARM.attributes
                0x0000000000001c51       0x30 /opt/gcc-linaro-7.2.1-2017.11-x86_64_arm-eabi/arm-eabi/libc/usr/lib/libc.a(lib_a-localeconv.o)
 .ARM.attributes
                0x0000000000001c81       0x30 /opt/gcc-linaro-7.2.1-2017.11-x86_64_arm-eabi/arm-eabi/libc/usr/lib/libc.a(lib_a-lseekr.o)
 .ARM.attributes
                0x0000000000001cb1       0x30 /opt/gcc-linaro-7.2.1-2017.11-x86_64_arm-eabi/arm-eabi/libc/usr/lib/libc.a(lib_a-mallocr.o)
 .ARM.attributes
                0x0000000000001ce1       0x30 /opt/gcc-linaro-7.2.1-2017.11-x86_64_arm-eabi/arm-eabi/libc/usr/lib/libc.a(lib_a-mbrtowc.o)
 .ARM.attributes
                0x0000000000001d11       0x30 /opt/gcc-linaro-7.2.1-2017.11-x86_64_arm-eabi/arm-eabi/libc/usr/lib/libc.a(lib_a-mbtowc_r.o)
 .ARM.attributes
                0x0000000000001d41       0x30 /opt/gcc-linaro-7.2.1-2017.11-x86_64_arm-eabi/arm-eabi/libc/usr/lib/libc.a(lib_a-memchr-stub.o)
 .ARM.attributes
                0x0000000000001d71       0x30 /opt/gcc-linaro-7.2.1-2017.11-x86_64_arm-eabi/arm-eabi/libc/usr/lib/libc.a(lib_a-mlock.o)
 .ARM.attributes
                0x0000000000001da1       0x30 /opt/gcc-linaro-7.2.1-2017.11-x86_64_arm-eabi/arm-eabi/libc/usr/lib/libc.a(lib_a-mprec.o)
 .ARM.attributes
                0x0000000000001dd1       0x30 /opt/gcc-linaro-7.2.1-2017.11-x86_64_arm-eabi/arm-eabi/libc/usr/lib/libc.a(lib_a-readr.o)
 .ARM.attributes
                0x0000000000001e01       0x30 /opt/gcc-linaro-7.2.1-2017.11-x86_64_arm-eabi/arm-eabi/libc/usr/lib/libc.a(lib_a-reent.o)
 .ARM.attributes
                0x0000000000001e31       0x30 /opt/gcc-linaro-7.2.1-2017.11-x86_64_arm-eabi/arm-eabi/libc/usr/lib/libc.a(lib_a-s_frexp.o)
 .ARM.attributes
                0x0000000000001e61       0x30 /opt/gcc-linaro-7.2.1-2017.11-x86_64_arm-eabi/arm-eabi/libc/usr/lib/libc.a(lib_a-sbrkr.o)
 .ARM.attributes
                0x0000000000001e91       0x30 /opt/gcc-linaro-7.2.1-2017.11-x86_64_arm-eabi/arm-eabi/libc/usr/lib/libc.a(lib_a-sccl.o)
 .ARM.attributes
                0x0000000000001ec1       0x30 /opt/gcc-linaro-7.2.1-2017.11-x86_64_arm-eabi/arm-eabi/libc/usr/lib/libc.a(lib_a-sf_nan.o)
 .ARM.attributes
                0x0000000000001ef1       0x30 /opt/gcc-linaro-7.2.1-2017.11-x86_64_arm-eabi/arm-eabi/libc/usr/lib/libc.a(lib_a-stpncpy.o)
 .ARM.attributes
                0x0000000000001f21       0x30 /opt/gcc-linaro-7.2.1-2017.11-x86_64_arm-eabi/arm-eabi/libc/usr/lib/libc.a(lib_a-strcasecmp.o)
 .ARM.attributes
                0x0000000000001f51       0x30 /opt/gcc-linaro-7.2.1-2017.11-x86_64_arm-eabi/arm-eabi/libc/usr/lib/libc.a(lib_a-strcat.o)
 .ARM.attributes
                0x0000000000001f81       0x30 /opt/gcc-linaro-7.2.1-2017.11-x86_64_arm-eabi/arm-eabi/libc/usr/lib/libc.a(lib_a-strchr.o)
 .ARM.attributes
                0x0000000000001fb1       0x30 /opt/gcc-linaro-7.2.1-2017.11-x86_64_arm-eabi/arm-eabi/libc/usr/lib/libc.a(lib_a-strlcpy.o)
 .ARM.attributes
                0x0000000000001fe1       0x30 /opt/gcc-linaro-7.2.1-2017.11-x86_64_arm-eabi/arm-eabi/libc/usr/lib/libc.a(lib_a-strncasecmp.o)
 .ARM.attributes
                0x0000000000002011       0x30 /opt/gcc-linaro-7.2.1-2017.11-x86_64_arm-eabi/arm-eabi/libc/usr/lib/libc.a(lib_a-strtod.o)
 .ARM.attributes
                0x0000000000002041       0x30 /opt/gcc-linaro-7.2.1-2017.11-x86_64_arm-eabi/arm-eabi/libc/usr/lib/libc.a(lib_a-strtoll.o)
 .ARM.attributes
                0x0000000000002071       0x30 /opt/gcc-linaro-7.2.1-2017.11-x86_64_arm-eabi/arm-eabi/libc/usr/lib/libc.a(lib_a-strtoull.o)
 .ARM.attributes
                0x00000000000020a1       0x30 /opt/gcc-linaro-7.2.1-2017.11-x86_64_arm-eabi/arm-eabi/libc/usr/lib/libc.a(lib_a-svfiprintf.o)
 .ARM.attributes
                0x00000000000020d1       0x30 /opt/gcc-linaro-7.2.1-2017.11-x86_64_arm-eabi/arm-eabi/libc/usr/lib/libc.a(lib_a-svfiscanf.o)
 .ARM.attributes
                0x0000000000002101       0x30 /opt/gcc-linaro-7.2.1-2017.11-x86_64_arm-eabi/arm-eabi/libc/usr/lib/libc.a(lib_a-syscalls.o)
 .ARM.attributes
                0x0000000000002131       0x30 /opt/gcc-linaro-7.2.1-2017.11-x86_64_arm-eabi/arm-eabi/libc/usr/lib/libc.a(lib_a-ungetc.o)
 .ARM.attributes
                0x0000000000002161       0x30 /opt/gcc-linaro-7.2.1-2017.11-x86_64_arm-eabi/arm-eabi/libc/usr/lib/libc.a(lib_a-wcsnrtombs.o)
 .ARM.attributes
                0x0000000000002191       0x30 /opt/gcc-linaro-7.2.1-2017.11-x86_64_arm-eabi/arm-eabi/libc/usr/lib/libc.a(lib_a-wctomb_r.o)
 .ARM.attributes
                0x00000000000021c1       0x30 /opt/gcc-linaro-7.2.1-2017.11-x86_64_arm-eabi/arm-eabi/libc/usr/lib/libc.a(lib_a-callocr.o)
 .ARM.attributes
                0x00000000000021f1       0x30 /opt/gcc-linaro-7.2.1-2017.11-x86_64_arm-eabi/arm-eabi/libc/usr/lib/libc.a(lib_a-ctype_.o)
 .ARM.attributes
                0x0000000000002221       0x30 /opt/gcc-linaro-7.2.1-2017.11-x86_64_arm-eabi/arm-eabi/libc/usr/lib/libc.a(lib_a-errno.o)
 .ARM.attributes
                0x0000000000002251       0x30 /opt/gcc-linaro-7.2.1-2017.11-x86_64_arm-eabi/arm-eabi/libc/usr/lib/libc.a(lib_a-fflush.o)
 .ARM.attributes
                0x0000000000002281       0x30 /opt/gcc-linaro-7.2.1-2017.11-x86_64_arm-eabi/arm-eabi/libc/usr/lib/libc.a(lib_a-findfp.o)
 .ARM.attributes
                0x00000000000022b1       0x30 /opt/gcc-linaro-7.2.1-2017.11-x86_64_arm-eabi/arm-eabi/libc/usr/lib/libc.a(lib_a-fwalk.o)
 .ARM.attributes
                0x00000000000022e1       0x30 /opt/gcc-linaro-7.2.1-2017.11-x86_64_arm-eabi/arm-eabi/libc/usr/lib/libc.a(lib_a-gdtoa-gethex.o)
 .ARM.attributes
                0x0000000000002311       0x30 /opt/gcc-linaro-7.2.1-2017.11-x86_64_arm-eabi/arm-eabi/libc/usr/lib/libc.a(lib_a-gdtoa-hexnan.o)
 .ARM.attributes
                0x0000000000002341       0x30 /opt/gcc-linaro-7.2.1-2017.11-x86_64_arm-eabi/arm-eabi/libc/usr/lib/libc.a(lib_a-getenv_r.o)
 .ARM.attributes
                0x0000000000002371       0x30 /opt/gcc-linaro-7.2.1-2017.11-x86_64_arm-eabi/arm-eabi/libc/usr/lib/libc.a(lib_a-reallocr.o)
 .ARM.attributes
                0x00000000000023a1       0x30 /opt/gcc-linaro-7.2.1-2017.11-x86_64_arm-eabi/arm-eabi/libc/usr/lib/libc.a(lib_a-environ.o)
 .ARM.attributes
                0x00000000000023d1       0x30 /opt/gcc-linaro-7.2.1-2017.11-x86_64_arm-eabi/arm-eabi/libc/usr/lib/libc.a(lib_a-envlock.o)
 .ARM.attributes
                0x0000000000002401       0x30 /opt/gcc-linaro-7.2.1-2017.11-x86_64_arm-eabi/arm-eabi/libc/usr/lib/libc.a(lib_a-fclose.o)
 .ARM.attributes
                0x0000000000002431       0x30 /opt/gcc-linaro-7.2.1-2017.11-x86_64_arm-eabi/arm-eabi/libc/usr/lib/libm.a(lib_a-sf_fabs.o)
 .ARM.attributes
                0x0000000000002461       0x18 /opt/gcc-linaro-7.2.1-2017.11-x86_64_arm-eabi/arm-eabi/libc/usr/lib/libgcc.a(_udivsi3.o)
 .ARM.attributes
                0x0000000000002479       0x18 /opt/gcc-linaro-7.2.1-2017.11-x86_64_arm-eabi/arm-eabi/libc/usr/lib/libgcc.a(_dvmd_tls.o)
 .ARM.attributes
                0x0000000000002491       0x18 /opt/gcc-linaro-7.2.1-2017.11-x86_64_arm-eabi/arm-eabi/libc/usr/lib/libgcc.a(_arm_addsubdf3.o)
 .ARM.attributes
                0x00000000000024a9       0x18 /opt/gcc-linaro-7.2.1-2017.11-x86_64_arm-eabi/arm-eabi/libc/usr/lib/libgcc.a(_arm_muldivdf3.o)
 .ARM.attributes
                0x00000000000024c1       0x18 /opt/gcc-linaro-7.2.1-2017.11-x86_64_arm-eabi/arm-eabi/libc/usr/lib/libgcc.a(_arm_cmpdf2.o)
 .ARM.attributes
                0x00000000000024d9       0x18 /opt/gcc-linaro-7.2.1-2017.11-x86_64_arm-eabi/arm-eabi/libc/usr/lib/libgcc.a(_arm_unorddf2.o)
 .ARM.attributes
                0x00000000000024f1       0x18 /opt/gcc-linaro-7.2.1-2017.11-x86_64_arm-eabi/arm-eabi/libc/usr/lib/libgcc.a(_arm_fixdfsi.o)
 .ARM.attributes
                0x0000000000002509       0x18 /opt/gcc-linaro-7.2.1-2017.11-x86_64_arm-eabi/arm-eabi/libc/usr/lib/libgcc.a(_arm_fixunsdfsi.o)
 .ARM.attributes
                0x0000000000002521       0x18 /opt/gcc-linaro-7.2.1-2017.11-x86_64_arm-eabi/arm-eabi/libc/usr/lib/libgcc.a(_arm_truncdfsf2.o)
 .ARM.attributes
                0x0000000000002539       0x18 /opt/gcc-linaro-7.2.1-2017.11-x86_64_arm-eabi/arm-eabi/libc/usr/lib/libgcc.a(_arm_cmpsf2.o)
 .ARM.attributes
                0x0000000000002551       0x18 /opt/gcc-linaro-7.2.1-2017.11-x86_64_arm-eabi/arm-eabi/libc/usr/lib/libgcc.a(_arm_unordsf2.o)
 .ARM.attributes
                0x0000000000002569       0x18 /opt/gcc-linaro-7.2.1-2017.11-x86_64_arm-eabi/arm-eabi/libc/usr/lib/libgcc.a(_aeabi_uldivmod.o)
 .ARM.attributes
                0x0000000000002581       0x30 /opt/gcc-linaro-7.2.1-2017.11-x86_64_arm-eabi/arm-eabi/libc/usr/lib/libgcc.a(_udivmoddi4.o)
 .ARM.attributes
                0x00000000000025b1       0x18 /opt/gcc-linaro-7.2.1-2017.11-x86_64_arm-eabi/arm-eabi/libc/usr/lib/libgcc.a(_clzdi2.o)
 .ARM.attributes
                0x00000000000025c9       0x18 /opt/gcc-linaro-7.2.1-2017.11-x86_64_arm-eabi/arm-eabi/libc/usr/lib/libgcc.a(_clzsi2.o)

.debug_frame    0x0000000000000000    0x1097c
 .debug_frame   0x0000000000000000       0xac ./../../../build/tcc70xx/gcc/tcc70xx-freertos-debug/obj/main.o
 .debug_frame   0x00000000000000ac      0x17c ./../../../build/tcc70xx/gcc/tcc70xx-freertos-debug/obj/can_demo.o
 .debug_frame   0x0000000000000228      0x334 ./../../../build/tcc70xx/gcc/tcc70xx-freertos-debug/obj/can_vcp_ctrl.o
 .debug_frame   0x000000000000055c      0x6c4 ./../../../build/tcc70xx/gcc/tcc70xx-freertos-debug/obj/console.o
 .debug_frame   0x0000000000000c20      0x37c ./../../../build/tcc70xx/gcc/tcc70xx-freertos-debug/obj/fwupdate.o
 .debug_frame   0x0000000000000f9c       0x6c ./../../../build/tcc70xx/gcc/tcc70xx-freertos-debug/obj/idle.o
 .debug_frame   0x0000000000001008      0x190 ./../../../build/tcc70xx/gcc/tcc70xx-freertos-debug/obj/iperf_task_v3_0d.o
 .debug_frame   0x0000000000001198       0xf4 ./../../../build/tcc70xx/gcc/tcc70xx-freertos-debug/obj/spi_led.o
 .debug_frame   0x000000000000128c       0xf4 ./../../../build/tcc70xx/gcc/tcc70xx-freertos-debug/obj/audio_test.o
 .debug_frame   0x0000000000001380       0x6c ./../../../build/tcc70xx/gcc/tcc70xx-freertos-debug/obj/audio_chip_veri.o
 .debug_frame   0x00000000000013ec       0x9c ./../../../build/tcc70xx/gcc/tcc70xx-freertos-debug/obj/wm8904.o
 .debug_frame   0x0000000000001488       0xd4 ./../../../build/tcc70xx/gcc/tcc70xx-freertos-debug/obj/cpu_test.o
 .debug_frame   0x000000000000155c       0xb4 ./../../../build/tcc70xx/gcc/tcc70xx-freertos-debug/obj/dse_test.o
 .debug_frame   0x0000000000001610      0x2a4 ./../../../build/tcc70xx/gcc/tcc70xx-freertos-debug/obj/eflash_test.o
 .debug_frame   0x00000000000018b4       0xf0 ./../../../build/tcc70xx/gcc/tcc70xx-freertos-debug/obj/fmu_test.o
 .debug_frame   0x00000000000019a4       0x34 ./../../../build/tcc70xx/gcc/tcc70xx-freertos-debug/obj/gdma_test.o
 .debug_frame   0x00000000000019d8       0x70 ./../../../build/tcc70xx/gcc/tcc70xx-freertos-debug/obj/gic_test.o
 .debug_frame   0x0000000000001a48      0x5a0 ./../../../build/tcc70xx/gcc/tcc70xx-freertos-debug/obj/gpio_test.o
 .debug_frame   0x0000000000001fe8      0x220 ./../../../build/tcc70xx/gcc/tcc70xx-freertos-debug/obj/gpsb_test.o
 .debug_frame   0x0000000000002208      0x434 ./../../../build/tcc70xx/gcc/tcc70xx-freertos-debug/obj/hsm_test.o
 .debug_frame   0x000000000000263c      0x114 ./../../../build/tcc70xx/gcc/tcc70xx-freertos-debug/obj/i2c_test.o
 .debug_frame   0x0000000000002750      0x1ac ./../../../build/tcc70xx/gcc/tcc70xx-freertos-debug/obj/ictc_test.o
 .debug_frame   0x00000000000028fc       0xd0 ./../../../build/tcc70xx/gcc/tcc70xx-freertos-debug/obj/lin_test.o
 .debug_frame   0x00000000000029cc       0xf0 ./../../../build/tcc70xx/gcc/tcc70xx-freertos-debug/obj/pdm_test.o
 .debug_frame   0x0000000000002abc       0xac ./../../../build/tcc70xx/gcc/tcc70xx-freertos-debug/obj/pmu_test.o
 .debug_frame   0x0000000000002b68       0x7c ./../../../build/tcc70xx/gcc/tcc70xx-freertos-debug/obj/rtc_test.o
 .debug_frame   0x0000000000002be4       0x6c ./../../../build/tcc70xx/gcc/tcc70xx-freertos-debug/obj/sfmc_test.o
 .debug_frame   0x0000000000002c50       0x7c ./../../../build/tcc70xx/gcc/tcc70xx-freertos-debug/obj/echo_test.o
 .debug_frame   0x0000000000002ccc      0x24c ./../../../build/tcc70xx/gcc/tcc70xx-freertos-debug/obj/timer_test.o
 .debug_frame   0x0000000000002f18      0x154 ./../../../build/tcc70xx/gcc/tcc70xx-freertos-debug/obj/uart_test.o
 .debug_frame   0x000000000000306c      0x374 ./../../../build/tcc70xx/gcc/tcc70xx-freertos-debug/obj/wdt_test.o
 .debug_frame   0x00000000000033e0      0x18c ./../../../build/tcc70xx/gcc/tcc70xx-freertos-debug/obj/writelock_test.o
 .debug_frame   0x000000000000356c       0xac ./../../../build/tcc70xx/gcc/tcc70xx-freertos-debug/obj/eth_test.o
 .debug_frame   0x0000000000003618      0x1a0 ./../../../build/tcc70xx/gcc/tcc70xx-freertos-debug/obj/spu_test.o
 .debug_frame   0x00000000000037b8       0xe8 ./../../../build/tcc70xx/gcc/tcc70xx-freertos-debug/obj/power_app.o
 .debug_frame   0x00000000000038a0      0x210 ./../../../build/tcc70xx/gcc/tcc70xx-freertos-debug/obj/power_com.o
 .debug_frame   0x0000000000003ab0      0x280 ./../../../build/tcc70xx/gcc/tcc70xx-freertos-debug/obj/spi_eccp.o
 .debug_frame   0x0000000000003d30      0x408 ./../../../build/tcc70xx/gcc/tcc70xx-freertos-debug/obj/hsm_manager.o
 .debug_frame   0x0000000000004138      0x2a4 ./../../../build/tcc70xx/gcc/tcc70xx-freertos-debug/obj/lin.o
 .debug_frame   0x00000000000043dc       0xd0 ./../../../build/tcc70xx/gcc/tcc70xx-freertos-debug/obj/swl.o
 .debug_frame   0x00000000000044ac      0x198 ./../../../build/tcc70xx/gcc/tcc70xx-freertos-debug/obj/adc.o
 .debug_frame   0x0000000000004644      0x1f0 ./../../../build/tcc70xx/gcc/tcc70xx-freertos-debug/obj/can.o
 .debug_frame   0x0000000000004834      0x564 ./../../../build/tcc70xx/gcc/tcc70xx-freertos-debug/obj/can_drv.o
 .debug_frame   0x0000000000004d98      0x234 ./../../../build/tcc70xx/gcc/tcc70xx-freertos-debug/obj/can_msg.o
 .debug_frame   0x0000000000004fcc      0x430 ./../../../build/tcc70xx/gcc/tcc70xx-freertos-debug/obj/can_porting.o
 .debug_frame   0x00000000000053fc      0x380 ./../../../build/tcc70xx/gcc/tcc70xx-freertos-debug/obj/clock_dev.o
 .debug_frame   0x000000000000577c       0xe4 ./../../../build/tcc70xx/gcc/tcc70xx-freertos-debug/obj/debug.o
 .debug_frame   0x0000000000005860       0xa0 ./../../../build/tcc70xx/gcc/tcc70xx-freertos-debug/obj/bsp.o
 .debug_frame   0x0000000000005900       0xf0 ./../../../build/tcc70xx/gcc/tcc70xx-freertos-debug/obj/dse.o
 .debug_frame   0x00000000000059f0      0x28c ./../../../build/tcc70xx/gcc/tcc70xx-freertos-debug/obj/eflash.o
 .debug_frame   0x0000000000005c7c      0x514 ./../../../build/tcc70xx/gcc/tcc70xx-freertos-debug/obj/eth.o
 .debug_frame   0x0000000000006190      0x238 ./../../../build/tcc70xx/gcc/tcc70xx-freertos-debug/obj/eth_mii.o
 .debug_frame   0x00000000000063c8      0x1dc ./../../../build/tcc70xx/gcc/tcc70xx-freertos-debug/obj/fmu.o
 .debug_frame   0x00000000000065a4      0x2b0 ./../../../build/tcc70xx/gcc/tcc70xx-freertos-debug/obj/gdma.o
 .debug_frame   0x0000000000006854      0x214 ./../../../build/tcc70xx/gcc/tcc70xx-freertos-debug/obj/gic.o
 .debug_frame   0x0000000000006a68      0x11c ./../../../build/tcc70xx/gcc/tcc70xx-freertos-debug/obj/gpio.o
 .debug_frame   0x0000000000006b84      0x900 ./../../../build/tcc70xx/gcc/tcc70xx-freertos-debug/obj/gpsb.o
 .debug_frame   0x0000000000007484      0x534 ./../../../build/tcc70xx/gcc/tcc70xx-freertos-debug/obj/i2c.o
 .debug_frame   0x00000000000079b8      0x550 ./../../../build/tcc70xx/gcc/tcc70xx-freertos-debug/obj/i2s.o
 .debug_frame   0x0000000000007f08      0x304 ./../../../build/tcc70xx/gcc/tcc70xx-freertos-debug/obj/ictc.o
 .debug_frame   0x000000000000820c       0x94 ./../../../build/tcc70xx/gcc/tcc70xx-freertos-debug/obj/mbox.o
 .debug_frame   0x00000000000082a0       0x7c ./../../../build/tcc70xx/gcc/tcc70xx-freertos-debug/obj/midf.o
 .debug_frame   0x000000000000831c       0xb4 ./../../../build/tcc70xx/gcc/tcc70xx-freertos-debug/obj/mpu.o
 .debug_frame   0x00000000000083d0       0x5c ./../../../build/tcc70xx/gcc/tcc70xx-freertos-debug/obj/preload.o
 .debug_frame   0x000000000000842c      0x390 ./../../../build/tcc70xx/gcc/tcc70xx-freertos-debug/obj/pdm.o
 .debug_frame   0x00000000000087bc      0x284 ./../../../build/tcc70xx/gcc/tcc70xx-freertos-debug/obj/pmio_dev.o
 .debug_frame   0x0000000000008a40       0xfc ./../../../build/tcc70xx/gcc/tcc70xx-freertos-debug/obj/pmio_dev_extn_pw_ctl.o
 .debug_frame   0x0000000000008b3c      0x150 ./../../../build/tcc70xx/gcc/tcc70xx-freertos-debug/obj/pmu.o
 .debug_frame   0x0000000000008c8c      0x134 ./../../../build/tcc70xx/gcc/tcc70xx-freertos-debug/obj/rtc_dev.o
 .debug_frame   0x0000000000008dc0      0x74c ./../../../build/tcc70xx/gcc/tcc70xx-freertos-debug/obj/snor_mio.o
 .debug_frame   0x000000000000950c      0x528 ./../../../build/tcc70xx/gcc/tcc70xx-freertos-debug/obj/spu.o
 .debug_frame   0x0000000000009a34      0x138 ./../../../build/tcc70xx/gcc/tcc70xx-freertos-debug/obj/ssm.o
 .debug_frame   0x0000000000009b6c      0x1a4 ./../../../build/tcc70xx/gcc/tcc70xx-freertos-debug/obj/timer.o
 .debug_frame   0x0000000000009d10      0x5f4 ./../../../build/tcc70xx/gcc/tcc70xx-freertos-debug/obj/uart.o
 .debug_frame   0x000000000000a304      0x184 ./../../../build/tcc70xx/gcc/tcc70xx-freertos-debug/obj/wdt.o
 .debug_frame   0x000000000000a488      0x184 ./../../../build/tcc70xx/gcc/tcc70xx-freertos-debug/obj/wdt_pmu.o
 .debug_frame   0x000000000000a60c      0x754 ./../../../build/tcc70xx/gcc/tcc70xx-freertos-debug/obj/tasks.o
 .debug_frame   0x000000000000ad60       0xb0 ./../../../build/tcc70xx/gcc/tcc70xx-freertos-debug/obj/list.o
 .debug_frame   0x000000000000ae10      0x588 ./../../../build/tcc70xx/gcc/tcc70xx-freertos-debug/obj/queue.o
 .debug_frame   0x000000000000b398      0x174 ./../../../build/tcc70xx/gcc/tcc70xx-freertos-debug/obj/event_groups.o
 .debug_frame   0x000000000000b50c      0x330 ./../../../build/tcc70xx/gcc/tcc70xx-freertos-debug/obj/timers.o
 .debug_frame   0x000000000000b83c      0x2d0 ./../../../build/tcc70xx/gcc/tcc70xx-freertos-debug/obj/stream_buffer.o
 .debug_frame   0x000000000000bb0c      0x284 ./../../../build/tcc70xx/gcc/tcc70xx-freertos-debug/obj/port.o
 .debug_frame   0x000000000000bd90       0xf8 ./../../../build/tcc70xx/gcc/tcc70xx-freertos-debug/obj/heap_5.o
 .debug_frame   0x000000000000be88      0x134 ./../../../build/tcc70xx/gcc/tcc70xx-freertos-debug/obj/FreeRTOS_ARP.o
 .debug_frame   0x000000000000bfbc      0x200 ./../../../build/tcc70xx/gcc/tcc70xx-freertos-debug/obj/FreeRTOS_DNS.o
 .debug_frame   0x000000000000c1bc      0x558 ./../../../build/tcc70xx/gcc/tcc70xx-freertos-debug/obj/FreeRTOS_IP.o
 .debug_frame   0x000000000000c714      0x7e4 ./../../../build/tcc70xx/gcc/tcc70xx-freertos-debug/obj/FreeRTOS_Sockets.o
 .debug_frame   0x000000000000cef8      0x110 ./../../../build/tcc70xx/gcc/tcc70xx-freertos-debug/obj/FreeRTOS_Stream_Buffer.o
 .debug_frame   0x000000000000d008      0x604 ./../../../build/tcc70xx/gcc/tcc70xx-freertos-debug/obj/FreeRTOS_TCP_IP.o
 .debug_frame   0x000000000000d60c      0x43c ./../../../build/tcc70xx/gcc/tcc70xx-freertos-debug/obj/FreeRTOS_TCP_WIN.o
 .debug_frame   0x000000000000da48       0x58 ./../../../build/tcc70xx/gcc/tcc70xx-freertos-debug/obj/FreeRTOS_UDP_IP.o
 .debug_frame   0x000000000000daa0       0xd0 ./../../../build/tcc70xx/gcc/tcc70xx-freertos-debug/obj/FreeRTOS_Port.o
 .debug_frame   0x000000000000db70      0x150 ./../../../build/tcc70xx/gcc/tcc70xx-freertos-debug/obj/BufferAllocation_1.o
 .debug_frame   0x000000000000dcc0       0xc8 ./../../../build/tcc70xx/gcc/tcc70xx-freertos-debug/obj/NetworkInterface.o
 .debug_frame   0x000000000000dd88       0x34 ./../../../build/tcc70xx/gcc/tcc70xx-freertos-debug/obj/sal_api.o
 .debug_frame   0x000000000000ddbc      0x42c ./../../../build/tcc70xx/gcc/tcc70xx-freertos-debug/obj/sal_freertos_impl.o
 .debug_frame   0x000000000000e1e8       0x48 /opt/gcc-linaro-7.2.1-2017.11-x86_64_arm-eabi/arm-eabi/libc/usr/lib/libc.a(lib_a-atoi.o)
 .debug_frame   0x000000000000e230       0x40 /opt/gcc-linaro-7.2.1-2017.11-x86_64_arm-eabi/arm-eabi/libc/usr/lib/libc.a(lib_a-memcmp.o)
 .debug_frame   0x000000000000e270       0x34 /opt/gcc-linaro-7.2.1-2017.11-x86_64_arm-eabi/arm-eabi/libc/usr/lib/libc.a(lib_a-memcpy-stub.o)
 .debug_frame   0x000000000000e2a4       0x34 /opt/gcc-linaro-7.2.1-2017.11-x86_64_arm-eabi/arm-eabi/libc/usr/lib/libc.a(lib_a-memmove.o)
 .debug_frame   0x000000000000e2d8       0x30 /opt/gcc-linaro-7.2.1-2017.11-x86_64_arm-eabi/arm-eabi/libc/usr/lib/libc.a(lib_a-memset.o)
 .debug_frame   0x000000000000e308       0x74 /opt/gcc-linaro-7.2.1-2017.11-x86_64_arm-eabi/arm-eabi/libc/usr/lib/libc.a(lib_a-snprintf.o)
 .debug_frame   0x000000000000e37c       0x70 /opt/gcc-linaro-7.2.1-2017.11-x86_64_arm-eabi/arm-eabi/libc/usr/lib/libc.a(lib_a-sprintf.o)
 .debug_frame   0x000000000000e3ec       0x70 /opt/gcc-linaro-7.2.1-2017.11-x86_64_arm-eabi/arm-eabi/libc/usr/lib/libc.a(lib_a-sscanf.o)
 .debug_frame   0x000000000000e45c       0x9c /opt/gcc-linaro-7.2.1-2017.11-x86_64_arm-eabi/arm-eabi/libc/usr/lib/libc.a(lib_a-stdio.o)
 .debug_frame   0x000000000000e4f8       0x40 /opt/gcc-linaro-7.2.1-2017.11-x86_64_arm-eabi/arm-eabi/libc/usr/lib/libc.a(lib_a-strcmp.o)
 .debug_frame   0x000000000000e538       0x20 /opt/gcc-linaro-7.2.1-2017.11-x86_64_arm-eabi/arm-eabi/libc/usr/lib/libc.a(lib_a-strcpy.o)
 .debug_frame   0x000000000000e558       0x20 /opt/gcc-linaro-7.2.1-2017.11-x86_64_arm-eabi/arm-eabi/libc/usr/lib/libc.a(lib_a-strlen-stub.o)
 .debug_frame   0x000000000000e578       0x4c /opt/gcc-linaro-7.2.1-2017.11-x86_64_arm-eabi/arm-eabi/libc/usr/lib/libc.a(lib_a-strncmp.o)
 .debug_frame   0x000000000000e5c4       0x40 /opt/gcc-linaro-7.2.1-2017.11-x86_64_arm-eabi/arm-eabi/libc/usr/lib/libc.a(lib_a-strncpy.o)
 .debug_frame   0x000000000000e604       0x20 /opt/gcc-linaro-7.2.1-2017.11-x86_64_arm-eabi/arm-eabi/libc/usr/lib/libc.a(lib_a-strnlen.o)
 .debug_frame   0x000000000000e624       0xac /opt/gcc-linaro-7.2.1-2017.11-x86_64_arm-eabi/arm-eabi/libc/usr/lib/libc.a(lib_a-strtol.o)
 .debug_frame   0x000000000000e6d0       0xa8 /opt/gcc-linaro-7.2.1-2017.11-x86_64_arm-eabi/arm-eabi/libc/usr/lib/libc.a(lib_a-strtoul.o)
 .debug_frame   0x000000000000e778       0x8c /opt/gcc-linaro-7.2.1-2017.11-x86_64_arm-eabi/arm-eabi/libc/usr/lib/libc.a(lib_a-svfprintf.o)
 .debug_frame   0x000000000000e804       0x60 /opt/gcc-linaro-7.2.1-2017.11-x86_64_arm-eabi/arm-eabi/libc/usr/lib/libc.a(lib_a-svfscanf.o)
 .debug_frame   0x000000000000e864       0x68 /opt/gcc-linaro-7.2.1-2017.11-x86_64_arm-eabi/arm-eabi/libc/usr/lib/libc.a(lib_a-wcrtomb.o)
 .debug_frame   0x000000000000e8cc       0x50 /opt/gcc-linaro-7.2.1-2017.11-x86_64_arm-eabi/arm-eabi/libc/usr/lib/libc.a(lib_a-wcsrtombs.o)
 .debug_frame   0x000000000000e91c       0x34 /opt/gcc-linaro-7.2.1-2017.11-x86_64_arm-eabi/arm-eabi/libc/usr/lib/libc.a(lib_a-writer.o)
 .debug_frame   0x000000000000e950       0x34 /opt/gcc-linaro-7.2.1-2017.11-x86_64_arm-eabi/arm-eabi/libc/usr/lib/libc.a(lib_a-closer.o)
 .debug_frame   0x000000000000e984       0xc0 /opt/gcc-linaro-7.2.1-2017.11-x86_64_arm-eabi/arm-eabi/libc/usr/lib/libc.a(lib_a-dtoa.o)
 .debug_frame   0x000000000000ea44       0x74 /opt/gcc-linaro-7.2.1-2017.11-x86_64_arm-eabi/arm-eabi/libc/usr/lib/libc.a(lib_a-freer.o)
 .debug_frame   0x000000000000eab8       0x2c /opt/gcc-linaro-7.2.1-2017.11-x86_64_arm-eabi/arm-eabi/libc/usr/lib/libc.a(lib_a-iswspace.o)
 .debug_frame   0x000000000000eae4       0x64 /opt/gcc-linaro-7.2.1-2017.11-x86_64_arm-eabi/arm-eabi/libc/usr/lib/libc.a(lib_a-jp2uc.o)
 .debug_frame   0x000000000000eb48      0x194 /opt/gcc-linaro-7.2.1-2017.11-x86_64_arm-eabi/arm-eabi/libc/usr/lib/libc.a(lib_a-locale.o)
 .debug_frame   0x000000000000ecdc       0x40 /opt/gcc-linaro-7.2.1-2017.11-x86_64_arm-eabi/arm-eabi/libc/usr/lib/libc.a(lib_a-localeconv.o)
 .debug_frame   0x000000000000ed1c       0x34 /opt/gcc-linaro-7.2.1-2017.11-x86_64_arm-eabi/arm-eabi/libc/usr/lib/libc.a(lib_a-lseekr.o)
 .debug_frame   0x000000000000ed50       0x8c /opt/gcc-linaro-7.2.1-2017.11-x86_64_arm-eabi/arm-eabi/libc/usr/lib/libc.a(lib_a-mallocr.o)
 .debug_frame   0x000000000000eddc       0x68 /opt/gcc-linaro-7.2.1-2017.11-x86_64_arm-eabi/arm-eabi/libc/usr/lib/libc.a(lib_a-mbrtowc.o)
 .debug_frame   0x000000000000ee44      0x170 /opt/gcc-linaro-7.2.1-2017.11-x86_64_arm-eabi/arm-eabi/libc/usr/lib/libc.a(lib_a-mbtowc_r.o)
 .debug_frame   0x000000000000efb4       0x38 /opt/gcc-linaro-7.2.1-2017.11-x86_64_arm-eabi/arm-eabi/libc/usr/lib/libc.a(lib_a-memchr-stub.o)
 .debug_frame   0x000000000000efec       0x30 /opt/gcc-linaro-7.2.1-2017.11-x86_64_arm-eabi/arm-eabi/libc/usr/lib/libc.a(lib_a-mlock.o)
 .debug_frame   0x000000000000f01c      0x2f0 /opt/gcc-linaro-7.2.1-2017.11-x86_64_arm-eabi/arm-eabi/libc/usr/lib/libc.a(lib_a-mprec.o)
 .debug_frame   0x000000000000f30c       0x34 /opt/gcc-linaro-7.2.1-2017.11-x86_64_arm-eabi/arm-eabi/libc/usr/lib/libc.a(lib_a-readr.o)
 .debug_frame   0x000000000000f340       0x68 /opt/gcc-linaro-7.2.1-2017.11-x86_64_arm-eabi/arm-eabi/libc/usr/lib/libc.a(lib_a-reent.o)
 .debug_frame   0x000000000000f3a8       0x34 /opt/gcc-linaro-7.2.1-2017.11-x86_64_arm-eabi/arm-eabi/libc/usr/lib/libc.a(lib_a-s_frexp.o)
 .debug_frame   0x000000000000f3dc       0x34 /opt/gcc-linaro-7.2.1-2017.11-x86_64_arm-eabi/arm-eabi/libc/usr/lib/libc.a(lib_a-sbrkr.o)
 .debug_frame   0x000000000000f410       0x34 /opt/gcc-linaro-7.2.1-2017.11-x86_64_arm-eabi/arm-eabi/libc/usr/lib/libc.a(lib_a-sccl.o)
 .debug_frame   0x000000000000f444       0x20 /opt/gcc-linaro-7.2.1-2017.11-x86_64_arm-eabi/arm-eabi/libc/usr/lib/libc.a(lib_a-sf_nan.o)
 .debug_frame   0x000000000000f464       0x3c /opt/gcc-linaro-7.2.1-2017.11-x86_64_arm-eabi/arm-eabi/libc/usr/lib/libc.a(lib_a-stpncpy.o)
 .debug_frame   0x000000000000f4a0       0x44 /opt/gcc-linaro-7.2.1-2017.11-x86_64_arm-eabi/arm-eabi/libc/usr/lib/libc.a(lib_a-strcasecmp.o)
 .debug_frame   0x000000000000f4e4       0x2c /opt/gcc-linaro-7.2.1-2017.11-x86_64_arm-eabi/arm-eabi/libc/usr/lib/libc.a(lib_a-strcat.o)
 .debug_frame   0x000000000000f510       0x34 /opt/gcc-linaro-7.2.1-2017.11-x86_64_arm-eabi/arm-eabi/libc/usr/lib/libc.a(lib_a-strchr.o)
 .debug_frame   0x000000000000f544       0x20 /opt/gcc-linaro-7.2.1-2017.11-x86_64_arm-eabi/arm-eabi/libc/usr/lib/libc.a(lib_a-strlcpy.o)
 .debug_frame   0x000000000000f564       0x44 /opt/gcc-linaro-7.2.1-2017.11-x86_64_arm-eabi/arm-eabi/libc/usr/lib/libc.a(lib_a-strncasecmp.o)
 .debug_frame   0x000000000000f5a8      0x10c /opt/gcc-linaro-7.2.1-2017.11-x86_64_arm-eabi/arm-eabi/libc/usr/lib/libc.a(lib_a-strtod.o)
 .debug_frame   0x000000000000f6b4       0xac /opt/gcc-linaro-7.2.1-2017.11-x86_64_arm-eabi/arm-eabi/libc/usr/lib/libc.a(lib_a-strtoll.o)
 .debug_frame   0x000000000000f760       0xac /opt/gcc-linaro-7.2.1-2017.11-x86_64_arm-eabi/arm-eabi/libc/usr/lib/libc.a(lib_a-strtoull.o)
 .debug_frame   0x000000000000f80c       0xd8 /opt/gcc-linaro-7.2.1-2017.11-x86_64_arm-eabi/arm-eabi/libc/usr/lib/libc.a(lib_a-svfiprintf.o)
 .debug_frame   0x000000000000f8e4       0xfc /opt/gcc-linaro-7.2.1-2017.11-x86_64_arm-eabi/arm-eabi/libc/usr/lib/libc.a(lib_a-svfiscanf.o)
 .debug_frame   0x000000000000f9e0      0x440 /opt/gcc-linaro-7.2.1-2017.11-x86_64_arm-eabi/arm-eabi/libc/usr/lib/libc.a(lib_a-syscalls.o)
 .debug_frame   0x000000000000fe20       0x88 /opt/gcc-linaro-7.2.1-2017.11-x86_64_arm-eabi/arm-eabi/libc/usr/lib/libc.a(lib_a-ungetc.o)
 .debug_frame   0x000000000000fea8       0xa8 /opt/gcc-linaro-7.2.1-2017.11-x86_64_arm-eabi/arm-eabi/libc/usr/lib/libc.a(lib_a-wcsnrtombs.o)
 .debug_frame   0x000000000000ff50       0xd0 /opt/gcc-linaro-7.2.1-2017.11-x86_64_arm-eabi/arm-eabi/libc/usr/lib/libc.a(lib_a-wctomb_r.o)
 .debug_frame   0x0000000000010020       0x34 /opt/gcc-linaro-7.2.1-2017.11-x86_64_arm-eabi/arm-eabi/libc/usr/lib/libc.a(lib_a-callocr.o)
 .debug_frame   0x0000000000010054       0x20 /opt/gcc-linaro-7.2.1-2017.11-x86_64_arm-eabi/arm-eabi/libc/usr/lib/libc.a(lib_a-ctype_.o)
 .debug_frame   0x0000000000010074       0x20 /opt/gcc-linaro-7.2.1-2017.11-x86_64_arm-eabi/arm-eabi/libc/usr/lib/libc.a(lib_a-errno.o)
 .debug_frame   0x0000000000010094       0xa0 /opt/gcc-linaro-7.2.1-2017.11-x86_64_arm-eabi/arm-eabi/libc/usr/lib/libc.a(lib_a-fflush.o)
 .debug_frame   0x0000000000010134      0x174 /opt/gcc-linaro-7.2.1-2017.11-x86_64_arm-eabi/arm-eabi/libc/usr/lib/libc.a(lib_a-findfp.o)
 .debug_frame   0x00000000000102a8       0x68 /opt/gcc-linaro-7.2.1-2017.11-x86_64_arm-eabi/arm-eabi/libc/usr/lib/libc.a(lib_a-fwalk.o)
 .debug_frame   0x0000000000010310       0x98 /opt/gcc-linaro-7.2.1-2017.11-x86_64_arm-eabi/arm-eabi/libc/usr/lib/libc.a(lib_a-gdtoa-gethex.o)
 .debug_frame   0x00000000000103a8       0x90 /opt/gcc-linaro-7.2.1-2017.11-x86_64_arm-eabi/arm-eabi/libc/usr/lib/libc.a(lib_a-gdtoa-hexnan.o)
 .debug_frame   0x0000000000010438       0x70 /opt/gcc-linaro-7.2.1-2017.11-x86_64_arm-eabi/arm-eabi/libc/usr/lib/libc.a(lib_a-getenv_r.o)
 .debug_frame   0x00000000000104a8       0x68 /opt/gcc-linaro-7.2.1-2017.11-x86_64_arm-eabi/arm-eabi/libc/usr/lib/libc.a(lib_a-reallocr.o)
 .debug_frame   0x0000000000010510       0x30 /opt/gcc-linaro-7.2.1-2017.11-x86_64_arm-eabi/arm-eabi/libc/usr/lib/libc.a(lib_a-envlock.o)
 .debug_frame   0x0000000000010540       0x50 /opt/gcc-linaro-7.2.1-2017.11-x86_64_arm-eabi/arm-eabi/libc/usr/lib/libc.a(lib_a-fclose.o)
 .debug_frame   0x0000000000010590       0x20 /opt/gcc-linaro-7.2.1-2017.11-x86_64_arm-eabi/arm-eabi/libc/usr/lib/libm.a(lib_a-sf_fabs.o)
 .debug_frame   0x00000000000105b0       0x20 /opt/gcc-linaro-7.2.1-2017.11-x86_64_arm-eabi/arm-eabi/libc/usr/lib/libgcc.a(_udivsi3.o)
 .debug_frame   0x00000000000105d0       0xac /opt/gcc-linaro-7.2.1-2017.11-x86_64_arm-eabi/arm-eabi/libc/usr/lib/libgcc.a(_arm_addsubdf3.o)
 .debug_frame   0x000000000001067c       0x50 /opt/gcc-linaro-7.2.1-2017.11-x86_64_arm-eabi/arm-eabi/libc/usr/lib/libgcc.a(_arm_muldivdf3.o)
 .debug_frame   0x00000000000106cc       0xc4 /opt/gcc-linaro-7.2.1-2017.11-x86_64_arm-eabi/arm-eabi/libc/usr/lib/libgcc.a(_arm_cmpdf2.o)
 .debug_frame   0x0000000000010790       0x20 /opt/gcc-linaro-7.2.1-2017.11-x86_64_arm-eabi/arm-eabi/libc/usr/lib/libgcc.a(_arm_unorddf2.o)
 .debug_frame   0x00000000000107b0       0x24 /opt/gcc-linaro-7.2.1-2017.11-x86_64_arm-eabi/arm-eabi/libc/usr/lib/libgcc.a(_arm_fixdfsi.o)
 .debug_frame   0x00000000000107d4       0x24 /opt/gcc-linaro-7.2.1-2017.11-x86_64_arm-eabi/arm-eabi/libc/usr/lib/libgcc.a(_arm_fixunsdfsi.o)
 .debug_frame   0x00000000000107f8       0x24 /opt/gcc-linaro-7.2.1-2017.11-x86_64_arm-eabi/arm-eabi/libc/usr/lib/libgcc.a(_arm_truncdfsf2.o)
 .debug_frame   0x000000000001081c       0xc8 /opt/gcc-linaro-7.2.1-2017.11-x86_64_arm-eabi/arm-eabi/libc/usr/lib/libgcc.a(_arm_cmpsf2.o)
 .debug_frame   0x00000000000108e4       0x24 /opt/gcc-linaro-7.2.1-2017.11-x86_64_arm-eabi/arm-eabi/libc/usr/lib/libgcc.a(_arm_unordsf2.o)
 .debug_frame   0x0000000000010908       0x2c /opt/gcc-linaro-7.2.1-2017.11-x86_64_arm-eabi/arm-eabi/libc/usr/lib/libgcc.a(_aeabi_uldivmod.o)
 .debug_frame   0x0000000000010934       0x48 /opt/gcc-linaro-7.2.1-2017.11-x86_64_arm-eabi/arm-eabi/libc/usr/lib/libgcc.a(_udivmoddi4.o)

.debug_ranges   0x0000000000000000     0x1210
 .debug_ranges  0x0000000000000000       0x18 ./../../../build/tcc70xx/gcc/tcc70xx-freertos-debug/obj/iperf_task_v3_0d.o
 .debug_ranges  0x0000000000000018       0x18 ./../../../build/tcc70xx/gcc/tcc70xx-freertos-debug/obj/i2s.o
 .debug_ranges  0x0000000000000030       0x18 ./../../../build/tcc70xx/gcc/tcc70xx-freertos-debug/obj/preload.o
 .debug_ranges  0x0000000000000048       0x18 ./../../../build/tcc70xx/gcc/tcc70xx-freertos-debug/obj/FreeRTOS_IP.o
 .debug_ranges  0x0000000000000060       0x48 ./../../../build/tcc70xx/gcc/tcc70xx-freertos-debug/obj/FreeRTOS_Sockets.o
 .debug_ranges  0x00000000000000a8       0x28 ./../../../build/tcc70xx/gcc/tcc70xx-freertos-debug/obj/sal_freertos_impl.o
 .debug_ranges  0x00000000000000d0       0x10 /opt/gcc-linaro-7.2.1-2017.11-x86_64_arm-eabi/arm-eabi/libc/usr/lib/libc.a(lib_a-strcpy.o)
 .debug_ranges  0x00000000000000e0       0x10 /opt/gcc-linaro-7.2.1-2017.11-x86_64_arm-eabi/arm-eabi/libc/usr/lib/libc.a(lib_a-strlen-stub.o)
 .debug_ranges  0x00000000000000f0       0x18 /opt/gcc-linaro-7.2.1-2017.11-x86_64_arm-eabi/arm-eabi/libc/usr/lib/libc.a(lib_a-strtol.o)
 .debug_ranges  0x0000000000000108       0x18 /opt/gcc-linaro-7.2.1-2017.11-x86_64_arm-eabi/arm-eabi/libc/usr/lib/libc.a(lib_a-strtoul.o)
 .debug_ranges  0x0000000000000120      0x288 /opt/gcc-linaro-7.2.1-2017.11-x86_64_arm-eabi/arm-eabi/libc/usr/lib/libc.a(lib_a-svfprintf.o)
 .debug_ranges  0x00000000000003a8      0x348 /opt/gcc-linaro-7.2.1-2017.11-x86_64_arm-eabi/arm-eabi/libc/usr/lib/libc.a(lib_a-svfscanf.o)
 .debug_ranges  0x00000000000006f0       0x18 /opt/gcc-linaro-7.2.1-2017.11-x86_64_arm-eabi/arm-eabi/libc/usr/lib/libc.a(lib_a-wcrtomb.o)
 .debug_ranges  0x0000000000000708       0x20 /opt/gcc-linaro-7.2.1-2017.11-x86_64_arm-eabi/arm-eabi/libc/usr/lib/libc.a(lib_a-writer.o)
 .debug_ranges  0x0000000000000728       0x18 /opt/gcc-linaro-7.2.1-2017.11-x86_64_arm-eabi/arm-eabi/libc/usr/lib/libc.a(lib_a-closer.o)
 .debug_ranges  0x0000000000000740       0x38 /opt/gcc-linaro-7.2.1-2017.11-x86_64_arm-eabi/arm-eabi/libc/usr/lib/libc.a(lib_a-locale.o)
 .debug_ranges  0x0000000000000778       0x20 /opt/gcc-linaro-7.2.1-2017.11-x86_64_arm-eabi/arm-eabi/libc/usr/lib/libc.a(lib_a-lseekr.o)
 .debug_ranges  0x0000000000000798       0x30 /opt/gcc-linaro-7.2.1-2017.11-x86_64_arm-eabi/arm-eabi/libc/usr/lib/libc.a(lib_a-mallocr.o)
 .debug_ranges  0x00000000000007c8       0x18 /opt/gcc-linaro-7.2.1-2017.11-x86_64_arm-eabi/arm-eabi/libc/usr/lib/libc.a(lib_a-mbrtowc.o)
 .debug_ranges  0x00000000000007e0       0x58 /opt/gcc-linaro-7.2.1-2017.11-x86_64_arm-eabi/arm-eabi/libc/usr/lib/libc.a(lib_a-mbtowc_r.o)
 .debug_ranges  0x0000000000000838       0x60 /opt/gcc-linaro-7.2.1-2017.11-x86_64_arm-eabi/arm-eabi/libc/usr/lib/libc.a(lib_a-mprec.o)
 .debug_ranges  0x0000000000000898       0x20 /opt/gcc-linaro-7.2.1-2017.11-x86_64_arm-eabi/arm-eabi/libc/usr/lib/libc.a(lib_a-readr.o)
 .debug_ranges  0x00000000000008b8       0x18 /opt/gcc-linaro-7.2.1-2017.11-x86_64_arm-eabi/arm-eabi/libc/usr/lib/libc.a(lib_a-s_frexp.o)
 .debug_ranges  0x00000000000008d0       0x10 /opt/gcc-linaro-7.2.1-2017.11-x86_64_arm-eabi/arm-eabi/libc/usr/lib/libc.a(lib_a-sccl.o)
 .debug_ranges  0x00000000000008e0       0x30 /opt/gcc-linaro-7.2.1-2017.11-x86_64_arm-eabi/arm-eabi/libc/usr/lib/libc.a(lib_a-strcasecmp.o)
 .debug_ranges  0x0000000000000910       0x18 /opt/gcc-linaro-7.2.1-2017.11-x86_64_arm-eabi/arm-eabi/libc/usr/lib/libc.a(lib_a-strncasecmp.o)
 .debug_ranges  0x0000000000000928       0x90 /opt/gcc-linaro-7.2.1-2017.11-x86_64_arm-eabi/arm-eabi/libc/usr/lib/libc.a(lib_a-strtod.o)
 .debug_ranges  0x00000000000009b8       0x18 /opt/gcc-linaro-7.2.1-2017.11-x86_64_arm-eabi/arm-eabi/libc/usr/lib/libc.a(lib_a-strtoll.o)
 .debug_ranges  0x00000000000009d0       0x18 /opt/gcc-linaro-7.2.1-2017.11-x86_64_arm-eabi/arm-eabi/libc/usr/lib/libc.a(lib_a-strtoull.o)
 .debug_ranges  0x00000000000009e8      0x120 /opt/gcc-linaro-7.2.1-2017.11-x86_64_arm-eabi/arm-eabi/libc/usr/lib/libc.a(lib_a-svfiprintf.o)
 .debug_ranges  0x0000000000000b08      0x1f0 /opt/gcc-linaro-7.2.1-2017.11-x86_64_arm-eabi/arm-eabi/libc/usr/lib/libc.a(lib_a-svfiscanf.o)
 .debug_ranges  0x0000000000000cf8      0x2b8 /opt/gcc-linaro-7.2.1-2017.11-x86_64_arm-eabi/arm-eabi/libc/usr/lib/libc.a(lib_a-syscalls.o)
 .debug_ranges  0x0000000000000fb0       0x30 /opt/gcc-linaro-7.2.1-2017.11-x86_64_arm-eabi/arm-eabi/libc/usr/lib/libc.a(lib_a-ungetc.o)
 .debug_ranges  0x0000000000000fe0       0x40 /opt/gcc-linaro-7.2.1-2017.11-x86_64_arm-eabi/arm-eabi/libc/usr/lib/libc.a(lib_a-wcsnrtombs.o)
 .debug_ranges  0x0000000000001020       0x18 /opt/gcc-linaro-7.2.1-2017.11-x86_64_arm-eabi/arm-eabi/libc/usr/lib/libc.a(lib_a-wctomb_r.o)
 .debug_ranges  0x0000000000001038       0x18 /opt/gcc-linaro-7.2.1-2017.11-x86_64_arm-eabi/arm-eabi/libc/usr/lib/libc.a(lib_a-callocr.o)
 .debug_ranges  0x0000000000001050       0x38 /opt/gcc-linaro-7.2.1-2017.11-x86_64_arm-eabi/arm-eabi/libc/usr/lib/libc.a(lib_a-fflush.o)
 .debug_ranges  0x0000000000001088       0x68 /opt/gcc-linaro-7.2.1-2017.11-x86_64_arm-eabi/arm-eabi/libc/usr/lib/libc.a(lib_a-findfp.o)
 .debug_ranges  0x00000000000010f0       0x30 /opt/gcc-linaro-7.2.1-2017.11-x86_64_arm-eabi/arm-eabi/libc/usr/lib/libc.a(lib_a-gdtoa-gethex.o)
 .debug_ranges  0x0000000000001120       0xb0 /opt/gcc-linaro-7.2.1-2017.11-x86_64_arm-eabi/arm-eabi/libc/usr/lib/libc.a(lib_a-reallocr.o)
 .debug_ranges  0x00000000000011d0       0x30 /opt/gcc-linaro-7.2.1-2017.11-x86_64_arm-eabi/arm-eabi/libc/usr/lib/libc.a(lib_a-fclose.o)
 .debug_ranges  0x0000000000001200       0x10 /opt/gcc-linaro-7.2.1-2017.11-x86_64_arm-eabi/arm-eabi/libc/usr/lib/libm.a(lib_a-sf_fabs.o)

Cross Reference Table

Symbol                                            File
ADC_AutoScan                                      ./../../../build/tcc70xx/gcc/tcc70xx-freertos-debug/obj/adc.o
ADC_DeInit                                        ./../../../build/tcc70xx/gcc/tcc70xx-freertos-debug/obj/adc.o
ADC_Init                                          ./../../../build/tcc70xx/gcc/tcc70xx-freertos-debug/obj/adc.o
                                                  ./../../../build/tcc70xx/gcc/tcc70xx-freertos-debug/obj/bsp.o
ADC_Read                                          ./../../../build/tcc70xx/gcc/tcc70xx-freertos-debug/obj/adc.o
ARM_DSB                                           ./../../../build/tcc70xx/gcc/tcc70xx-freertos-debug/obj/arm_a.o
                                                  ./../../../build/tcc70xx/gcc/tcc70xx-freertos-debug/obj/mpu.o
ARM_ExceptDataAbortHndlr                          ./../../../build/tcc70xx/gcc/tcc70xx-freertos-debug/obj/sal.o
                                                  ./../../../build/tcc70xx/gcc/tcc70xx-freertos-debug/obj/vector.o
ARM_ExceptFiqHndlr                                ./../../../build/tcc70xx/gcc/tcc70xx-freertos-debug/obj/sal.o
                                                  ./../../../build/tcc70xx/gcc/tcc70xx-freertos-debug/obj/vector.o
ARM_ExceptIrqHndlr                                ./../../../build/tcc70xx/gcc/tcc70xx-freertos-debug/obj/sal.o
                                                  ./../../../build/tcc70xx/gcc/tcc70xx-freertos-debug/obj/vector.o
ARM_ExceptPrefetchAbortHndlr                      ./../../../build/tcc70xx/gcc/tcc70xx-freertos-debug/obj/sal.o
                                                  ./../../../build/tcc70xx/gcc/tcc70xx-freertos-debug/obj/vector.o
ARM_ExceptSwiHndlr                                ./../../../build/tcc70xx/gcc/tcc70xx-freertos-debug/obj/sal.o
                                                  ./../../../build/tcc70xx/gcc/tcc70xx-freertos-debug/obj/vector.o
ARM_ExceptUndefInstrHndlr                         ./../../../build/tcc70xx/gcc/tcc70xx-freertos-debug/obj/sal.o
                                                  ./../../../build/tcc70xx/gcc/tcc70xx-freertos-debug/obj/vector.o
ARM_Reserved                                      ./../../../build/tcc70xx/gcc/tcc70xx-freertos-debug/obj/vector.o
                                                  ./../../../build/tcc70xx/gcc/tcc70xx-freertos-debug/obj/bsp.o
AUDIO_CreateAppTask                               ./../../../build/tcc70xx/gcc/tcc70xx-freertos-debug/obj/audio_test.o
AUDIO_DACHwMute                                   ./../../../build/tcc70xx/gcc/tcc70xx-freertos-debug/obj/audio_test.o
AUDIO_ErrorOcuur_TEST                             ./../../../build/tcc70xx/gcc/tcc70xx-freertos-debug/obj/audio_chip_veri.o
AUDIO_Init                                        ./../../../build/tcc70xx/gcc/tcc70xx-freertos-debug/obj/audio_test.o
AUDIO_LRMode_Test                                 ./../../../build/tcc70xx/gcc/tcc70xx-freertos-debug/obj/audio_chip_veri.o
AUDIO_Read                                        ./../../../build/tcc70xx/gcc/tcc70xx-freertos-debug/obj/audio_test.o
AUDIO_SampleTest                                  ./../../../build/tcc70xx/gcc/tcc70xx-freertos-debug/obj/audio_test.o
                                                  ./../../../build/tcc70xx/gcc/tcc70xx-freertos-debug/obj/console.o
AUDIO_TestUsage                                   ./../../../build/tcc70xx/gcc/tcc70xx-freertos-debug/obj/audio_test.o
ArbitrationPhaseTimingPar                         ./../../../build/tcc70xx/gcc/tcc70xx-freertos-debug/obj/can_par.o
                                                  ./../../../build/tcc70xx/gcc/tcc70xx-freertos-debug/obj/can_drv.o
BSP_EnableSYSPower                                ./../../../build/tcc70xx/gcc/tcc70xx-freertos-debug/obj/bsp.o
BSP_Init                                          ./../../../build/tcc70xx/gcc/tcc70xx-freertos-debug/obj/bsp.o
                                                  ./../../../build/tcc70xx/gcc/tcc70xx-freertos-debug/obj/main.o
BSP_PreInit                                       ./../../../build/tcc70xx/gcc/tcc70xx-freertos-debug/obj/bsp.o
                                                  ./../../../build/tcc70xx/gcc/tcc70xx-freertos-debug/obj/main.o
BSP_SystemHalt                                    ./../../../build/tcc70xx/gcc/tcc70xx-freertos-debug/obj/bsp.o
BSP_UndefAbortExceptionHook                       ./../../../build/tcc70xx/gcc/tcc70xx-freertos-debug/obj/bsp.o
                                                  ./../../../build/tcc70xx/gcc/tcc70xx-freertos-debug/obj/freertos.o
CANCallbackFunctions                              ./../../../build/tcc70xx/gcc/tcc70xx-freertos-debug/obj/can_par.o
                                                  ./../../../build/tcc70xx/gcc/tcc70xx-freertos-debug/obj/can_drv.o
                                                  ./../../../build/tcc70xx/gcc/tcc70xx-freertos-debug/obj/can.o
CANDriverInfo                                     ./../../../build/tcc70xx/gcc/tcc70xx-freertos-debug/obj/can_drv.o
                                                  ./../../../build/tcc70xx/gcc/tcc70xx-freertos-debug/obj/can_msg.o
                                                  ./../../../build/tcc70xx/gcc/tcc70xx-freertos-debug/obj/can.o
CAN_CheckNewRxMessage                             ./../../../build/tcc70xx/gcc/tcc70xx-freertos-debug/obj/can.o
                                                  ./../../../build/tcc70xx/gcc/tcc70xx-freertos-debug/obj/can_demo.o
CAN_CheckNewTxEvent                               ./../../../build/tcc70xx/gcc/tcc70xx-freertos-debug/obj/can.o
                                                  ./../../../build/tcc70xx/gcc/tcc70xx-freertos-debug/obj/can_demo.o
CAN_Deinit                                        ./../../../build/tcc70xx/gcc/tcc70xx-freertos-debug/obj/can.o
                                                  ./../../../build/tcc70xx/gcc/tcc70xx-freertos-debug/obj/can_drv.o
                                                  ./../../../build/tcc70xx/gcc/tcc70xx-freertos-debug/obj/fwupdate.o
CAN_DemoCreateApp                                 ./../../../build/tcc70xx/gcc/tcc70xx-freertos-debug/obj/can_demo.o
                                                  ./../../../build/tcc70xx/gcc/tcc70xx-freertos-debug/obj/main.o
CAN_DemoInitialize                                ./../../../build/tcc70xx/gcc/tcc70xx-freertos-debug/obj/can_demo.o
                                                  ./../../../build/tcc70xx/gcc/tcc70xx-freertos-debug/obj/main.o
CAN_DemoTest                                      ./../../../build/tcc70xx/gcc/tcc70xx-freertos-debug/obj/can_demo.o
                                                  ./../../../build/tcc70xx/gcc/tcc70xx-freertos-debug/obj/console.o
CAN_DrvCallbackNotifyRxEvent                      ./../../../build/tcc70xx/gcc/tcc70xx-freertos-debug/obj/can_drv.o
                                                  ./../../../build/tcc70xx/gcc/tcc70xx-freertos-debug/obj/can_msg.o
CAN_DrvDeinitChannel                              ./../../../build/tcc70xx/gcc/tcc70xx-freertos-debug/obj/can_drv.o
                                                  ./../../../build/tcc70xx/gcc/tcc70xx-freertos-debug/obj/can.o
CAN_DrvGetControllerInfo                          ./../../../build/tcc70xx/gcc/tcc70xx-freertos-debug/obj/can_drv.o
CAN_DrvGetProtocolStatus                          ./../../../build/tcc70xx/gcc/tcc70xx-freertos-debug/obj/can_drv.o
                                                  ./../../../build/tcc70xx/gcc/tcc70xx-freertos-debug/obj/can.o
CAN_DrvInitChannel                                ./../../../build/tcc70xx/gcc/tcc70xx-freertos-debug/obj/can_drv.o
                                                  ./../../../build/tcc70xx/gcc/tcc70xx-freertos-debug/obj/can.o
CAN_DrvResetController                            ./../../../build/tcc70xx/gcc/tcc70xx-freertos-debug/obj/can_drv.o
                                                  ./../../../build/tcc70xx/gcc/tcc70xx-freertos-debug/obj/can.o
CAN_DrvSetExternalTestMode                        ./../../../build/tcc70xx/gcc/tcc70xx-freertos-debug/obj/can_drv.o
                                                  ./../../../build/tcc70xx/gcc/tcc70xx-freertos-debug/obj/can.o
CAN_DrvSetInternalTestMode                        ./../../../build/tcc70xx/gcc/tcc70xx-freertos-debug/obj/can_drv.o
                                                  ./../../../build/tcc70xx/gcc/tcc70xx-freertos-debug/obj/can.o
CAN_DrvSetMonitoringMode                          ./../../../build/tcc70xx/gcc/tcc70xx-freertos-debug/obj/can_drv.o
                                                  ./../../../build/tcc70xx/gcc/tcc70xx-freertos-debug/obj/can.o
CAN_DrvSetNormalOperationMode                     ./../../../build/tcc70xx/gcc/tcc70xx-freertos-debug/obj/can_drv.o
                                                  ./../../../build/tcc70xx/gcc/tcc70xx-freertos-debug/obj/can.o
CAN_DrvSetSleepMode                               ./../../../build/tcc70xx/gcc/tcc70xx-freertos-debug/obj/can_drv.o
                                                  ./../../../build/tcc70xx/gcc/tcc70xx-freertos-debug/obj/can.o
CAN_DrvSetWakeUpMode                              ./../../../build/tcc70xx/gcc/tcc70xx-freertos-debug/obj/can_drv.o
                                                  ./../../../build/tcc70xx/gcc/tcc70xx-freertos-debug/obj/can.o
CAN_GetControllerMode                             ./../../../build/tcc70xx/gcc/tcc70xx-freertos-debug/obj/can.o
CAN_GetNewRxMessage                               ./../../../build/tcc70xx/gcc/tcc70xx-freertos-debug/obj/can.o
                                                  ./../../../build/tcc70xx/gcc/tcc70xx-freertos-debug/obj/can_demo.o
CAN_GetNewTxEvent                                 ./../../../build/tcc70xx/gcc/tcc70xx-freertos-debug/obj/can.o
                                                  ./../../../build/tcc70xx/gcc/tcc70xx-freertos-debug/obj/can_demo.o
CAN_GetProtocolStatus                             ./../../../build/tcc70xx/gcc/tcc70xx-freertos-debug/obj/can.o
                                                  ./../../../build/tcc70xx/gcc/tcc70xx-freertos-debug/obj/can_demo.o
CAN_Init                                          ./../../../build/tcc70xx/gcc/tcc70xx-freertos-debug/obj/can.o
                                                  ./../../../build/tcc70xx/gcc/tcc70xx-freertos-debug/obj/can_drv.o
                                                  ./../../../build/tcc70xx/gcc/tcc70xx-freertos-debug/obj/can_demo.o
CAN_InitMessage                                   ./../../../build/tcc70xx/gcc/tcc70xx-freertos-debug/obj/can.o
                                                  ./../../../build/tcc70xx/gcc/tcc70xx-freertos-debug/obj/can_demo.o
CAN_MsgGetCountOfRxMessage                        ./../../../build/tcc70xx/gcc/tcc70xx-freertos-debug/obj/can_msg.o
                                                  ./../../../build/tcc70xx/gcc/tcc70xx-freertos-debug/obj/can.o
CAN_MsgGetCountOfTxEvent                          ./../../../build/tcc70xx/gcc/tcc70xx-freertos-debug/obj/can_msg.o
                                                  ./../../../build/tcc70xx/gcc/tcc70xx-freertos-debug/obj/can.o
CAN_MsgGetRxMessage                               ./../../../build/tcc70xx/gcc/tcc70xx-freertos-debug/obj/can_msg.o
                                                  ./../../../build/tcc70xx/gcc/tcc70xx-freertos-debug/obj/can.o
CAN_MsgGetTxEventMessage                          ./../../../build/tcc70xx/gcc/tcc70xx-freertos-debug/obj/can_msg.o
                                                  ./../../../build/tcc70xx/gcc/tcc70xx-freertos-debug/obj/can.o
CAN_MsgInit                                       ./../../../build/tcc70xx/gcc/tcc70xx-freertos-debug/obj/can_msg.o
                                                  ./../../../build/tcc70xx/gcc/tcc70xx-freertos-debug/obj/can_drv.o
                                                  ./../../../build/tcc70xx/gcc/tcc70xx-freertos-debug/obj/can.o
CAN_MsgPutRxMessage                               ./../../../build/tcc70xx/gcc/tcc70xx-freertos-debug/obj/can_msg.o
                                                  ./../../../build/tcc70xx/gcc/tcc70xx-freertos-debug/obj/can_drv.o
CAN_MsgRequestTxMessageCancellation               ./../../../build/tcc70xx/gcc/tcc70xx-freertos-debug/obj/can_msg.o
                                                  ./../../../build/tcc70xx/gcc/tcc70xx-freertos-debug/obj/can.o
CAN_MsgSetTxMessage                               ./../../../build/tcc70xx/gcc/tcc70xx-freertos-debug/obj/can_msg.o
                                                  ./../../../build/tcc70xx/gcc/tcc70xx-freertos-debug/obj/can.o
CAN_PortingAllocateNonCacheMemory                 ./../../../build/tcc70xx/gcc/tcc70xx-freertos-debug/obj/can_porting.o
                                                  ./../../../build/tcc70xx/gcc/tcc70xx-freertos-debug/obj/can_drv.o
CAN_PortingDeallocateNonCacheMemory               ./../../../build/tcc70xx/gcc/tcc70xx-freertos-debug/obj/can_porting.o
                                                  ./../../../build/tcc70xx/gcc/tcc70xx-freertos-debug/obj/can_drv.o
CAN_PortingDelay                                  ./../../../build/tcc70xx/gcc/tcc70xx-freertos-debug/obj/can_porting.o
                                                  ./../../../build/tcc70xx/gcc/tcc70xx-freertos-debug/obj/can_drv.o
                                                  ./../../../build/tcc70xx/gcc/tcc70xx-freertos-debug/obj/can_demo.o
CAN_PortingDisableControllerInterrupts            ./../../../build/tcc70xx/gcc/tcc70xx-freertos-debug/obj/can_porting.o
                                                  ./../../../build/tcc70xx/gcc/tcc70xx-freertos-debug/obj/can_drv.o
                                                  ./../../../build/tcc70xx/gcc/tcc70xx-freertos-debug/obj/can.o
CAN_PortingEnableControllerInterrupts             ./../../../build/tcc70xx/gcc/tcc70xx-freertos-debug/obj/can_porting.o
                                                  ./../../../build/tcc70xx/gcc/tcc70xx-freertos-debug/obj/can_drv.o
                                                  ./../../../build/tcc70xx/gcc/tcc70xx-freertos-debug/obj/can.o
CAN_PortingGetBitRateSwitchEnable                 ./../../../build/tcc70xx/gcc/tcc70xx-freertos-debug/obj/can_porting.o
                                                  ./../../../build/tcc70xx/gcc/tcc70xx-freertos-debug/obj/can_drv.o
CAN_PortingGetConfigBaseAddr                      ./../../../build/tcc70xx/gcc/tcc70xx-freertos-debug/obj/can_porting.o
CAN_PortingGetConfigEXTS0Addr                     ./../../../build/tcc70xx/gcc/tcc70xx-freertos-debug/obj/can_porting.o
                                                  ./../../../build/tcc70xx/gcc/tcc70xx-freertos-debug/obj/can_drv.o
CAN_PortingGetConfigEXTS1Addr                     ./../../../build/tcc70xx/gcc/tcc70xx-freertos-debug/obj/can_porting.o
                                                  ./../../../build/tcc70xx/gcc/tcc70xx-freertos-debug/obj/can_drv.o
CAN_PortingGetConfigWriteLockAddr                 ./../../../build/tcc70xx/gcc/tcc70xx-freertos-debug/obj/can_porting.o
CAN_PortingGetConfigWritePasswordAddr             ./../../../build/tcc70xx/gcc/tcc70xx-freertos-debug/obj/can_porting.o
CAN_PortingGetControllerRegister                  ./../../../build/tcc70xx/gcc/tcc70xx-freertos-debug/obj/can_porting.o
                                                  ./../../../build/tcc70xx/gcc/tcc70xx-freertos-debug/obj/can_drv.o
CAN_PortingGetExtendedIDFilterEnable              ./../../../build/tcc70xx/gcc/tcc70xx-freertos-debug/obj/can_porting.o
                                                  ./../../../build/tcc70xx/gcc/tcc70xx-freertos-debug/obj/can_drv.o
CAN_PortingGetExtendedIDRemoteRejectEnable        ./../../../build/tcc70xx/gcc/tcc70xx-freertos-debug/obj/can_porting.o
                                                  ./../../../build/tcc70xx/gcc/tcc70xx-freertos-debug/obj/can_drv.o
CAN_PortingGetFDEnable                            ./../../../build/tcc70xx/gcc/tcc70xx-freertos-debug/obj/can_porting.o
                                                  ./../../../build/tcc70xx/gcc/tcc70xx-freertos-debug/obj/can_drv.o
CAN_PortingGetMessageRamBaseAddr                  ./../../../build/tcc70xx/gcc/tcc70xx-freertos-debug/obj/can_porting.o
                                                  ./../../../build/tcc70xx/gcc/tcc70xx-freertos-debug/obj/can_drv.o
CAN_PortingGetSizeofExtendedIDFilterList          ./../../../build/tcc70xx/gcc/tcc70xx-freertos-debug/obj/can_porting.o
                                                  ./../../../build/tcc70xx/gcc/tcc70xx-freertos-debug/obj/can_drv.o
CAN_PortingGetSizeofRxBuffer                      ./../../../build/tcc70xx/gcc/tcc70xx-freertos-debug/obj/can_porting.o
                                                  ./../../../build/tcc70xx/gcc/tcc70xx-freertos-debug/obj/can_drv.o
CAN_PortingGetSizeofRxFIFO0                       ./../../../build/tcc70xx/gcc/tcc70xx-freertos-debug/obj/can_porting.o
                                                  ./../../../build/tcc70xx/gcc/tcc70xx-freertos-debug/obj/can_drv.o
CAN_PortingGetSizeofRxFIFO1                       ./../../../build/tcc70xx/gcc/tcc70xx-freertos-debug/obj/can_porting.o
                                                  ./../../../build/tcc70xx/gcc/tcc70xx-freertos-debug/obj/can_drv.o
CAN_PortingGetSizeofStandardIDFilterList          ./../../../build/tcc70xx/gcc/tcc70xx-freertos-debug/obj/can_porting.o
                                                  ./../../../build/tcc70xx/gcc/tcc70xx-freertos-debug/obj/can_drv.o
CAN_PortingGetSizeofTxBuffer                      ./../../../build/tcc70xx/gcc/tcc70xx-freertos-debug/obj/can_porting.o
                                                  ./../../../build/tcc70xx/gcc/tcc70xx-freertos-debug/obj/can_drv.o
CAN_PortingGetSizeofTxEventBuffer                 ./../../../build/tcc70xx/gcc/tcc70xx-freertos-debug/obj/can_porting.o
                                                  ./../../../build/tcc70xx/gcc/tcc70xx-freertos-debug/obj/can_drv.o
CAN_PortingGetStandardIDFilterEnable              ./../../../build/tcc70xx/gcc/tcc70xx-freertos-debug/obj/can_porting.o
                                                  ./../../../build/tcc70xx/gcc/tcc70xx-freertos-debug/obj/can_drv.o
CAN_PortingGetStandardIDRemoteRejectEnable        ./../../../build/tcc70xx/gcc/tcc70xx-freertos-debug/obj/can_porting.o
                                                  ./../../../build/tcc70xx/gcc/tcc70xx-freertos-debug/obj/can_drv.o
CAN_PortingGetTimeOutEnable                       ./../../../build/tcc70xx/gcc/tcc70xx-freertos-debug/obj/can_porting.o
                                                  ./../../../build/tcc70xx/gcc/tcc70xx-freertos-debug/obj/can_drv.o
CAN_PortingGetTimeStampEnable                     ./../../../build/tcc70xx/gcc/tcc70xx-freertos-debug/obj/can_porting.o
                                                  ./../../../build/tcc70xx/gcc/tcc70xx-freertos-debug/obj/can_drv.o
CAN_PortingGetTxEventFIFOEnable                   ./../../../build/tcc70xx/gcc/tcc70xx-freertos-debug/obj/can_porting.o
                                                  ./../../../build/tcc70xx/gcc/tcc70xx-freertos-debug/obj/can_drv.o
CAN_PortingGetWatchDogEnable                      ./../../../build/tcc70xx/gcc/tcc70xx-freertos-debug/obj/can_porting.o
                                                  ./../../../build/tcc70xx/gcc/tcc70xx-freertos-debug/obj/can_drv.o
CAN_PortingInitHW                                 ./../../../build/tcc70xx/gcc/tcc70xx-freertos-debug/obj/can_porting.o
                                                  ./../../../build/tcc70xx/gcc/tcc70xx-freertos-debug/obj/can_drv.o
CAN_PortingResetDriver                            ./../../../build/tcc70xx/gcc/tcc70xx-freertos-debug/obj/can_porting.o
                                                  ./../../../build/tcc70xx/gcc/tcc70xx-freertos-debug/obj/can_drv.o
                                                  ./../../../build/tcc70xx/gcc/tcc70xx-freertos-debug/obj/can.o
CAN_PortingSetControllerClock                     ./../../../build/tcc70xx/gcc/tcc70xx-freertos-debug/obj/can_porting.o
                                                  ./../../../build/tcc70xx/gcc/tcc70xx-freertos-debug/obj/can_drv.o
CAN_PortingSetInterruptHandler                    ./../../../build/tcc70xx/gcc/tcc70xx-freertos-debug/obj/can_porting.o
                                                  ./../../../build/tcc70xx/gcc/tcc70xx-freertos-debug/obj/can_drv.o
CAN_RegisterCallbackFunctionError                 ./../../../build/tcc70xx/gcc/tcc70xx-freertos-debug/obj/can.o
                                                  ./../../../build/tcc70xx/gcc/tcc70xx-freertos-debug/obj/can_demo.o
CAN_RegisterCallbackFunctionRx                    ./../../../build/tcc70xx/gcc/tcc70xx-freertos-debug/obj/can.o
                                                  ./../../../build/tcc70xx/gcc/tcc70xx-freertos-debug/obj/can_demo.o
CAN_RegisterCallbackFunctionTx                    ./../../../build/tcc70xx/gcc/tcc70xx-freertos-debug/obj/can.o
                                                  ./../../../build/tcc70xx/gcc/tcc70xx-freertos-debug/obj/can_demo.o
CAN_RequestTxMessageCancellation                  ./../../../build/tcc70xx/gcc/tcc70xx-freertos-debug/obj/can.o
CAN_SendMessage                                   ./../../../build/tcc70xx/gcc/tcc70xx-freertos-debug/obj/can.o
                                                  ./../../../build/tcc70xx/gcc/tcc70xx-freertos-debug/obj/can_demo.o
CAN_SetControllerMode                             ./../../../build/tcc70xx/gcc/tcc70xx-freertos-debug/obj/can.o
CLOCK_DisablePeri                                 ./../../../build/tcc70xx/gcc/tcc70xx-freertos-debug/obj/clock_dev.o
                                                  ./../../../build/tcc70xx/gcc/tcc70xx-freertos-debug/obj/pdm.o
                                                  ./../../../build/tcc70xx/gcc/tcc70xx-freertos-debug/obj/ictc.o
                                                  ./../../../build/tcc70xx/gcc/tcc70xx-freertos-debug/obj/i2c.o
                                                  ./../../../build/tcc70xx/gcc/tcc70xx-freertos-debug/obj/adc.o
CLOCK_EnableIobus                                 ./../../../build/tcc70xx/gcc/tcc70xx-freertos-debug/obj/clock_dev.o
                                                  ./../../../build/tcc70xx/gcc/tcc70xx-freertos-debug/obj/gdma.o
                                                  ./../../../build/tcc70xx/gcc/tcc70xx-freertos-debug/obj/eth.o
CLOCK_EnablePeri                                  ./../../../build/tcc70xx/gcc/tcc70xx-freertos-debug/obj/clock_dev.o
                                                  ./../../../build/tcc70xx/gcc/tcc70xx-freertos-debug/obj/uart.o
                                                  ./../../../build/tcc70xx/gcc/tcc70xx-freertos-debug/obj/pdm.o
                                                  ./../../../build/tcc70xx/gcc/tcc70xx-freertos-debug/obj/ictc.o
                                                  ./../../../build/tcc70xx/gcc/tcc70xx-freertos-debug/obj/i2s.o
                                                  ./../../../build/tcc70xx/gcc/tcc70xx-freertos-debug/obj/i2c.o
                                                  ./../../../build/tcc70xx/gcc/tcc70xx-freertos-debug/obj/gpsb.o
                                                  ./../../../build/tcc70xx/gcc/tcc70xx-freertos-debug/obj/eth.o
                                                  ./../../../build/tcc70xx/gcc/tcc70xx-freertos-debug/obj/can_porting.o
                                                  ./../../../build/tcc70xx/gcc/tcc70xx-freertos-debug/obj/adc.o
CLOCK_GetClkCtrlRate                              ./../../../build/tcc70xx/gcc/tcc70xx-freertos-debug/obj/clock_dev.o
CLOCK_GetPeriRate                                 ./../../../build/tcc70xx/gcc/tcc70xx-freertos-debug/obj/clock_dev.o
                                                  ./../../../build/tcc70xx/gcc/tcc70xx-freertos-debug/obj/uart.o
                                                  ./../../../build/tcc70xx/gcc/tcc70xx-freertos-debug/obj/pdm.o
                                                  ./../../../build/tcc70xx/gcc/tcc70xx-freertos-debug/obj/ictc.o
                                                  ./../../../build/tcc70xx/gcc/tcc70xx-freertos-debug/obj/i2c.o
CLOCK_GetPllRate                                  ./../../../build/tcc70xx/gcc/tcc70xx-freertos-debug/obj/clock_dev.o
CLOCK_Init                                        ./../../../build/tcc70xx/gcc/tcc70xx-freertos-debug/obj/clock_dev.o
                                                  ./../../../build/tcc70xx/gcc/tcc70xx-freertos-debug/obj/bsp.o
CLOCK_IsIobusPwdn                                 ./../../../build/tcc70xx/gcc/tcc70xx-freertos-debug/obj/clock_dev.o
CLOCK_IsPeriEnabled                               ./../../../build/tcc70xx/gcc/tcc70xx-freertos-debug/obj/clock_dev.o
CLOCK_SetClkCtrlRate                              ./../../../build/tcc70xx/gcc/tcc70xx-freertos-debug/obj/clock_dev.o
CLOCK_SetIobusPwdn                                ./../../../build/tcc70xx/gcc/tcc70xx-freertos-debug/obj/clock_dev.o
                                                  ./../../../build/tcc70xx/gcc/tcc70xx-freertos-debug/obj/uart.o
                                                  ./../../../build/tcc70xx/gcc/tcc70xx-freertos-debug/obj/i2c.o
                                                  ./../../../build/tcc70xx/gcc/tcc70xx-freertos-debug/obj/gpsb.o
CLOCK_SetPeriRate                                 ./../../../build/tcc70xx/gcc/tcc70xx-freertos-debug/obj/clock_dev.o
                                                  ./../../../build/tcc70xx/gcc/tcc70xx-freertos-debug/obj/uart.o
                                                  ./../../../build/tcc70xx/gcc/tcc70xx-freertos-debug/obj/pdm.o
                                                  ./../../../build/tcc70xx/gcc/tcc70xx-freertos-debug/obj/ictc.o
                                                  ./../../../build/tcc70xx/gcc/tcc70xx-freertos-debug/obj/i2s.o
                                                  ./../../../build/tcc70xx/gcc/tcc70xx-freertos-debug/obj/i2c.o
                                                  ./../../../build/tcc70xx/gcc/tcc70xx-freertos-debug/obj/gpsb.o
                                                  ./../../../build/tcc70xx/gcc/tcc70xx-freertos-debug/obj/eth.o
                                                  ./../../../build/tcc70xx/gcc/tcc70xx-freertos-debug/obj/can_porting.o
                                                  ./../../../build/tcc70xx/gcc/tcc70xx-freertos-debug/obj/adc.o
CLOCK_SetPllDiv                                   ./../../../build/tcc70xx/gcc/tcc70xx-freertos-debug/obj/clock_dev.o
CLOCK_SetPllRate                                  ./../../../build/tcc70xx/gcc/tcc70xx-freertos-debug/obj/clock_dev.o
CLOCK_SetSwReset                                  ./../../../build/tcc70xx/gcc/tcc70xx-freertos-debug/obj/clock_dev.o
                                                  ./../../../build/tcc70xx/gcc/tcc70xx-freertos-debug/obj/uart.o
                                                  ./../../../build/tcc70xx/gcc/tcc70xx-freertos-debug/obj/i2c.o
                                                  ./../../../build/tcc70xx/gcc/tcc70xx-freertos-debug/obj/gpsb.o
                                                  ./../../../build/tcc70xx/gcc/tcc70xx-freertos-debug/obj/gdma.o
                                                  ./../../../build/tcc70xx/gcc/tcc70xx-freertos-debug/obj/eth.o
CPU_DSB                                           ./../../../build/tcc70xx/gcc/tcc70xx-freertos-debug/obj/freertos.o
                                                  ./../../../build/tcc70xx/gcc/tcc70xx-freertos-debug/obj/sal_freertos_impl.o
CPU_SR_Restore                                    ./../../../build/tcc70xx/gcc/tcc70xx-freertos-debug/obj/freertos.o
                                                  ./../../../build/tcc70xx/gcc/tcc70xx-freertos-debug/obj/sal_freertos_impl.o
CPU_SR_Save                                       ./../../../build/tcc70xx/gcc/tcc70xx-freertos-debug/obj/freertos.o
                                                  ./../../../build/tcc70xx/gcc/tcc70xx-freertos-debug/obj/sal_freertos_impl.o
CPU_WaitForEvent                                  ./../../../build/tcc70xx/gcc/tcc70xx-freertos-debug/obj/freertos.o
                                                  ./../../../build/tcc70xx/gcc/tcc70xx-freertos-debug/obj/sal_freertos_impl.o
Calculate_CacheTime                               ./../../../build/tcc70xx/gcc/tcc70xx-freertos-debug/obj/cpu_test.o
Calculate_FPU                                     ./../../../build/tcc70xx/gcc/tcc70xx-freertos-debug/obj/cpu_test.o
ControlBreadBoardSensors                          ./../../../build/tcc70xx/gcc/tcc70xx-freertos-debug/obj/can_vcp_ctrl.o
                                                  ./../../../build/tcc70xx/gcc/tcc70xx-freertos-debug/obj/can_demo.o
CreateConsoleTask                                 ./../../../build/tcc70xx/gcc/tcc70xx-freertos-debug/obj/console.o
                                                  ./../../../build/tcc70xx/gcc/tcc70xx-freertos-debug/obj/main.o
CreateFWUDTask                                    ./../../../build/tcc70xx/gcc/tcc70xx-freertos-debug/obj/fwupdate.o
                                                  ./../../../build/tcc70xx/gcc/tcc70xx-freertos-debug/obj/main.o
DATA_FLASH_ADDR                                   ./../../../build/tcc70xx/gcc/tcc70xx-freertos-debug/obj/audio_test.o
                                                  ./../../../build/tcc70xx/gcc/tcc70xx-freertos-debug/obj/spu_test.o
DBG_Printfi                                       ./../../../build/tcc70xx/gcc/tcc70xx-freertos-debug/obj/debug.o
DBG_Putc                                          ./../../../build/tcc70xx/gcc/tcc70xx-freertos-debug/obj/debug.o
DBG_SerialPrintf                                  ./../../../build/tcc70xx/gcc/tcc70xx-freertos-debug/obj/debug.o
                                                  ./../../../build/tcc70xx/gcc/tcc70xx-freertos-debug/obj/sal_freertos_impl.o
                                                  ./../../../build/tcc70xx/gcc/tcc70xx-freertos-debug/obj/NetworkInterface.o
                                                  ./../../../build/tcc70xx/gcc/tcc70xx-freertos-debug/obj/wdt_pmu.o
                                                  ./../../../build/tcc70xx/gcc/tcc70xx-freertos-debug/obj/wdt.o
                                                  ./../../../build/tcc70xx/gcc/tcc70xx-freertos-debug/obj/uart.o
                                                  ./../../../build/tcc70xx/gcc/tcc70xx-freertos-debug/obj/timer.o
                                                  ./../../../build/tcc70xx/gcc/tcc70xx-freertos-debug/obj/ssm.o
                                                  ./../../../build/tcc70xx/gcc/tcc70xx-freertos-debug/obj/spu.o
                                                  ./../../../build/tcc70xx/gcc/tcc70xx-freertos-debug/obj/snor_mio.o
                                                  ./../../../build/tcc70xx/gcc/tcc70xx-freertos-debug/obj/rtc_dev.o
                                                  ./../../../build/tcc70xx/gcc/tcc70xx-freertos-debug/obj/pmu.o
                                                  ./../../../build/tcc70xx/gcc/tcc70xx-freertos-debug/obj/pmio_dev_extn_pw_ctl.o
                                                  ./../../../build/tcc70xx/gcc/tcc70xx-freertos-debug/obj/pmio_dev.o
                                                  ./../../../build/tcc70xx/gcc/tcc70xx-freertos-debug/obj/pdm.o
                                                  ./../../../build/tcc70xx/gcc/tcc70xx-freertos-debug/obj/ictc.o
                                                  ./../../../build/tcc70xx/gcc/tcc70xx-freertos-debug/obj/i2s.o
                                                  ./../../../build/tcc70xx/gcc/tcc70xx-freertos-debug/obj/i2c.o
                                                  ./../../../build/tcc70xx/gcc/tcc70xx-freertos-debug/obj/gpsb.o
                                                  ./../../../build/tcc70xx/gcc/tcc70xx-freertos-debug/obj/gpio.o
                                                  ./../../../build/tcc70xx/gcc/tcc70xx-freertos-debug/obj/fmu.o
                                                  ./../../../build/tcc70xx/gcc/tcc70xx-freertos-debug/obj/eth_mii.o
                                                  ./../../../build/tcc70xx/gcc/tcc70xx-freertos-debug/obj/eth.o
                                                  ./../../../build/tcc70xx/gcc/tcc70xx-freertos-debug/obj/eflash.o
                                                  ./../../../build/tcc70xx/gcc/tcc70xx-freertos-debug/obj/dse.o
                                                  ./../../../build/tcc70xx/gcc/tcc70xx-freertos-debug/obj/bsp.o
                                                  ./../../../build/tcc70xx/gcc/tcc70xx-freertos-debug/obj/can_drv.o
                                                  ./../../../build/tcc70xx/gcc/tcc70xx-freertos-debug/obj/can.o
                                                  ./../../../build/tcc70xx/gcc/tcc70xx-freertos-debug/obj/adc.o
                                                  ./../../../build/tcc70xx/gcc/tcc70xx-freertos-debug/obj/lin.o
                                                  ./../../../build/tcc70xx/gcc/tcc70xx-freertos-debug/obj/hsm_manager.o
                                                  ./../../../build/tcc70xx/gcc/tcc70xx-freertos-debug/obj/spi_eccp.o
                                                  ./../../../build/tcc70xx/gcc/tcc70xx-freertos-debug/obj/power_com.o
                                                  ./../../../build/tcc70xx/gcc/tcc70xx-freertos-debug/obj/power_app.o
                                                  ./../../../build/tcc70xx/gcc/tcc70xx-freertos-debug/obj/spu_test.o
                                                  ./../../../build/tcc70xx/gcc/tcc70xx-freertos-debug/obj/writelock_test.o
                                                  ./../../../build/tcc70xx/gcc/tcc70xx-freertos-debug/obj/wdt_test.o
                                                  ./../../../build/tcc70xx/gcc/tcc70xx-freertos-debug/obj/uart_test.o
                                                  ./../../../build/tcc70xx/gcc/tcc70xx-freertos-debug/obj/timer_test.o
                                                  ./../../../build/tcc70xx/gcc/tcc70xx-freertos-debug/obj/echo_test.o
                                                  ./../../../build/tcc70xx/gcc/tcc70xx-freertos-debug/obj/sfmc_test.o
                                                  ./../../../build/tcc70xx/gcc/tcc70xx-freertos-debug/obj/rtc_test.o
                                                  ./../../../build/tcc70xx/gcc/tcc70xx-freertos-debug/obj/pmu_test.o
                                                  ./../../../build/tcc70xx/gcc/tcc70xx-freertos-debug/obj/pdm_test.o
                                                  ./../../../build/tcc70xx/gcc/tcc70xx-freertos-debug/obj/lin_test.o
                                                  ./../../../build/tcc70xx/gcc/tcc70xx-freertos-debug/obj/ictc_test.o
                                                  ./../../../build/tcc70xx/gcc/tcc70xx-freertos-debug/obj/i2c_test.o
                                                  ./../../../build/tcc70xx/gcc/tcc70xx-freertos-debug/obj/hsm_test.o
                                                  ./../../../build/tcc70xx/gcc/tcc70xx-freertos-debug/obj/gpsb_test.o
                                                  ./../../../build/tcc70xx/gcc/tcc70xx-freertos-debug/obj/gpio_test.o
                                                  ./../../../build/tcc70xx/gcc/tcc70xx-freertos-debug/obj/gic_test.o
                                                  ./../../../build/tcc70xx/gcc/tcc70xx-freertos-debug/obj/gdma_test.o
                                                  ./../../../build/tcc70xx/gcc/tcc70xx-freertos-debug/obj/fmu_test.o
                                                  ./../../../build/tcc70xx/gcc/tcc70xx-freertos-debug/obj/eflash_test.o
                                                  ./../../../build/tcc70xx/gcc/tcc70xx-freertos-debug/obj/dse_test.o
                                                  ./../../../build/tcc70xx/gcc/tcc70xx-freertos-debug/obj/cpu_test.o
                                                  ./../../../build/tcc70xx/gcc/tcc70xx-freertos-debug/obj/wm8904.o
                                                  ./../../../build/tcc70xx/gcc/tcc70xx-freertos-debug/obj/audio_chip_veri.o
                                                  ./../../../build/tcc70xx/gcc/tcc70xx-freertos-debug/obj/audio_test.o
                                                  ./../../../build/tcc70xx/gcc/tcc70xx-freertos-debug/obj/fwupdate.o
                                                  ./../../../build/tcc70xx/gcc/tcc70xx-freertos-debug/obj/console.o
                                                  ./../../../build/tcc70xx/gcc/tcc70xx-freertos-debug/obj/can_vcp_ctrl.o
                                                  ./../../../build/tcc70xx/gcc/tcc70xx-freertos-debug/obj/can_demo.o
                                                  ./../../../build/tcc70xx/gcc/tcc70xx-freertos-debug/obj/main.o
DR_Irq                                            ./../../../build/tcc70xx/gcc/tcc70xx-freertos-debug/obj/audio_chip_veri.o
DSE_Deinit                                        ./../../../build/tcc70xx/gcc/tcc70xx-freertos-debug/obj/dse.o
                                                  ./../../../build/tcc70xx/gcc/tcc70xx-freertos-debug/obj/dse_test.o
DSE_GetGrpSts                                     ./../../../build/tcc70xx/gcc/tcc70xx-freertos-debug/obj/dse.o
                                                  ./../../../build/tcc70xx/gcc/tcc70xx-freertos-debug/obj/dse_test.o
DSE_Init                                          ./../../../build/tcc70xx/gcc/tcc70xx-freertos-debug/obj/dse.o
                                                  ./../../../build/tcc70xx/gcc/tcc70xx-freertos-debug/obj/bsp.o
                                                  ./../../../build/tcc70xx/gcc/tcc70xx-freertos-debug/obj/dse_test.o
DSE_Test_R5AccessFault                            ./../../../build/tcc70xx/gcc/tcc70xx-freertos-debug/obj/dse_test.o
                                                  ./../../../build/tcc70xx/gcc/tcc70xx-freertos-debug/obj/console.o
DSE_Test_SoftFaultCheck                           ./../../../build/tcc70xx/gcc/tcc70xx-freertos-debug/obj/dse_test.o
                                                  ./../../../build/tcc70xx/gcc/tcc70xx-freertos-debug/obj/console.o
DSE_WriteLock                                     ./../../../build/tcc70xx/gcc/tcc70xx-freertos-debug/obj/dse.o
                                                  ./../../../build/tcc70xx/gcc/tcc70xx-freertos-debug/obj/dse_test.o
DataPhaseTimingPar                                ./../../../build/tcc70xx/gcc/tcc70xx-freertos-debug/obj/can_par.o
                                                  ./../../../build/tcc70xx/gcc/tcc70xx-freertos-debug/obj/can_drv.o
Disble_Cache                                      ./../../../build/tcc70xx/gcc/tcc70xx-freertos-debug/obj/cpu_test.o
ECCP_Dump                                         ./../../../build/tcc70xx/gcc/tcc70xx-freertos-debug/obj/spi_eccp.o
ECCP_InitSPIManager                               ./../../../build/tcc70xx/gcc/tcc70xx-freertos-debug/obj/spi_eccp.o
                                                  ./../../../build/tcc70xx/gcc/tcc70xx-freertos-debug/obj/main.o
ECCP_Open                                         ./../../../build/tcc70xx/gcc/tcc70xx-freertos-debug/obj/spi_eccp.o
                                                  ./../../../build/tcc70xx/gcc/tcc70xx-freertos-debug/obj/power_com.o
ECCP_Recv                                         ./../../../build/tcc70xx/gcc/tcc70xx-freertos-debug/obj/spi_eccp.o
                                                  ./../../../build/tcc70xx/gcc/tcc70xx-freertos-debug/obj/power_com.o
ECCP_Send                                         ./../../../build/tcc70xx/gcc/tcc70xx-freertos-debug/obj/spi_eccp.o
                                                  ./../../../build/tcc70xx/gcc/tcc70xx-freertos-debug/obj/power_com.o
EFLASHTest_DflashAccessControl                    ./../../../build/tcc70xx/gcc/tcc70xx-freertos-debug/obj/eflash_test.o
                                                  ./../../../build/tcc70xx/gcc/tcc70xx-freertos-debug/obj/console.o
EFLASHTest_DflashEcc                              ./../../../build/tcc70xx/gcc/tcc70xx-freertos-debug/obj/eflash_test.o
                                                  ./../../../build/tcc70xx/gcc/tcc70xx-freertos-debug/obj/console.o
EFLASHTest_ECC                                    ./../../../build/tcc70xx/gcc/tcc70xx-freertos-debug/obj/eflash_test.o
                                                  ./../../../build/tcc70xx/gcc/tcc70xx-freertos-debug/obj/console.o
EFLASHTest_Int_DFLASHTest                         ./../../../build/tcc70xx/gcc/tcc70xx-freertos-debug/obj/eflash_test.o
                                                  ./../../../build/tcc70xx/gcc/tcc70xx-freertos-debug/obj/console.o
EFLASHTest_Int_Test                               ./../../../build/tcc70xx/gcc/tcc70xx-freertos-debug/obj/eflash_test.o
                                                  ./../../../build/tcc70xx/gcc/tcc70xx-freertos-debug/obj/console.o
EFLASHTest_PflashAccessControl                    ./../../../build/tcc70xx/gcc/tcc70xx-freertos-debug/obj/eflash_test.o
                                                  ./../../../build/tcc70xx/gcc/tcc70xx-freertos-debug/obj/console.o
EFLASHTest_RESET                                  ./../../../build/tcc70xx/gcc/tcc70xx-freertos-debug/obj/eflash_test.o
                                                  ./../../../build/tcc70xx/gcc/tcc70xx-freertos-debug/obj/console.o
EFLASHTest_flashEraseWrite                        ./../../../build/tcc70xx/gcc/tcc70xx-freertos-debug/obj/eflash_test.o
                                                  ./../../../build/tcc70xx/gcc/tcc70xx-freertos-debug/obj/console.o
EFLASHTest_snorEraseWrite                         ./../../../build/tcc70xx/gcc/tcc70xx-freertos-debug/obj/eflash_test.o
                                                  ./../../../build/tcc70xx/gcc/tcc70xx-freertos-debug/obj/console.o
EFLASH_DFLASH_WriteByte                           ./../../../build/tcc70xx/gcc/tcc70xx-freertos-debug/obj/eflash.o
EFLASH_Erase                                      ./../../../build/tcc70xx/gcc/tcc70xx-freertos-debug/obj/eflash.o
                                                  ./../../../build/tcc70xx/gcc/tcc70xx-freertos-debug/obj/eflash_test.o
EFLASH_FWDN_LowFormat                             ./../../../build/tcc70xx/gcc/tcc70xx-freertos-debug/obj/eflash.o
                                                  ./../../../build/tcc70xx/gcc/tcc70xx-freertos-debug/obj/fwupdate.o
EFLASH_FWDN_Read                                  ./../../../build/tcc70xx/gcc/tcc70xx-freertos-debug/obj/eflash.o
                                                  ./../../../build/tcc70xx/gcc/tcc70xx-freertos-debug/obj/fwupdate.o
EFLASH_FWDN_Write                                 ./../../../build/tcc70xx/gcc/tcc70xx-freertos-debug/obj/eflash.o
                                                  ./../../../build/tcc70xx/gcc/tcc70xx-freertos-debug/obj/fwupdate.o
EFLASH_Init                                       ./../../../build/tcc70xx/gcc/tcc70xx-freertos-debug/obj/eflash.o
                                                  ./../../../build/tcc70xx/gcc/tcc70xx-freertos-debug/obj/fwupdate.o
EFLASH_WriteByte                                  ./../../../build/tcc70xx/gcc/tcc70xx-freertos-debug/obj/eflash.o
                                                  ./../../../build/tcc70xx/gcc/tcc70xx-freertos-debug/obj/eflash_test.o
ETH_CornerSample_Test                             ./../../../build/tcc70xx/gcc/tcc70xx-freertos-debug/obj/eth.o
                                                  ./../../../build/tcc70xx/gcc/tcc70xx-freertos-debug/obj/console.o
ETH_CreateRecvTask                                ./../../../build/tcc70xx/gcc/tcc70xx-freertos-debug/obj/eth.o
                                                  ./../../../build/tcc70xx/gcc/tcc70xx-freertos-debug/obj/eth_test.o
ETH_GetLinkStatus                                 ./../../../build/tcc70xx/gcc/tcc70xx-freertos-debug/obj/eth.o
                                                  ./../../../build/tcc70xx/gcc/tcc70xx-freertos-debug/obj/NetworkInterface.o
ETH_Init                                          ./../../../build/tcc70xx/gcc/tcc70xx-freertos-debug/obj/eth.o
ETH_Prepare                                       ./../../../build/tcc70xx/gcc/tcc70xx-freertos-debug/obj/eth.o
                                                  ./../../../build/tcc70xx/gcc/tcc70xx-freertos-debug/obj/NetworkInterface.o
ETH_PrintPkt                                      ./../../../build/tcc70xx/gcc/tcc70xx-freertos-debug/obj/eth.o
ETH_Recv                                          ./../../../build/tcc70xx/gcc/tcc70xx-freertos-debug/obj/eth.o
                                                  ./../../../build/tcc70xx/gcc/tcc70xx-freertos-debug/obj/NetworkInterface.o
ETH_RegisterTask                                  ./../../../build/tcc70xx/gcc/tcc70xx-freertos-debug/obj/eth.o
                                                  ./../../../build/tcc70xx/gcc/tcc70xx-freertos-debug/obj/NetworkInterface.o
ETH_Rx                                            ./../../../build/tcc70xx/gcc/tcc70xx-freertos-debug/obj/eth.o
                                                  ./../../../build/tcc70xx/gcc/tcc70xx-freertos-debug/obj/NetworkInterface.o
ETH_Send                                          ./../../../build/tcc70xx/gcc/tcc70xx-freertos-debug/obj/eth.o
                                                  ./../../../build/tcc70xx/gcc/tcc70xx-freertos-debug/obj/NetworkInterface.o
                                                  ./../../../build/tcc70xx/gcc/tcc70xx-freertos-debug/obj/eth_test.o
ETH_SetMacAddress                                 ./../../../build/tcc70xx/gcc/tcc70xx-freertos-debug/obj/eth.o
                                                  ./../../../build/tcc70xx/gcc/tcc70xx-freertos-debug/obj/NetworkInterface.o
ETH_SetRecvBuff                                   ./../../../build/tcc70xx/gcc/tcc70xx-freertos-debug/obj/eth.o
                                                  ./../../../build/tcc70xx/gcc/tcc70xx-freertos-debug/obj/NetworkInterface.o
ETH_SetRecvCallback                               ./../../../build/tcc70xx/gcc/tcc70xx-freertos-debug/obj/eth.o
ETH_TestIPInit                                    ./../../../build/tcc70xx/gcc/tcc70xx-freertos-debug/obj/eth_test.o
                                                  ./../../../build/tcc70xx/gcc/tcc70xx-freertos-debug/obj/console.o
ETH_TestInit                                      ./../../../build/tcc70xx/gcc/tcc70xx-freertos-debug/obj/eth_test.o
                                                  ./../../../build/tcc70xx/gcc/tcc70xx-freertos-debug/obj/console.o
ETH_TestIperf                                     ./../../../build/tcc70xx/gcc/tcc70xx-freertos-debug/obj/eth_test.o
                                                  ./../../../build/tcc70xx/gcc/tcc70xx-freertos-debug/obj/console.o
ETH_TestLoopback                                  ./../../../build/tcc70xx/gcc/tcc70xx-freertos-debug/obj/eth_test.o
                                                  ./../../../build/tcc70xx/gcc/tcc70xx-freertos-debug/obj/console.o
ETH_TestSend                                      ./../../../build/tcc70xx/gcc/tcc70xx-freertos-debug/obj/eth_test.o
                                                  ./../../../build/tcc70xx/gcc/tcc70xx-freertos-debug/obj/console.o
ETH_UpdateLink                                    ./../../../build/tcc70xx/gcc/tcc70xx-freertos-debug/obj/eth.o
                                                  ./../../../build/tcc70xx/gcc/tcc70xx-freertos-debug/obj/NetworkInterface.o
Enable_Cache                                      ./../../../build/tcc70xx/gcc/tcc70xx-freertos-debug/obj/cpu_test.o
ExtendedIDFilterPar                               ./../../../build/tcc70xx/gcc/tcc70xx-freertos-debug/obj/can_par.o
                                                  ./../../../build/tcc70xx/gcc/tcc70xx-freertos-debug/obj/can_drv.o
FLASH_ReadLDT                                     ./../../../build/tcc70xx/gcc/tcc70xx-freertos-debug/obj/eflash.o
                                                  ./../../../build/tcc70xx/gcc/tcc70xx-freertos-debug/obj/hsm_manager.o
FMU_Deinit                                        ./../../../build/tcc70xx/gcc/tcc70xx-freertos-debug/obj/fmu.o
                                                  ./../../../build/tcc70xx/gcc/tcc70xx-freertos-debug/obj/gpsb_test.o
FMU_Init                                          ./../../../build/tcc70xx/gcc/tcc70xx-freertos-debug/obj/fmu.o
                                                  ./../../../build/tcc70xx/gcc/tcc70xx-freertos-debug/obj/bsp.o
FMU_IsrClr                                        ./../../../build/tcc70xx/gcc/tcc70xx-freertos-debug/obj/fmu.o
                                                  ./../../../build/tcc70xx/gcc/tcc70xx-freertos-debug/obj/wdt_pmu.o
                                                  ./../../../build/tcc70xx/gcc/tcc70xx-freertos-debug/obj/wdt.o
                                                  ./../../../build/tcc70xx/gcc/tcc70xx-freertos-debug/obj/ssm.o
                                                  ./../../../build/tcc70xx/gcc/tcc70xx-freertos-debug/obj/sfmc_test.o
                                                  ./../../../build/tcc70xx/gcc/tcc70xx-freertos-debug/obj/pmu_test.o
                                                  ./../../../build/tcc70xx/gcc/tcc70xx-freertos-debug/obj/hsm_test.o
                                                  ./../../../build/tcc70xx/gcc/tcc70xx-freertos-debug/obj/gpsb_test.o
                                                  ./../../../build/tcc70xx/gcc/tcc70xx-freertos-debug/obj/gpio_test.o
                                                  ./../../../build/tcc70xx/gcc/tcc70xx-freertos-debug/obj/fmu_test.o
                                                  ./../../../build/tcc70xx/gcc/tcc70xx-freertos-debug/obj/eflash_test.o
                                                  ./../../../build/tcc70xx/gcc/tcc70xx-freertos-debug/obj/dse_test.o
FMU_IsrHandler                                    ./../../../build/tcc70xx/gcc/tcc70xx-freertos-debug/obj/fmu.o
                                                  ./../../../build/tcc70xx/gcc/tcc70xx-freertos-debug/obj/wdt_pmu.o
                                                  ./../../../build/tcc70xx/gcc/tcc70xx-freertos-debug/obj/wdt.o
                                                  ./../../../build/tcc70xx/gcc/tcc70xx-freertos-debug/obj/ssm.o
                                                  ./../../../build/tcc70xx/gcc/tcc70xx-freertos-debug/obj/sfmc_test.o
                                                  ./../../../build/tcc70xx/gcc/tcc70xx-freertos-debug/obj/pmu_test.o
                                                  ./../../../build/tcc70xx/gcc/tcc70xx-freertos-debug/obj/hsm_test.o
                                                  ./../../../build/tcc70xx/gcc/tcc70xx-freertos-debug/obj/gpsb_test.o
                                                  ./../../../build/tcc70xx/gcc/tcc70xx-freertos-debug/obj/gpio_test.o
                                                  ./../../../build/tcc70xx/gcc/tcc70xx-freertos-debug/obj/fmu_test.o
                                                  ./../../../build/tcc70xx/gcc/tcc70xx-freertos-debug/obj/eflash_test.o
                                                  ./../../../build/tcc70xx/gcc/tcc70xx-freertos-debug/obj/dse_test.o
FMU_Set                                           ./../../../build/tcc70xx/gcc/tcc70xx-freertos-debug/obj/fmu.o
                                                  ./../../../build/tcc70xx/gcc/tcc70xx-freertos-debug/obj/wdt_pmu.o
                                                  ./../../../build/tcc70xx/gcc/tcc70xx-freertos-debug/obj/wdt.o
                                                  ./../../../build/tcc70xx/gcc/tcc70xx-freertos-debug/obj/ssm.o
                                                  ./../../../build/tcc70xx/gcc/tcc70xx-freertos-debug/obj/sfmc_test.o
                                                  ./../../../build/tcc70xx/gcc/tcc70xx-freertos-debug/obj/pmu_test.o
                                                  ./../../../build/tcc70xx/gcc/tcc70xx-freertos-debug/obj/hsm_test.o
                                                  ./../../../build/tcc70xx/gcc/tcc70xx-freertos-debug/obj/gpsb_test.o
                                                  ./../../../build/tcc70xx/gcc/tcc70xx-freertos-debug/obj/gpio_test.o
                                                  ./../../../build/tcc70xx/gcc/tcc70xx-freertos-debug/obj/fmu_test.o
                                                  ./../../../build/tcc70xx/gcc/tcc70xx-freertos-debug/obj/eflash_test.o
                                                  ./../../../build/tcc70xx/gcc/tcc70xx-freertos-debug/obj/dse_test.o
FMU_StartFmuTest                                  ./../../../build/tcc70xx/gcc/tcc70xx-freertos-debug/obj/fmu_test.o
                                                  ./../../../build/tcc70xx/gcc/tcc70xx-freertos-debug/obj/console.o
FWUD_Start                                        ./../../../build/tcc70xx/gcc/tcc70xx-freertos-debug/obj/fwupdate.o
                                                  ./../../../build/tcc70xx/gcc/tcc70xx-freertos-debug/obj/console.o
FWUD_Sync                                         ./../../../build/tcc70xx/gcc/tcc70xx-freertos-debug/obj/fwupdate.o
                                                  ./../../../build/tcc70xx/gcc/tcc70xx-freertos-debug/obj/console.o
FWUpdateInfo                                      ./../../../build/tcc70xx/gcc/tcc70xx-freertos-debug/obj/fwupdate.o
FreeRTOS_ARM_DRegCntGet                           ./../../../build/tcc70xx/gcc/tcc70xx-freertos-debug/obj/freertos.o
FreeRTOS_ARM_ExceptDataAbortHndlr                 ./../../../build/tcc70xx/gcc/tcc70xx-freertos-debug/obj/freertos.o
                                                  ./../../../build/tcc70xx/gcc/tcc70xx-freertos-debug/obj/sal.o
FreeRTOS_ARM_ExceptFiqHndlr                       ./../../../build/tcc70xx/gcc/tcc70xx-freertos-debug/obj/freertos.o
                                                  ./../../../build/tcc70xx/gcc/tcc70xx-freertos-debug/obj/sal.o
FreeRTOS_ARM_ExceptIrqHndlr                       ./../../../build/tcc70xx/gcc/tcc70xx-freertos-debug/obj/freertos.o
                                                  ./../../../build/tcc70xx/gcc/tcc70xx-freertos-debug/obj/sal.o
FreeRTOS_ARM_ExceptPrefetchAbortHndlr             ./../../../build/tcc70xx/gcc/tcc70xx-freertos-debug/obj/freertos.o
                                                  ./../../../build/tcc70xx/gcc/tcc70xx-freertos-debug/obj/sal.o
FreeRTOS_ARM_ExceptSwiHndlr                       ./../../../build/tcc70xx/gcc/tcc70xx-freertos-debug/obj/freertos.o
                                                  ./../../../build/tcc70xx/gcc/tcc70xx-freertos-debug/obj/sal.o
FreeRTOS_ARM_ExceptUndefInstrHndlr                ./../../../build/tcc70xx/gcc/tcc70xx-freertos-debug/obj/freertos.o
                                                  ./../../../build/tcc70xx/gcc/tcc70xx-freertos-debug/obj/sal.o
FreeRTOS_ClearARP                                 ./../../../build/tcc70xx/gcc/tcc70xx-freertos-debug/obj/FreeRTOS_ARP.o
                                                  ./../../../build/tcc70xx/gcc/tcc70xx-freertos-debug/obj/FreeRTOS_IP.o
FreeRTOS_CreateSocketSet                          ./../../../build/tcc70xx/gcc/tcc70xx-freertos-debug/obj/FreeRTOS_Sockets.o
                                                  ./../../../build/tcc70xx/gcc/tcc70xx-freertos-debug/obj/iperf_task_v3_0d.o
FreeRTOS_DeleteSocketSet                          ./../../../build/tcc70xx/gcc/tcc70xx-freertos-debug/obj/FreeRTOS_Sockets.o
FreeRTOS_FD_CLR                                   ./../../../build/tcc70xx/gcc/tcc70xx-freertos-debug/obj/FreeRTOS_Sockets.o
                                                  ./../../../build/tcc70xx/gcc/tcc70xx-freertos-debug/obj/iperf_task_v3_0d.o
FreeRTOS_FD_ISSET                                 ./../../../build/tcc70xx/gcc/tcc70xx-freertos-debug/obj/FreeRTOS_Sockets.o
FreeRTOS_FD_SET                                   ./../../../build/tcc70xx/gcc/tcc70xx-freertos-debug/obj/FreeRTOS_Sockets.o
                                                  ./../../../build/tcc70xx/gcc/tcc70xx-freertos-debug/obj/iperf_task_v3_0d.o
FreeRTOS_GetAddressConfiguration                  ./../../../build/tcc70xx/gcc/tcc70xx-freertos-debug/obj/FreeRTOS_IP.o
                                                  ./../../../build/tcc70xx/gcc/tcc70xx-freertos-debug/obj/FreeRTOS_DNS.o
FreeRTOS_GetDNSServerAddress                      ./../../../build/tcc70xx/gcc/tcc70xx-freertos-debug/obj/FreeRTOS_IP.o
FreeRTOS_GetGatewayAddress                        ./../../../build/tcc70xx/gcc/tcc70xx-freertos-debug/obj/FreeRTOS_IP.o
FreeRTOS_GetIPAddress                             ./../../../build/tcc70xx/gcc/tcc70xx-freertos-debug/obj/FreeRTOS_IP.o
FreeRTOS_GetLocalAddress                          ./../../../build/tcc70xx/gcc/tcc70xx-freertos-debug/obj/FreeRTOS_Sockets.o
FreeRTOS_GetMACAddress                            ./../../../build/tcc70xx/gcc/tcc70xx-freertos-debug/obj/FreeRTOS_IP.o
FreeRTOS_GetNetmask                               ./../../../build/tcc70xx/gcc/tcc70xx-freertos-debug/obj/FreeRTOS_IP.o
FreeRTOS_GetRemoteAddress                         ./../../../build/tcc70xx/gcc/tcc70xx-freertos-debug/obj/FreeRTOS_Sockets.o
                                                  ./../../../build/tcc70xx/gcc/tcc70xx-freertos-debug/obj/iperf_task_v3_0d.o
FreeRTOS_GetUDPPayloadBuffer                      ./../../../build/tcc70xx/gcc/tcc70xx-freertos-debug/obj/FreeRTOS_IP.o
                                                  ./../../../build/tcc70xx/gcc/tcc70xx-freertos-debug/obj/FreeRTOS_DNS.o
FreeRTOS_IPInit                                   ./../../../build/tcc70xx/gcc/tcc70xx-freertos-debug/obj/FreeRTOS_IP.o
                                                  ./../../../build/tcc70xx/gcc/tcc70xx-freertos-debug/obj/eth_test.o
                                                  ./../../../build/tcc70xx/gcc/tcc70xx-freertos-debug/obj/echo_test.o
FreeRTOS_IRQ_Handler                              ./../../../build/tcc70xx/gcc/tcc70xx-freertos-debug/obj/portASM.o
                                                  ./../../../build/tcc70xx/gcc/tcc70xx-freertos-debug/obj/freertos.o
FreeRTOS_IsNetworkUp                              ./../../../build/tcc70xx/gcc/tcc70xx-freertos-debug/obj/FreeRTOS_IP.o
FreeRTOS_NetworkDown                              ./../../../build/tcc70xx/gcc/tcc70xx-freertos-debug/obj/FreeRTOS_IP.o
FreeRTOS_NetworkDownFromISR                       ./../../../build/tcc70xx/gcc/tcc70xx-freertos-debug/obj/FreeRTOS_IP.o
FreeRTOS_OutputARPRequest                         ./../../../build/tcc70xx/gcc/tcc70xx-freertos-debug/obj/FreeRTOS_ARP.o
                                                  ./../../../build/tcc70xx/gcc/tcc70xx-freertos-debug/obj/FreeRTOS_TCP_IP.o
FreeRTOS_ReleaseUDPPayloadBuffer                  ./../../../build/tcc70xx/gcc/tcc70xx-freertos-debug/obj/FreeRTOS_IP.o
                                                  ./../../../build/tcc70xx/gcc/tcc70xx-freertos-debug/obj/FreeRTOS_DNS.o
                                                  ./../../../build/tcc70xx/gcc/tcc70xx-freertos-debug/obj/iperf_task_v3_0d.o
FreeRTOS_SWI_Handler                              ./../../../build/tcc70xx/gcc/tcc70xx-freertos-debug/obj/portASM.o
                                                  ./../../../build/tcc70xx/gcc/tcc70xx-freertos-debug/obj/freertos.o
FreeRTOS_SetAddressConfiguration                  ./../../../build/tcc70xx/gcc/tcc70xx-freertos-debug/obj/FreeRTOS_IP.o
FreeRTOS_SetGatewayAddress                        ./../../../build/tcc70xx/gcc/tcc70xx-freertos-debug/obj/FreeRTOS_IP.o
FreeRTOS_SetIPAddress                             ./../../../build/tcc70xx/gcc/tcc70xx-freertos-debug/obj/FreeRTOS_IP.o
FreeRTOS_SetNetmask                               ./../../../build/tcc70xx/gcc/tcc70xx-freertos-debug/obj/FreeRTOS_IP.o
FreeRTOS_Tick_Handler                             ./../../../build/tcc70xx/gcc/tcc70xx-freertos-debug/obj/port.o
                                                  ./../../../build/tcc70xx/gcc/tcc70xx-freertos-debug/obj/sal_freertos_impl.o
FreeRTOS_UpdateMACAddress                         ./../../../build/tcc70xx/gcc/tcc70xx-freertos-debug/obj/FreeRTOS_IP.o
FreeRTOS_accept                                   ./../../../build/tcc70xx/gcc/tcc70xx-freertos-debug/obj/FreeRTOS_Sockets.o
                                                  ./../../../build/tcc70xx/gcc/tcc70xx-freertos-debug/obj/echo_test.o
                                                  ./../../../build/tcc70xx/gcc/tcc70xx-freertos-debug/obj/iperf_task_v3_0d.o
FreeRTOS_bind                                     ./../../../build/tcc70xx/gcc/tcc70xx-freertos-debug/obj/FreeRTOS_Sockets.o
                                                  ./../../../build/tcc70xx/gcc/tcc70xx-freertos-debug/obj/FreeRTOS_DNS.o
                                                  ./../../../build/tcc70xx/gcc/tcc70xx-freertos-debug/obj/echo_test.o
                                                  ./../../../build/tcc70xx/gcc/tcc70xx-freertos-debug/obj/iperf_task_v3_0d.o
FreeRTOS_closesocket                              ./../../../build/tcc70xx/gcc/tcc70xx-freertos-debug/obj/FreeRTOS_Sockets.o
                                                  ./../../../build/tcc70xx/gcc/tcc70xx-freertos-debug/obj/FreeRTOS_TCP_IP.o
                                                  ./../../../build/tcc70xx/gcc/tcc70xx-freertos-debug/obj/FreeRTOS_DNS.o
                                                  ./../../../build/tcc70xx/gcc/tcc70xx-freertos-debug/obj/echo_test.o
                                                  ./../../../build/tcc70xx/gcc/tcc70xx-freertos-debug/obj/iperf_task_v3_0d.o
FreeRTOS_connect                                  ./../../../build/tcc70xx/gcc/tcc70xx-freertos-debug/obj/FreeRTOS_Sockets.o
                                                  ./../../../build/tcc70xx/gcc/tcc70xx-freertos-debug/obj/echo_test.o
FreeRTOS_connstatus                               ./../../../build/tcc70xx/gcc/tcc70xx-freertos-debug/obj/FreeRTOS_Sockets.o
FreeRTOS_dnsclear                                 ./../../../build/tcc70xx/gcc/tcc70xx-freertos-debug/obj/FreeRTOS_DNS.o
FreeRTOS_dnslookup                                ./../../../build/tcc70xx/gcc/tcc70xx-freertos-debug/obj/FreeRTOS_DNS.o
FreeRTOS_get_rx_buf                               ./../../../build/tcc70xx/gcc/tcc70xx-freertos-debug/obj/FreeRTOS_Sockets.o
FreeRTOS_get_tx_head                              ./../../../build/tcc70xx/gcc/tcc70xx-freertos-debug/obj/FreeRTOS_Sockets.o
FreeRTOS_gethostbyname                            ./../../../build/tcc70xx/gcc/tcc70xx-freertos-debug/obj/FreeRTOS_DNS.o
FreeRTOS_inet_addr                                ./../../../build/tcc70xx/gcc/tcc70xx-freertos-debug/obj/FreeRTOS_Sockets.o
                                                  ./../../../build/tcc70xx/gcc/tcc70xx-freertos-debug/obj/FreeRTOS_DNS.o
FreeRTOS_issocketconnected                        ./../../../build/tcc70xx/gcc/tcc70xx-freertos-debug/obj/FreeRTOS_Sockets.o
FreeRTOS_listen                                   ./../../../build/tcc70xx/gcc/tcc70xx-freertos-debug/obj/FreeRTOS_Sockets.o
                                                  ./../../../build/tcc70xx/gcc/tcc70xx-freertos-debug/obj/echo_test.o
                                                  ./../../../build/tcc70xx/gcc/tcc70xx-freertos-debug/obj/iperf_task_v3_0d.o
FreeRTOS_maywrite                                 ./../../../build/tcc70xx/gcc/tcc70xx-freertos-debug/obj/FreeRTOS_Sockets.o
FreeRTOS_mss                                      ./../../../build/tcc70xx/gcc/tcc70xx-freertos-debug/obj/FreeRTOS_Sockets.o
FreeRTOS_netstat                                  ./../../../build/tcc70xx/gcc/tcc70xx-freertos-debug/obj/FreeRTOS_Sockets.o
FreeRTOS_recv                                     ./../../../build/tcc70xx/gcc/tcc70xx-freertos-debug/obj/FreeRTOS_Sockets.o
                                                  ./../../../build/tcc70xx/gcc/tcc70xx-freertos-debug/obj/echo_test.o
                                                  ./../../../build/tcc70xx/gcc/tcc70xx-freertos-debug/obj/iperf_task_v3_0d.o
FreeRTOS_recvfrom                                 ./../../../build/tcc70xx/gcc/tcc70xx-freertos-debug/obj/FreeRTOS_Sockets.o
                                                  ./../../../build/tcc70xx/gcc/tcc70xx-freertos-debug/obj/FreeRTOS_DNS.o
                                                  ./../../../build/tcc70xx/gcc/tcc70xx-freertos-debug/obj/iperf_task_v3_0d.o
FreeRTOS_rx_size                                  ./../../../build/tcc70xx/gcc/tcc70xx-freertos-debug/obj/FreeRTOS_Sockets.o
FreeRTOS_select                                   ./../../../build/tcc70xx/gcc/tcc70xx-freertos-debug/obj/FreeRTOS_Sockets.o
                                                  ./../../../build/tcc70xx/gcc/tcc70xx-freertos-debug/obj/iperf_task_v3_0d.o
FreeRTOS_send                                     ./../../../build/tcc70xx/gcc/tcc70xx-freertos-debug/obj/FreeRTOS_Sockets.o
                                                  ./../../../build/tcc70xx/gcc/tcc70xx-freertos-debug/obj/echo_test.o
                                                  ./../../../build/tcc70xx/gcc/tcc70xx-freertos-debug/obj/iperf_task_v3_0d.o
FreeRTOS_sendto                                   ./../../../build/tcc70xx/gcc/tcc70xx-freertos-debug/obj/FreeRTOS_Sockets.o
                                                  ./../../../build/tcc70xx/gcc/tcc70xx-freertos-debug/obj/FreeRTOS_DNS.o
                                                  ./../../../build/tcc70xx/gcc/tcc70xx-freertos-debug/obj/iperf_task_v3_0d.o
FreeRTOS_setsockopt                               ./../../../build/tcc70xx/gcc/tcc70xx-freertos-debug/obj/FreeRTOS_Sockets.o
                                                  ./../../../build/tcc70xx/gcc/tcc70xx-freertos-debug/obj/FreeRTOS_DNS.o
                                                  ./../../../build/tcc70xx/gcc/tcc70xx-freertos-debug/obj/echo_test.o
                                                  ./../../../build/tcc70xx/gcc/tcc70xx-freertos-debug/obj/iperf_task_v3_0d.o
FreeRTOS_shutdown                                 ./../../../build/tcc70xx/gcc/tcc70xx-freertos-debug/obj/FreeRTOS_Sockets.o
                                                  ./../../../build/tcc70xx/gcc/tcc70xx-freertos-debug/obj/echo_test.o
                                                  ./../../../build/tcc70xx/gcc/tcc70xx-freertos-debug/obj/iperf_task_v3_0d.o
FreeRTOS_socket                                   ./../../../build/tcc70xx/gcc/tcc70xx-freertos-debug/obj/FreeRTOS_Sockets.o
                                                  ./../../../build/tcc70xx/gcc/tcc70xx-freertos-debug/obj/FreeRTOS_TCP_IP.o
                                                  ./../../../build/tcc70xx/gcc/tcc70xx-freertos-debug/obj/FreeRTOS_DNS.o
                                                  ./../../../build/tcc70xx/gcc/tcc70xx-freertos-debug/obj/echo_test.o
                                                  ./../../../build/tcc70xx/gcc/tcc70xx-freertos-debug/obj/iperf_task_v3_0d.o
FreeRTOS_tx_size                                  ./../../../build/tcc70xx/gcc/tcc70xx-freertos-debug/obj/FreeRTOS_Sockets.o
FreeRTOS_tx_space                                 ./../../../build/tcc70xx/gcc/tcc70xx-freertos-debug/obj/FreeRTOS_Sockets.o
                                                  ./../../../build/tcc70xx/gcc/tcc70xx-freertos-debug/obj/iperf_task_v3_0d.o
GDMA_ChannelDisable                               ./../../../build/tcc70xx/gcc/tcc70xx-freertos-debug/obj/gdma.o
                                                  ./../../../build/tcc70xx/gcc/tcc70xx-freertos-debug/obj/uart.o
GDMA_ChannelEnable                                ./../../../build/tcc70xx/gcc/tcc70xx-freertos-debug/obj/gdma.o
                                                  ./../../../build/tcc70xx/gcc/tcc70xx-freertos-debug/obj/uart.o
GDMA_GetTransferSize                              ./../../../build/tcc70xx/gcc/tcc70xx-freertos-debug/obj/gdma.o
                                                  ./../../../build/tcc70xx/gcc/tcc70xx-freertos-debug/obj/uart.o
GDMA_Init                                         ./../../../build/tcc70xx/gcc/tcc70xx-freertos-debug/obj/gdma.o
                                                  ./../../../build/tcc70xx/gcc/tcc70xx-freertos-debug/obj/uart.o
                                                  ./../../../build/tcc70xx/gcc/tcc70xx-freertos-debug/obj/gdma_test.o
GDMA_InterruptDisable                             ./../../../build/tcc70xx/gcc/tcc70xx-freertos-debug/obj/gdma.o
GDMA_InterruptEnable                              ./../../../build/tcc70xx/gcc/tcc70xx-freertos-debug/obj/gdma.o
                                                  ./../../../build/tcc70xx/gcc/tcc70xx-freertos-debug/obj/uart.o
GDMA_Reset                                        ./../../../build/tcc70xx/gcc/tcc70xx-freertos-debug/obj/gdma.o
GDMA_SampleForM2M                                 ./../../../build/tcc70xx/gcc/tcc70xx-freertos-debug/obj/gdma_test.o
                                                  ./../../../build/tcc70xx/gcc/tcc70xx-freertos-debug/obj/console.o
GDMA_SetAddrIncrement                             ./../../../build/tcc70xx/gcc/tcc70xx-freertos-debug/obj/gdma.o
                                                  ./../../../build/tcc70xx/gcc/tcc70xx-freertos-debug/obj/uart.o
GDMA_SetBurstSize                                 ./../../../build/tcc70xx/gcc/tcc70xx-freertos-debug/obj/gdma.o
                                                  ./../../../build/tcc70xx/gcc/tcc70xx-freertos-debug/obj/uart.o
GDMA_SetDestAddr                                  ./../../../build/tcc70xx/gcc/tcc70xx-freertos-debug/obj/gdma.o
                                                  ./../../../build/tcc70xx/gcc/tcc70xx-freertos-debug/obj/uart.o
GDMA_SetFlowControl                               ./../../../build/tcc70xx/gcc/tcc70xx-freertos-debug/obj/gdma.o
                                                  ./../../../build/tcc70xx/gcc/tcc70xx-freertos-debug/obj/uart.o
GDMA_SetPeri                                      ./../../../build/tcc70xx/gcc/tcc70xx-freertos-debug/obj/gdma.o
                                                  ./../../../build/tcc70xx/gcc/tcc70xx-freertos-debug/obj/uart.o
GDMA_SetSrcAddr                                   ./../../../build/tcc70xx/gcc/tcc70xx-freertos-debug/obj/gdma.o
                                                  ./../../../build/tcc70xx/gcc/tcc70xx-freertos-debug/obj/uart.o
GDMA_SetTransferSize                              ./../../../build/tcc70xx/gcc/tcc70xx-freertos-debug/obj/gdma.o
                                                  ./../../../build/tcc70xx/gcc/tcc70xx-freertos-debug/obj/uart.o
GDMA_SetTransferWidth                             ./../../../build/tcc70xx/gcc/tcc70xx-freertos-debug/obj/gdma.o
                                                  ./../../../build/tcc70xx/gcc/tcc70xx-freertos-debug/obj/uart.o
GDMA_SetlliAddr                                   ./../../../build/tcc70xx/gcc/tcc70xx-freertos-debug/obj/gdma.o
GDMA_TransferMem2Mem                              ./../../../build/tcc70xx/gcc/tcc70xx-freertos-debug/obj/gdma.o
                                                  ./../../../build/tcc70xx/gcc/tcc70xx-freertos-debug/obj/gdma_test.o
GDMA_WaitInterrupt                                ./../../../build/tcc70xx/gcc/tcc70xx-freertos-debug/obj/gdma.o
GIC_Init                                          ./../../../build/tcc70xx/gcc/tcc70xx-freertos-debug/obj/gic.o
                                                  ./../../../build/tcc70xx/gcc/tcc70xx-freertos-debug/obj/bsp.o
GIC_IntHandler                                    ./../../../build/tcc70xx/gcc/tcc70xx-freertos-debug/obj/gic.o
GIC_IntHandlerWithParam                           ./../../../build/tcc70xx/gcc/tcc70xx-freertos-debug/obj/gic.o
                                                  ./../../../build/tcc70xx/gcc/tcc70xx-freertos-debug/obj/port.o
GIC_IntPrioSet                                    ./../../../build/tcc70xx/gcc/tcc70xx-freertos-debug/obj/gic.o
GIC_IntSGI                                        ./../../../build/tcc70xx/gcc/tcc70xx-freertos-debug/obj/gic.o
                                                  ./../../../build/tcc70xx/gcc/tcc70xx-freertos-debug/obj/gic_test.o
GIC_IntSrcDis                                     ./../../../build/tcc70xx/gcc/tcc70xx-freertos-debug/obj/gic.o
                                                  ./../../../build/tcc70xx/gcc/tcc70xx-freertos-debug/obj/wdt_pmu.o
                                                  ./../../../build/tcc70xx/gcc/tcc70xx-freertos-debug/obj/wdt.o
                                                  ./../../../build/tcc70xx/gcc/tcc70xx-freertos-debug/obj/uart.o
                                                  ./../../../build/tcc70xx/gcc/tcc70xx-freertos-debug/obj/rtc_dev.o
                                                  ./../../../build/tcc70xx/gcc/tcc70xx-freertos-debug/obj/pmio_dev_extn_pw_ctl.o
                                                  ./../../../build/tcc70xx/gcc/tcc70xx-freertos-debug/obj/pmio_dev.o
                                                  ./../../../build/tcc70xx/gcc/tcc70xx-freertos-debug/obj/i2c.o
                                                  ./../../../build/tcc70xx/gcc/tcc70xx-freertos-debug/obj/gpsb.o
                                                  ./../../../build/tcc70xx/gcc/tcc70xx-freertos-debug/obj/fmu.o
                                                  ./../../../build/tcc70xx/gcc/tcc70xx-freertos-debug/obj/dse.o
                                                  ./../../../build/tcc70xx/gcc/tcc70xx-freertos-debug/obj/can_porting.o
                                                  ./../../../build/tcc70xx/gcc/tcc70xx-freertos-debug/obj/adc.o
                                                  ./../../../build/tcc70xx/gcc/tcc70xx-freertos-debug/obj/timer_test.o
                                                  ./../../../build/tcc70xx/gcc/tcc70xx-freertos-debug/obj/gpio_test.o
                                                  ./../../../build/tcc70xx/gcc/tcc70xx-freertos-debug/obj/gic_test.o
                                                  ./../../../build/tcc70xx/gcc/tcc70xx-freertos-debug/obj/eflash_test.o
                                                  ./../../../build/tcc70xx/gcc/tcc70xx-freertos-debug/obj/fwupdate.o
GIC_IntSrcEn                                      ./../../../build/tcc70xx/gcc/tcc70xx-freertos-debug/obj/gic.o
                                                  ./../../../build/tcc70xx/gcc/tcc70xx-freertos-debug/obj/port.o
                                                  ./../../../build/tcc70xx/gcc/tcc70xx-freertos-debug/obj/wdt_pmu.o
                                                  ./../../../build/tcc70xx/gcc/tcc70xx-freertos-debug/obj/wdt.o
                                                  ./../../../build/tcc70xx/gcc/tcc70xx-freertos-debug/obj/uart.o
                                                  ./../../../build/tcc70xx/gcc/tcc70xx-freertos-debug/obj/spu.o
                                                  ./../../../build/tcc70xx/gcc/tcc70xx-freertos-debug/obj/rtc_dev.o
                                                  ./../../../build/tcc70xx/gcc/tcc70xx-freertos-debug/obj/pmio_dev_extn_pw_ctl.o
                                                  ./../../../build/tcc70xx/gcc/tcc70xx-freertos-debug/obj/pmio_dev.o
                                                  ./../../../build/tcc70xx/gcc/tcc70xx-freertos-debug/obj/ictc.o
                                                  ./../../../build/tcc70xx/gcc/tcc70xx-freertos-debug/obj/i2c.o
                                                  ./../../../build/tcc70xx/gcc/tcc70xx-freertos-debug/obj/gpsb.o
                                                  ./../../../build/tcc70xx/gcc/tcc70xx-freertos-debug/obj/gdma.o
                                                  ./../../../build/tcc70xx/gcc/tcc70xx-freertos-debug/obj/fmu.o
                                                  ./../../../build/tcc70xx/gcc/tcc70xx-freertos-debug/obj/eth.o
                                                  ./../../../build/tcc70xx/gcc/tcc70xx-freertos-debug/obj/dse.o
                                                  ./../../../build/tcc70xx/gcc/tcc70xx-freertos-debug/obj/can_porting.o
                                                  ./../../../build/tcc70xx/gcc/tcc70xx-freertos-debug/obj/adc.o
                                                  ./../../../build/tcc70xx/gcc/tcc70xx-freertos-debug/obj/spi_eccp.o
                                                  ./../../../build/tcc70xx/gcc/tcc70xx-freertos-debug/obj/power_com.o
                                                  ./../../../build/tcc70xx/gcc/tcc70xx-freertos-debug/obj/wdt_test.o
                                                  ./../../../build/tcc70xx/gcc/tcc70xx-freertos-debug/obj/timer_test.o
                                                  ./../../../build/tcc70xx/gcc/tcc70xx-freertos-debug/obj/gpio_test.o
                                                  ./../../../build/tcc70xx/gcc/tcc70xx-freertos-debug/obj/gic_test.o
                                                  ./../../../build/tcc70xx/gcc/tcc70xx-freertos-debug/obj/eflash_test.o
                                                  ./../../../build/tcc70xx/gcc/tcc70xx-freertos-debug/obj/audio_chip_veri.o
                                                  ./../../../build/tcc70xx/gcc/tcc70xx-freertos-debug/obj/audio_test.o
GIC_IntVectSet                                    ./../../../build/tcc70xx/gcc/tcc70xx-freertos-debug/obj/gic.o
                                                  ./../../../build/tcc70xx/gcc/tcc70xx-freertos-debug/obj/port.o
                                                  ./../../../build/tcc70xx/gcc/tcc70xx-freertos-debug/obj/wdt_pmu.o
                                                  ./../../../build/tcc70xx/gcc/tcc70xx-freertos-debug/obj/wdt.o
                                                  ./../../../build/tcc70xx/gcc/tcc70xx-freertos-debug/obj/uart.o
                                                  ./../../../build/tcc70xx/gcc/tcc70xx-freertos-debug/obj/timer.o
                                                  ./../../../build/tcc70xx/gcc/tcc70xx-freertos-debug/obj/spu.o
                                                  ./../../../build/tcc70xx/gcc/tcc70xx-freertos-debug/obj/rtc_dev.o
                                                  ./../../../build/tcc70xx/gcc/tcc70xx-freertos-debug/obj/pmio_dev_extn_pw_ctl.o
                                                  ./../../../build/tcc70xx/gcc/tcc70xx-freertos-debug/obj/pmio_dev.o
                                                  ./../../../build/tcc70xx/gcc/tcc70xx-freertos-debug/obj/ictc.o
                                                  ./../../../build/tcc70xx/gcc/tcc70xx-freertos-debug/obj/i2c.o
                                                  ./../../../build/tcc70xx/gcc/tcc70xx-freertos-debug/obj/gpsb.o
                                                  ./../../../build/tcc70xx/gcc/tcc70xx-freertos-debug/obj/gdma.o
                                                  ./../../../build/tcc70xx/gcc/tcc70xx-freertos-debug/obj/fmu.o
                                                  ./../../../build/tcc70xx/gcc/tcc70xx-freertos-debug/obj/eth.o
                                                  ./../../../build/tcc70xx/gcc/tcc70xx-freertos-debug/obj/dse.o
                                                  ./../../../build/tcc70xx/gcc/tcc70xx-freertos-debug/obj/can_porting.o
                                                  ./../../../build/tcc70xx/gcc/tcc70xx-freertos-debug/obj/adc.o
                                                  ./../../../build/tcc70xx/gcc/tcc70xx-freertos-debug/obj/spi_eccp.o
                                                  ./../../../build/tcc70xx/gcc/tcc70xx-freertos-debug/obj/timer_test.o
                                                  ./../../../build/tcc70xx/gcc/tcc70xx-freertos-debug/obj/gpio_test.o
                                                  ./../../../build/tcc70xx/gcc/tcc70xx-freertos-debug/obj/gic_test.o
                                                  ./../../../build/tcc70xx/gcc/tcc70xx-freertos-debug/obj/eflash_test.o
                                                  ./../../../build/tcc70xx/gcc/tcc70xx-freertos-debug/obj/audio_chip_veri.o
                                                  ./../../../build/tcc70xx/gcc/tcc70xx-freertos-debug/obj/audio_test.o
GIC_SmIrqEn                                       ./../../../build/tcc70xx/gcc/tcc70xx-freertos-debug/obj/gic.o
                                                  ./../../../build/tcc70xx/gcc/tcc70xx-freertos-debug/obj/gic_test.o
GIC_SmIrqSetHigh                                  ./../../../build/tcc70xx/gcc/tcc70xx-freertos-debug/obj/gic.o
                                                  ./../../../build/tcc70xx/gcc/tcc70xx-freertos-debug/obj/gic_test.o
GIC_Test_Sgi                                      ./../../../build/tcc70xx/gcc/tcc70xx-freertos-debug/obj/gic_test.o
                                                  ./../../../build/tcc70xx/gcc/tcc70xx-freertos-debug/obj/console.o
GIC_Test_SmInt                                    ./../../../build/tcc70xx/gcc/tcc70xx-freertos-debug/obj/gic_test.o
                                                  ./../../../build/tcc70xx/gcc/tcc70xx-freertos-debug/obj/console.o
GPIO_Config                                       ./../../../build/tcc70xx/gcc/tcc70xx-freertos-debug/obj/gpio.o
                                                  ./../../../build/tcc70xx/gcc/tcc70xx-freertos-debug/obj/uart.o
                                                  ./../../../build/tcc70xx/gcc/tcc70xx-freertos-debug/obj/snor_mio.o
                                                  ./../../../build/tcc70xx/gcc/tcc70xx-freertos-debug/obj/pmio_dev_extn_pw_ctl.o
                                                  ./../../../build/tcc70xx/gcc/tcc70xx-freertos-debug/obj/pmio_dev.o
                                                  ./../../../build/tcc70xx/gcc/tcc70xx-freertos-debug/obj/pdm.o
                                                  ./../../../build/tcc70xx/gcc/tcc70xx-freertos-debug/obj/i2s.o
                                                  ./../../../build/tcc70xx/gcc/tcc70xx-freertos-debug/obj/i2c.o
                                                  ./../../../build/tcc70xx/gcc/tcc70xx-freertos-debug/obj/gpsb.o
                                                  ./../../../build/tcc70xx/gcc/tcc70xx-freertos-debug/obj/eth.o
                                                  ./../../../build/tcc70xx/gcc/tcc70xx-freertos-debug/obj/bsp.o
                                                  ./../../../build/tcc70xx/gcc/tcc70xx-freertos-debug/obj/can_porting.o
                                                  ./../../../build/tcc70xx/gcc/tcc70xx-freertos-debug/obj/lin.o
                                                  ./../../../build/tcc70xx/gcc/tcc70xx-freertos-debug/obj/spi_eccp.o
                                                  ./../../../build/tcc70xx/gcc/tcc70xx-freertos-debug/obj/spu_test.o
                                                  ./../../../build/tcc70xx/gcc/tcc70xx-freertos-debug/obj/wdt_test.o
                                                  ./../../../build/tcc70xx/gcc/tcc70xx-freertos-debug/obj/pdm_test.o
                                                  ./../../../build/tcc70xx/gcc/tcc70xx-freertos-debug/obj/ictc_test.o
                                                  ./../../../build/tcc70xx/gcc/tcc70xx-freertos-debug/obj/gpio_test.o
                                                  ./../../../build/tcc70xx/gcc/tcc70xx-freertos-debug/obj/audio_test.o
                                                  ./../../../build/tcc70xx/gcc/tcc70xx-freertos-debug/obj/spi_led.o
GPIO_Get                                          ./../../../build/tcc70xx/gcc/tcc70xx-freertos-debug/obj/gpio.o
GPIO_IntExtSet                                    ./../../../build/tcc70xx/gcc/tcc70xx-freertos-debug/obj/gpio.o
                                                  ./../../../build/tcc70xx/gcc/tcc70xx-freertos-debug/obj/pmio_dev_extn_pw_ctl.o
                                                  ./../../../build/tcc70xx/gcc/tcc70xx-freertos-debug/obj/pmio_dev.o
                                                  ./../../../build/tcc70xx/gcc/tcc70xx-freertos-debug/obj/spi_eccp.o
GPIO_MfioCfg                                      ./../../../build/tcc70xx/gcc/tcc70xx-freertos-debug/obj/gpio.o
                                                  ./../../../build/tcc70xx/gcc/tcc70xx-freertos-debug/obj/uart.o
                                                  ./../../../build/tcc70xx/gcc/tcc70xx-freertos-debug/obj/i2c.o
                                                  ./../../../build/tcc70xx/gcc/tcc70xx-freertos-debug/obj/gpsb.o
GPIO_PerichSel                                    ./../../../build/tcc70xx/gcc/tcc70xx-freertos-debug/obj/gpio.o
                                                  ./../../../build/tcc70xx/gcc/tcc70xx-freertos-debug/obj/uart.o
                                                  ./../../../build/tcc70xx/gcc/tcc70xx-freertos-debug/obj/pdm.o
                                                  ./../../../build/tcc70xx/gcc/tcc70xx-freertos-debug/obj/i2c.o
                                                  ./../../../build/tcc70xx/gcc/tcc70xx-freertos-debug/obj/gpsb.o
GPIO_Set                                          ./../../../build/tcc70xx/gcc/tcc70xx-freertos-debug/obj/gpio.o
                                                  ./../../../build/tcc70xx/gcc/tcc70xx-freertos-debug/obj/pmio_dev_extn_pw_ctl.o
                                                  ./../../../build/tcc70xx/gcc/tcc70xx-freertos-debug/obj/gpsb.o
                                                  ./../../../build/tcc70xx/gcc/tcc70xx-freertos-debug/obj/eth.o
                                                  ./../../../build/tcc70xx/gcc/tcc70xx-freertos-debug/obj/bsp.o
                                                  ./../../../build/tcc70xx/gcc/tcc70xx-freertos-debug/obj/can_porting.o
                                                  ./../../../build/tcc70xx/gcc/tcc70xx-freertos-debug/obj/lin.o
                                                  ./../../../build/tcc70xx/gcc/tcc70xx-freertos-debug/obj/spi_eccp.o
                                                  ./../../../build/tcc70xx/gcc/tcc70xx-freertos-debug/obj/spu_test.o
                                                  ./../../../build/tcc70xx/gcc/tcc70xx-freertos-debug/obj/wdt_test.o
                                                  ./../../../build/tcc70xx/gcc/tcc70xx-freertos-debug/obj/pdm_test.o
                                                  ./../../../build/tcc70xx/gcc/tcc70xx-freertos-debug/obj/gpio_test.o
                                                  ./../../../build/tcc70xx/gcc/tcc70xx-freertos-debug/obj/audio_test.o
                                                  ./../../../build/tcc70xx/gcc/tcc70xx-freertos-debug/obj/spi_led.o
GPIO_StartGpioTest                                ./../../../build/tcc70xx/gcc/tcc70xx-freertos-debug/obj/gpio_test.o
                                                  ./../../../build/tcc70xx/gcc/tcc70xx-freertos-debug/obj/console.o
GPIO_ToNum                                        ./../../../build/tcc70xx/gcc/tcc70xx-freertos-debug/obj/gpio.o
                                                  ./../../../build/tcc70xx/gcc/tcc70xx-freertos-debug/obj/gpsb.o
GPSB_AsyncXfer                                    ./../../../build/tcc70xx/gcc/tcc70xx-freertos-debug/obj/gpsb.o
                                                  ./../../../build/tcc70xx/gcc/tcc70xx-freertos-debug/obj/spi_eccp.o
                                                  ./../../../build/tcc70xx/gcc/tcc70xx-freertos-debug/obj/gpsb_test.o
GPSB_ClearDMABuffer                               ./../../../build/tcc70xx/gcc/tcc70xx-freertos-debug/obj/gpsb.o
                                                  ./../../../build/tcc70xx/gcc/tcc70xx-freertos-debug/obj/spi_eccp.o
GPSB_ClearLbCfg                                   ./../../../build/tcc70xx/gcc/tcc70xx-freertos-debug/obj/gpsb.o
GPSB_Close                                        ./../../../build/tcc70xx/gcc/tcc70xx-freertos-debug/obj/gpsb.o
                                                  ./../../../build/tcc70xx/gcc/tcc70xx-freertos-debug/obj/gpsb_test.o
GPSB_CreateSlaveTestTask                          ./../../../build/tcc70xx/gcc/tcc70xx-freertos-debug/obj/gpsb_test.o
                                                  ./../../../build/tcc70xx/gcc/tcc70xx-freertos-debug/obj/console.o
GPSB_CsActivate                                   ./../../../build/tcc70xx/gcc/tcc70xx-freertos-debug/obj/gpsb.o
                                                  ./../../../build/tcc70xx/gcc/tcc70xx-freertos-debug/obj/spi_eccp.o
                                                  ./../../../build/tcc70xx/gcc/tcc70xx-freertos-debug/obj/gpsb_test.o
                                                  ./../../../build/tcc70xx/gcc/tcc70xx-freertos-debug/obj/spi_led.o
GPSB_CsAlloc                                      ./../../../build/tcc70xx/gcc/tcc70xx-freertos-debug/obj/gpsb.o
                                                  ./../../../build/tcc70xx/gcc/tcc70xx-freertos-debug/obj/gpsb_test.o
                                                  ./../../../build/tcc70xx/gcc/tcc70xx-freertos-debug/obj/spi_led.o
GPSB_CsDeactivate                                 ./../../../build/tcc70xx/gcc/tcc70xx-freertos-debug/obj/gpsb.o
                                                  ./../../../build/tcc70xx/gcc/tcc70xx-freertos-debug/obj/spi_eccp.o
                                                  ./../../../build/tcc70xx/gcc/tcc70xx-freertos-debug/obj/gpsb_test.o
                                                  ./../../../build/tcc70xx/gcc/tcc70xx-freertos-debug/obj/spi_led.o
GPSB_CsInit                                       ./../../../build/tcc70xx/gcc/tcc70xx-freertos-debug/obj/gpsb.o
                                                  ./../../../build/tcc70xx/gcc/tcc70xx-freertos-debug/obj/spi_eccp.o
                                                  ./../../../build/tcc70xx/gcc/tcc70xx-freertos-debug/obj/gpsb_test.o
GPSB_Deinit                                       ./../../../build/tcc70xx/gcc/tcc70xx-freertos-debug/obj/gpsb.o
GPSB_FillSlaveTXData                              ./../../../build/tcc70xx/gcc/tcc70xx-freertos-debug/obj/gpsb.o
                                                  ./../../../build/tcc70xx/gcc/tcc70xx-freertos-debug/obj/gpsb_test.o
GPSB_GetSlaveRXData                               ./../../../build/tcc70xx/gcc/tcc70xx-freertos-debug/obj/gpsb.o
                                                  ./../../../build/tcc70xx/gcc/tcc70xx-freertos-debug/obj/gpsb_test.o
GPSB_GetStatus                                    ./../../../build/tcc70xx/gcc/tcc70xx-freertos-debug/obj/gpsb.o
                                                  ./../../../build/tcc70xx/gcc/tcc70xx-freertos-debug/obj/gpsb_test.o
GPSB_Init                                         ./../../../build/tcc70xx/gcc/tcc70xx-freertos-debug/obj/gpsb.o
                                                  ./../../../build/tcc70xx/gcc/tcc70xx-freertos-debug/obj/bsp.o
GPSB_Open                                         ./../../../build/tcc70xx/gcc/tcc70xx-freertos-debug/obj/gpsb.o
                                                  ./../../../build/tcc70xx/gcc/tcc70xx-freertos-debug/obj/spi_eccp.o
                                                  ./../../../build/tcc70xx/gcc/tcc70xx-freertos-debug/obj/gpsb_test.o
                                                  ./../../../build/tcc70xx/gcc/tcc70xx-freertos-debug/obj/spi_led.o
GPSB_Reset                                        ./../../../build/tcc70xx/gcc/tcc70xx-freertos-debug/obj/gpsb.o
GPSB_SafetyDisableLock                            ./../../../build/tcc70xx/gcc/tcc70xx-freertos-debug/obj/gpsb.o
                                                  ./../../../build/tcc70xx/gcc/tcc70xx-freertos-debug/obj/gpsb_test.o
GPSB_SafetyDisableLoopback                        ./../../../build/tcc70xx/gcc/tcc70xx-freertos-debug/obj/gpsb.o
                                                  ./../../../build/tcc70xx/gcc/tcc70xx-freertos-debug/obj/gpsb_test.o
GPSB_SafetyDisableMonitor                         ./../../../build/tcc70xx/gcc/tcc70xx-freertos-debug/obj/gpsb.o
                                                  ./../../../build/tcc70xx/gcc/tcc70xx-freertos-debug/obj/gpsb_test.o
GPSB_SafetyEnableLock                             ./../../../build/tcc70xx/gcc/tcc70xx-freertos-debug/obj/gpsb.o
                                                  ./../../../build/tcc70xx/gcc/tcc70xx-freertos-debug/obj/gpsb_test.o
GPSB_SafetyEnableLoopback                         ./../../../build/tcc70xx/gcc/tcc70xx-freertos-debug/obj/gpsb.o
                                                  ./../../../build/tcc70xx/gcc/tcc70xx-freertos-debug/obj/gpsb_test.o
GPSB_SafetyEnableMonitor                          ./../../../build/tcc70xx/gcc/tcc70xx-freertos-debug/obj/gpsb.o
                                                  ./../../../build/tcc70xx/gcc/tcc70xx-freertos-debug/obj/gpsb_test.o
GPSB_SafetyGetStatus                              ./../../../build/tcc70xx/gcc/tcc70xx-freertos-debug/obj/gpsb.o
                                                  ./../../../build/tcc70xx/gcc/tcc70xx-freertos-debug/obj/gpsb_test.o
GPSB_SetBpw                                       ./../../../build/tcc70xx/gcc/tcc70xx-freertos-debug/obj/gpsb.o
                                                  ./../../../build/tcc70xx/gcc/tcc70xx-freertos-debug/obj/spi_eccp.o
                                                  ./../../../build/tcc70xx/gcc/tcc70xx-freertos-debug/obj/gpsb_test.o
                                                  ./../../../build/tcc70xx/gcc/tcc70xx-freertos-debug/obj/spi_led.o
GPSB_SetBpwNoSwap                                 ./../../../build/tcc70xx/gcc/tcc70xx-freertos-debug/obj/gpsb.o
GPSB_SetLbCfg                                     ./../../../build/tcc70xx/gcc/tcc70xx-freertos-debug/obj/gpsb.o
GPSB_SetMode                                      ./../../../build/tcc70xx/gcc/tcc70xx-freertos-debug/obj/gpsb.o
                                                  ./../../../build/tcc70xx/gcc/tcc70xx-freertos-debug/obj/gpsb_test.o
GPSB_SetSlaveDMAMode                              ./../../../build/tcc70xx/gcc/tcc70xx-freertos-debug/obj/gpsb.o
GPSB_SetSpeed                                     ./../../../build/tcc70xx/gcc/tcc70xx-freertos-debug/obj/gpsb.o
                                                  ./../../../build/tcc70xx/gcc/tcc70xx-freertos-debug/obj/spi_eccp.o
                                                  ./../../../build/tcc70xx/gcc/tcc70xx-freertos-debug/obj/gpsb_test.o
                                                  ./../../../build/tcc70xx/gcc/tcc70xx-freertos-debug/obj/spi_led.o
GPSB_Test                                         ./../../../build/tcc70xx/gcc/tcc70xx-freertos-debug/obj/gpsb_test.o
                                                  ./../../../build/tcc70xx/gcc/tcc70xx-freertos-debug/obj/console.o
GPSB_Xfer                                         ./../../../build/tcc70xx/gcc/tcc70xx-freertos-debug/obj/gpsb.o
                                                  ./../../../build/tcc70xx/gcc/tcc70xx-freertos-debug/obj/gpsb_test.o
                                                  ./../../../build/tcc70xx/gcc/tcc70xx-freertos-debug/obj/spi_led.o
HSM_CertiParse                                    ./../../../build/tcc70xx/gcc/tcc70xx-freertos-debug/obj/hsm_manager.o
                                                  ./../../../build/tcc70xx/gcc/tcc70xx-freertos-debug/obj/hsm_test.o
HSM_CertiVerify                                   ./../../../build/tcc70xx/gcc/tcc70xx-freertos-debug/obj/hsm_manager.o
                                                  ./../../../build/tcc70xx/gcc/tcc70xx-freertos-debug/obj/hsm_test.o
HSM_ComputeEcdhPubKey                             ./../../../build/tcc70xx/gcc/tcc70xx-freertos-debug/obj/hsm_manager.o
                                                  ./../../../build/tcc70xx/gcc/tcc70xx-freertos-debug/obj/hsm_test.o
HSM_DfWrite                                       ./../../../build/tcc70xx/gcc/tcc70xx-freertos-debug/obj/hsm_manager.o
                                                  ./../../../build/tcc70xx/gcc/tcc70xx-freertos-debug/obj/hsm_test.o
HSM_GenHash                                       ./../../../build/tcc70xx/gcc/tcc70xx-freertos-debug/obj/hsm_manager.o
                                                  ./../../../build/tcc70xx/gcc/tcc70xx-freertos-debug/obj/hsm_test.o
HSM_GenMac                                        ./../../../build/tcc70xx/gcc/tcc70xx-freertos-debug/obj/hsm_manager.o
                                                  ./../../../build/tcc70xx/gcc/tcc70xx-freertos-debug/obj/hsm_test.o
HSM_GenMacByKt                                    ./../../../build/tcc70xx/gcc/tcc70xx-freertos-debug/obj/hsm_manager.o
                                                  ./../../../build/tcc70xx/gcc/tcc70xx-freertos-debug/obj/hsm_test.o
HSM_GetVersion                                    ./../../../build/tcc70xx/gcc/tcc70xx-freertos-debug/obj/hsm_manager.o
                                                  ./../../../build/tcc70xx/gcc/tcc70xx-freertos-debug/obj/hsm_test.o
HSM_Init                                          ./../../../build/tcc70xx/gcc/tcc70xx-freertos-debug/obj/hsm_manager.o
                                                  ./../../../build/tcc70xx/gcc/tcc70xx-freertos-debug/obj/hsm_test.o
                                                  ./../../../build/tcc70xx/gcc/tcc70xx-freertos-debug/obj/fwupdate.o
                                                  ./../../../build/tcc70xx/gcc/tcc70xx-freertos-debug/obj/console.o
HSM_PRNG                                          ./../../../build/tcc70xx/gcc/tcc70xx-freertos-debug/obj/hsm_manager.o
                                                  ./../../../build/tcc70xx/gcc/tcc70xx-freertos-debug/obj/hsm_test.o
HSM_Pbkdf2                                        ./../../../build/tcc70xx/gcc/tcc70xx-freertos-debug/obj/hsm_manager.o
                                                  ./../../../build/tcc70xx/gcc/tcc70xx-freertos-debug/obj/hsm_test.o
HSM_ProgramLDT                                    ./../../../build/tcc70xx/gcc/tcc70xx-freertos-debug/obj/hsm_manager.o
                                                  ./../../../build/tcc70xx/gcc/tcc70xx-freertos-debug/obj/console.o
HSM_ReadLDT                                       ./../../../build/tcc70xx/gcc/tcc70xx-freertos-debug/obj/hsm_manager.o
                                                  ./../../../build/tcc70xx/gcc/tcc70xx-freertos-debug/obj/console.o
HSM_RunAes                                        ./../../../build/tcc70xx/gcc/tcc70xx-freertos-debug/obj/hsm_manager.o
                                                  ./../../../build/tcc70xx/gcc/tcc70xx-freertos-debug/obj/hsm_test.o
HSM_RunAesByKt                                    ./../../../build/tcc70xx/gcc/tcc70xx-freertos-debug/obj/hsm_manager.o
                                                  ./../../../build/tcc70xx/gcc/tcc70xx-freertos-debug/obj/hsm_test.o
HSM_RunEcdhPhaseI                                 ./../../../build/tcc70xx/gcc/tcc70xx-freertos-debug/obj/hsm_manager.o
                                                  ./../../../build/tcc70xx/gcc/tcc70xx-freertos-debug/obj/hsm_test.o
HSM_RunEcdhPhaseII                                ./../../../build/tcc70xx/gcc/tcc70xx-freertos-debug/obj/hsm_manager.o
                                                  ./../../../build/tcc70xx/gcc/tcc70xx-freertos-debug/obj/hsm_test.o
HSM_RunEcdsa                                      ./../../../build/tcc70xx/gcc/tcc70xx-freertos-debug/obj/hsm_manager.o
                                                  ./../../../build/tcc70xx/gcc/tcc70xx-freertos-debug/obj/hsm_test.o
HSM_RunRsassa                                     ./../../../build/tcc70xx/gcc/tcc70xx-freertos-debug/obj/hsm_manager.o
HSM_SelectBank                                    ./../../../build/tcc70xx/gcc/tcc70xx-freertos-debug/obj/hsm_manager.o
                                                  ./../../../build/tcc70xx/gcc/tcc70xx-freertos-debug/obj/hsm_test.o
HSM_SetKey                                        ./../../../build/tcc70xx/gcc/tcc70xx-freertos-debug/obj/hsm_manager.o
                                                  ./../../../build/tcc70xx/gcc/tcc70xx-freertos-debug/obj/hsm_test.o
HSM_TRNG                                          ./../../../build/tcc70xx/gcc/tcc70xx-freertos-debug/obj/hsm_manager.o
                                                  ./../../../build/tcc70xx/gcc/tcc70xx-freertos-debug/obj/hsm_test.o
HSM_Test                                          ./../../../build/tcc70xx/gcc/tcc70xx-freertos-debug/obj/hsm_test.o
                                                  ./../../../build/tcc70xx/gcc/tcc70xx-freertos-debug/obj/console.o
HSM_UpdateVerify                                  ./../../../build/tcc70xx/gcc/tcc70xx-freertos-debug/obj/hsm_manager.o
                                                  ./../../../build/tcc70xx/gcc/tcc70xx-freertos-debug/obj/fwupdate.o
                                                  ./../../../build/tcc70xx/gcc/tcc70xx-freertos-debug/obj/console.o
HSM_VerifyFw                                      ./../../../build/tcc70xx/gcc/tcc70xx-freertos-debug/obj/hsm_manager.o
                                                  ./../../../build/tcc70xx/gcc/tcc70xx-freertos-debug/obj/fwupdate.o
HSM_Verifymac                                     ./../../../build/tcc70xx/gcc/tcc70xx-freertos-debug/obj/hsm_manager.o
                                                  ./../../../build/tcc70xx/gcc/tcc70xx-freertos-debug/obj/hsm_test.o
I2C_Close                                         ./../../../build/tcc70xx/gcc/tcc70xx-freertos-debug/obj/i2c.o
                                                  ./../../../build/tcc70xx/gcc/tcc70xx-freertos-debug/obj/i2c_test.o
I2C_Deinit                                        ./../../../build/tcc70xx/gcc/tcc70xx-freertos-debug/obj/i2c.o
I2C_Init                                          ./../../../build/tcc70xx/gcc/tcc70xx-freertos-debug/obj/i2c.o
                                                  ./../../../build/tcc70xx/gcc/tcc70xx-freertos-debug/obj/bsp.o
I2C_Open                                          ./../../../build/tcc70xx/gcc/tcc70xx-freertos-debug/obj/i2c.o
                                                  ./../../../build/tcc70xx/gcc/tcc70xx-freertos-debug/obj/i2c_test.o
                                                  ./../../../build/tcc70xx/gcc/tcc70xx-freertos-debug/obj/wm8904.o
I2C_ScanSlave                                     ./../../../build/tcc70xx/gcc/tcc70xx-freertos-debug/obj/i2c.o
                                                  ./../../../build/tcc70xx/gcc/tcc70xx-freertos-debug/obj/i2c_test.o
I2C_TestMain                                      ./../../../build/tcc70xx/gcc/tcc70xx-freertos-debug/obj/i2c_test.o
                                                  ./../../../build/tcc70xx/gcc/tcc70xx-freertos-debug/obj/console.o
I2C_Xfer                                          ./../../../build/tcc70xx/gcc/tcc70xx-freertos-debug/obj/i2c.o
I2C_XferCmd                                       ./../../../build/tcc70xx/gcc/tcc70xx-freertos-debug/obj/i2c.o
                                                  ./../../../build/tcc70xx/gcc/tcc70xx-freertos-debug/obj/i2c_test.o
                                                  ./../../../build/tcc70xx/gcc/tcc70xx-freertos-debug/obj/wm8904.o
I2S_DAIDisable                                    ./../../../build/tcc70xx/gcc/tcc70xx-freertos-debug/obj/i2s.o
I2S_DAIEnable                                     ./../../../build/tcc70xx/gcc/tcc70xx-freertos-debug/obj/i2s.o
                                                  ./../../../build/tcc70xx/gcc/tcc70xx-freertos-debug/obj/spu_test.o
I2S_DAMRDisable                                   ./../../../build/tcc70xx/gcc/tcc70xx-freertos-debug/obj/i2s.o
                                                  ./../../../build/tcc70xx/gcc/tcc70xx-freertos-debug/obj/audio_test.o
I2S_DAMREnable                                    ./../../../build/tcc70xx/gcc/tcc70xx-freertos-debug/obj/i2s.o
                                                  ./../../../build/tcc70xx/gcc/tcc70xx-freertos-debug/obj/spu_test.o
                                                  ./../../../build/tcc70xx/gcc/tcc70xx-freertos-debug/obj/audio_chip_veri.o
                                                  ./../../../build/tcc70xx/gcc/tcc70xx-freertos-debug/obj/audio_test.o
I2S_DMADisable                                    ./../../../build/tcc70xx/gcc/tcc70xx-freertos-debug/obj/i2s.o
I2S_DMAEnable                                     ./../../../build/tcc70xx/gcc/tcc70xx-freertos-debug/obj/i2s.o
I2S_DMAInit                                       ./../../../build/tcc70xx/gcc/tcc70xx-freertos-debug/obj/i2s.o
                                                  ./../../../build/tcc70xx/gcc/tcc70xx-freertos-debug/obj/audio_test.o
I2S_DaifSetting                                   ./../../../build/tcc70xx/gcc/tcc70xx-freertos-debug/obj/i2s.o
                                                  ./../../../build/tcc70xx/gcc/tcc70xx-freertos-debug/obj/spu_test.o
                                                  ./../../../build/tcc70xx/gcc/tcc70xx-freertos-debug/obj/audio_chip_veri.o
                                                  ./../../../build/tcc70xx/gcc/tcc70xx-freertos-debug/obj/audio_test.o
I2S_Disable                                       ./../../../build/tcc70xx/gcc/tcc70xx-freertos-debug/obj/i2s.o
                                                  ./../../../build/tcc70xx/gcc/tcc70xx-freertos-debug/obj/audio_test.o
I2S_DmaReset                                      ./../../../build/tcc70xx/gcc/tcc70xx-freertos-debug/obj/i2s.o
I2S_Enable                                        ./../../../build/tcc70xx/gcc/tcc70xx-freertos-debug/obj/i2s.o
                                                  ./../../../build/tcc70xx/gcc/tcc70xx-freertos-debug/obj/audio_chip_veri.o
I2S_ErrCheck_Clear                                ./../../../build/tcc70xx/gcc/tcc70xx-freertos-debug/obj/i2s.o
I2S_ErrCheck_Disable                              ./../../../build/tcc70xx/gcc/tcc70xx-freertos-debug/obj/i2s.o
I2S_ErrCheck_Enable                               ./../../../build/tcc70xx/gcc/tcc70xx-freertos-debug/obj/i2s.o
I2S_ErrCheck_GetStatus                            ./../../../build/tcc70xx/gcc/tcc70xx-freertos-debug/obj/i2s.o
I2S_FifoClear                                     ./../../../build/tcc70xx/gcc/tcc70xx-freertos-debug/obj/i2s.o
                                                  ./../../../build/tcc70xx/gcc/tcc70xx-freertos-debug/obj/audio_chip_veri.o
                                                  ./../../../build/tcc70xx/gcc/tcc70xx-freertos-debug/obj/audio_test.o
I2S_GetAvailable                                  ./../../../build/tcc70xx/gcc/tcc70xx-freertos-debug/obj/i2s.o
                                                  ./../../../build/tcc70xx/gcc/tcc70xx-freertos-debug/obj/audio_test.o
I2S_GetTransferSize                               ./../../../build/tcc70xx/gcc/tcc70xx-freertos-debug/obj/i2s.o
I2S_GetTxDMAStatus                                ./../../../build/tcc70xx/gcc/tcc70xx-freertos-debug/obj/i2s.o
                                                  ./../../../build/tcc70xx/gcc/tcc70xx-freertos-debug/obj/audio_test.o
I2S_GetTxDaCsar                                   ./../../../build/tcc70xx/gcc/tcc70xx-freertos-debug/obj/i2s.o
                                                  ./../../../build/tcc70xx/gcc/tcc70xx-freertos-debug/obj/audio_chip_veri.o
I2S_GetTxDaCsarL                                  ./../../../build/tcc70xx/gcc/tcc70xx-freertos-debug/obj/i2s.o
I2S_HopClear                                      ./../../../build/tcc70xx/gcc/tcc70xx-freertos-debug/obj/i2s.o
I2S_Irq                                           ./../../../build/tcc70xx/gcc/tcc70xx-freertos-debug/obj/i2s.o
                                                  ./../../../build/tcc70xx/gcc/tcc70xx-freertos-debug/obj/audio_test.o
I2S_Irq_Disable                                   ./../../../build/tcc70xx/gcc/tcc70xx-freertos-debug/obj/i2s.o
I2S_Irq_Enable                                    ./../../../build/tcc70xx/gcc/tcc70xx-freertos-debug/obj/i2s.o
I2S_PcmRead                                       ./../../../build/tcc70xx/gcc/tcc70xx-freertos-debug/obj/i2s.o
I2S_PcmWrite                                      ./../../../build/tcc70xx/gcc/tcc70xx-freertos-debug/obj/i2s.o
                                                  ./../../../build/tcc70xx/gcc/tcc70xx-freertos-debug/obj/audio_test.o
I2S_RepeatMode                                    ./../../../build/tcc70xx/gcc/tcc70xx-freertos-debug/obj/i2s.o
I2S_SWReset                                       ./../../../build/tcc70xx/gcc/tcc70xx-freertos-debug/obj/i2s.o
                                                  ./../../../build/tcc70xx/gcc/tcc70xx-freertos-debug/obj/audio_chip_veri.o
                                                  ./../../../build/tcc70xx/gcc/tcc70xx-freertos-debug/obj/audio_test.o
I2S_SetAICMode                                    ./../../../build/tcc70xx/gcc/tcc70xx-freertos-debug/obj/i2s.o
I2S_SetClock                                      ./../../../build/tcc70xx/gcc/tcc70xx-freertos-debug/obj/i2s.o
                                                  ./../../../build/tcc70xx/gcc/tcc70xx-freertos-debug/obj/spu_test.o
                                                  ./../../../build/tcc70xx/gcc/tcc70xx-freertos-debug/obj/audio_chip_veri.o
                                                  ./../../../build/tcc70xx/gcc/tcc70xx-freertos-debug/obj/audio_test.o
I2S_SetGpiofunction                               ./../../../build/tcc70xx/gcc/tcc70xx-freertos-debug/obj/i2s.o
                                                  ./../../../build/tcc70xx/gcc/tcc70xx-freertos-debug/obj/spu_test.o
                                                  ./../../../build/tcc70xx/gcc/tcc70xx-freertos-debug/obj/audio_chip_veri.o
                                                  ./../../../build/tcc70xx/gcc/tcc70xx-freertos-debug/obj/audio_test.o
I2S_SetTASMode                                    ./../../../build/tcc70xx/gcc/tcc70xx-freertos-debug/obj/i2s.o
                                                  ./../../../build/tcc70xx/gcc/tcc70xx-freertos-debug/obj/spu_test.o
I2S_SetTASRxFifoThreshold                         ./../../../build/tcc70xx/gcc/tcc70xx-freertos-debug/obj/i2s.o
I2S_SetTASTxFifoThreshold                         ./../../../build/tcc70xx/gcc/tcc70xx-freertos-debug/obj/i2s.o
I2S_SetTransferSize                               ./../../../build/tcc70xx/gcc/tcc70xx-freertos-debug/obj/i2s.o
                                                  ./../../../build/tcc70xx/gcc/tcc70xx-freertos-debug/obj/audio_test.o
I2S_SetTxDaSar                                    ./../../../build/tcc70xx/gcc/tcc70xx-freertos-debug/obj/i2s.o
                                                  ./../../../build/tcc70xx/gcc/tcc70xx-freertos-debug/obj/audio_chip_veri.o
I2S_SetTxDaSarL                                   ./../../../build/tcc70xx/gcc/tcc70xx-freertos-debug/obj/i2s.o
                                                  ./../../../build/tcc70xx/gcc/tcc70xx-freertos-debug/obj/audio_chip_veri.o
I2S_TASClear                                      ./../../../build/tcc70xx/gcc/tcc70xx-freertos-debug/obj/i2s.o
I2S_TxAdmaSetting                                 ./../../../build/tcc70xx/gcc/tcc70xx-freertos-debug/obj/i2s.o
                                                  ./../../../build/tcc70xx/gcc/tcc70xx-freertos-debug/obj/audio_chip_veri.o
                                                  ./../../../build/tcc70xx/gcc/tcc70xx-freertos-debug/obj/audio_test.o
I2S_UpdateStatus                                  ./../../../build/tcc70xx/gcc/tcc70xx-freertos-debug/obj/i2s.o
ICTC_ClearIsrResult                               ./../../../build/tcc70xx/gcc/tcc70xx-freertos-debug/obj/ictc.o
ICTC_Deinit                                       ./../../../build/tcc70xx/gcc/tcc70xx-freertos-debug/obj/ictc.o
ICTC_DisableCapture                               ./../../../build/tcc70xx/gcc/tcc70xx-freertos-debug/obj/ictc.o
                                                  ./../../../build/tcc70xx/gcc/tcc70xx-freertos-debug/obj/ictc_test.o
ICTC_EnableCapture                                ./../../../build/tcc70xx/gcc/tcc70xx-freertos-debug/obj/ictc.o
                                                  ./../../../build/tcc70xx/gcc/tcc70xx-freertos-debug/obj/ictc_test.o
ICTC_GetCurEdgeCnt                                ./../../../build/tcc70xx/gcc/tcc70xx-freertos-debug/obj/ictc.o
ICTC_GetFEdgeTstmpCnt                             ./../../../build/tcc70xx/gcc/tcc70xx-freertos-debug/obj/ictc.o
ICTC_GetIsrResult                                 ./../../../build/tcc70xx/gcc/tcc70xx-freertos-debug/obj/ictc.o
                                                  ./../../../build/tcc70xx/gcc/tcc70xx-freertos-debug/obj/ictc_test.o
ICTC_GetPreDutyCnt                                ./../../../build/tcc70xx/gcc/tcc70xx-freertos-debug/obj/ictc.o
ICTC_GetPrePeriodCnt                              ./../../../build/tcc70xx/gcc/tcc70xx-freertos-debug/obj/ictc.o
ICTC_GetPrvEdgeCnt                                ./../../../build/tcc70xx/gcc/tcc70xx-freertos-debug/obj/ictc.o
ICTC_GetREdgeTstmpCnt                             ./../../../build/tcc70xx/gcc/tcc70xx-freertos-debug/obj/ictc.o
ICTC_Init                                         ./../../../build/tcc70xx/gcc/tcc70xx-freertos-debug/obj/ictc.o
                                                  ./../../../build/tcc70xx/gcc/tcc70xx-freertos-debug/obj/ictc_test.o
ICTC_SelectTestCase                               ./../../../build/tcc70xx/gcc/tcc70xx-freertos-debug/obj/ictc_test.o
                                                  ./../../../build/tcc70xx/gcc/tcc70xx-freertos-debug/obj/console.o
ICTC_SetCallBackFunc                              ./../../../build/tcc70xx/gcc/tcc70xx-freertos-debug/obj/ictc.o
                                                  ./../../../build/tcc70xx/gcc/tcc70xx-freertos-debug/obj/ictc_test.o
ICTC_SetCompareRoundValue                         ./../../../build/tcc70xx/gcc/tcc70xx-freertos-debug/obj/ictc.o
                                                  ./../../../build/tcc70xx/gcc/tcc70xx-freertos-debug/obj/ictc_test.o
ICTC_SetEdgeMatchingValue                         ./../../../build/tcc70xx/gcc/tcc70xx-freertos-debug/obj/ictc.o
                                                  ./../../../build/tcc70xx/gcc/tcc70xx-freertos-debug/obj/ictc_test.o
ICTC_SetIRQCtrlReg                                ./../../../build/tcc70xx/gcc/tcc70xx-freertos-debug/obj/ictc.o
                                                  ./../../../build/tcc70xx/gcc/tcc70xx-freertos-debug/obj/ictc_test.o
ICTC_SetOpEnCtrlCounter                           ./../../../build/tcc70xx/gcc/tcc70xx-freertos-debug/obj/ictc.o
                                                  ./../../../build/tcc70xx/gcc/tcc70xx-freertos-debug/obj/ictc_test.o
ICTC_SetOpModeCtrlReg                             ./../../../build/tcc70xx/gcc/tcc70xx-freertos-debug/obj/ictc.o
                                                  ./../../../build/tcc70xx/gcc/tcc70xx-freertos-debug/obj/ictc_test.o
ICTC_SetTimeoutValue                              ./../../../build/tcc70xx/gcc/tcc70xx-freertos-debug/obj/ictc.o
                                                  ./../../../build/tcc70xx/gcc/tcc70xx-freertos-debug/obj/ictc_test.o
IDLE_CreateTask                                   ./../../../build/tcc70xx/gcc/tcc70xx-freertos-debug/obj/idle.o
                                                  ./../../../build/tcc70xx/gcc/tcc70xx-freertos-debug/obj/main.o
InitSensorControls                                ./../../../build/tcc70xx/gcc/tcc70xx-freertos-debug/obj/can_vcp_ctrl.o
                                                  ./../../../build/tcc70xx/gcc/tcc70xx-freertos-debug/obj/can_demo.o
LIN_CalClassicChecksum                            ./../../../build/tcc70xx/gcc/tcc70xx-freertos-debug/obj/lin.o
                                                  ./../../../build/tcc70xx/gcc/tcc70xx-freertos-debug/obj/lin_test.o
LIN_CalEnhancedChecksum                           ./../../../build/tcc70xx/gcc/tcc70xx-freertos-debug/obj/lin.o
                                                  ./../../../build/tcc70xx/gcc/tcc70xx-freertos-debug/obj/lin_test.o
LIN_CalcFrameId                                   ./../../../build/tcc70xx/gcc/tcc70xx-freertos-debug/obj/lin.o
                                                  ./../../../build/tcc70xx/gcc/tcc70xx-freertos-debug/obj/lin_test.o
LIN_CalcProtectId                                 ./../../../build/tcc70xx/gcc/tcc70xx-freertos-debug/obj/lin.o
                                                  ./../../../build/tcc70xx/gcc/tcc70xx-freertos-debug/obj/lin_test.o
LIN_CreateAppTask                                 ./../../../build/tcc70xx/gcc/tcc70xx-freertos-debug/obj/lin_test.o
LIN_FlushRxData                                   ./../../../build/tcc70xx/gcc/tcc70xx-freertos-debug/obj/lin.o
                                                  ./../../../build/tcc70xx/gcc/tcc70xx-freertos-debug/obj/lin_test.o
LIN_GetDLC                                        ./../../../build/tcc70xx/gcc/tcc70xx-freertos-debug/obj/lin_test.o
LIN_GetStatus                                     ./../../../build/tcc70xx/gcc/tcc70xx-freertos-debug/obj/lin.o
LIN_Init                                          ./../../../build/tcc70xx/gcc/tcc70xx-freertos-debug/obj/lin.o
                                                  ./../../../build/tcc70xx/gcc/tcc70xx-freertos-debug/obj/lin_test.o
LIN_MasterRx                                      ./../../../build/tcc70xx/gcc/tcc70xx-freertos-debug/obj/lin.o
                                                  ./../../../build/tcc70xx/gcc/tcc70xx-freertos-debug/obj/lin_test.o
LIN_MasterTx                                      ./../../../build/tcc70xx/gcc/tcc70xx-freertos-debug/obj/lin.o
                                                  ./../../../build/tcc70xx/gcc/tcc70xx-freertos-debug/obj/lin_test.o
LIN_ReadHeader                                    ./../../../build/tcc70xx/gcc/tcc70xx-freertos-debug/obj/lin.o
                                                  ./../../../build/tcc70xx/gcc/tcc70xx-freertos-debug/obj/lin_test.o
LIN_ReadResponse                                  ./../../../build/tcc70xx/gcc/tcc70xx-freertos-debug/obj/lin.o
                                                  ./../../../build/tcc70xx/gcc/tcc70xx-freertos-debug/obj/lin_test.o
LIN_RegisterCB                                    ./../../../build/tcc70xx/gcc/tcc70xx-freertos-debug/obj/lin.o
                                                  ./../../../build/tcc70xx/gcc/tcc70xx-freertos-debug/obj/lin_test.o
LIN_SampleTest                                    ./../../../build/tcc70xx/gcc/tcc70xx-freertos-debug/obj/lin_test.o
                                                  ./../../../build/tcc70xx/gcc/tcc70xx-freertos-debug/obj/console.o
LIN_TEST_STATUS                                   ./../../../build/tcc70xx/gcc/tcc70xx-freertos-debug/obj/lin_test.o
LIN_TestUsage                                     ./../../../build/tcc70xx/gcc/tcc70xx-freertos-debug/obj/lin_test.o
LIN_UserResponse                                  ./../../../build/tcc70xx/gcc/tcc70xx-freertos-debug/obj/lin_test.o
MBOX_DevRecvSss                                   ./../../../build/tcc70xx/gcc/tcc70xx-freertos-debug/obj/mbox.o
                                                  ./../../../build/tcc70xx/gcc/tcc70xx-freertos-debug/obj/hsm_manager.o
MBOX_DevSendSss                                   ./../../../build/tcc70xx/gcc/tcc70xx-freertos-debug/obj/mbox.o
                                                  ./../../../build/tcc70xx/gcc/tcc70xx-freertos-debug/obj/hsm_manager.o
MBOX_Flush                                        ./../../../build/tcc70xx/gcc/tcc70xx-freertos-debug/obj/mbox.o
MBOX_Init                                         ./../../../build/tcc70xx/gcc/tcc70xx-freertos-debug/obj/mbox.o
                                                  ./../../../build/tcc70xx/gcc/tcc70xx-freertos-debug/obj/bsp.o
MIDF_FilterInitialize                             ./../../../build/tcc70xx/gcc/tcc70xx-freertos-debug/obj/midf.o
MIDF_RegisterFilterRegion                         ./../../../build/tcc70xx/gcc/tcc70xx-freertos-debug/obj/midf.o
MIDF_UnregisterFilterRegion                       ./../../../build/tcc70xx/gcc/tcc70xx-freertos-debug/obj/midf.o
MPU_GetCANBaseAddress                             ./../../../build/tcc70xx/gcc/tcc70xx-freertos-debug/obj/mpu.o
                                                  ./../../../build/tcc70xx/gcc/tcc70xx-freertos-debug/obj/can_porting.o
MPU_GetDMABaseAddress                             ./../../../build/tcc70xx/gcc/tcc70xx-freertos-debug/obj/mpu.o
                                                  ./../../../build/tcc70xx/gcc/tcc70xx-freertos-debug/obj/uart.o
                                                  ./../../../build/tcc70xx/gcc/tcc70xx-freertos-debug/obj/eth.o
                                                  ./../../../build/tcc70xx/gcc/tcc70xx-freertos-debug/obj/eflash.o
                                                  ./../../../build/tcc70xx/gcc/tcc70xx-freertos-debug/obj/spi_eccp.o
                                                  ./../../../build/tcc70xx/gcc/tcc70xx-freertos-debug/obj/gpsb_test.o
                                                  ./../../../build/tcc70xx/gcc/tcc70xx-freertos-debug/obj/gdma_test.o
                                                  ./../../../build/tcc70xx/gcc/tcc70xx-freertos-debug/obj/audio_chip_veri.o
                                                  ./../../../build/tcc70xx/gcc/tcc70xx-freertos-debug/obj/audio_test.o
MPU_Init                                          ./../../../build/tcc70xx/gcc/tcc70xx-freertos-debug/obj/mpu.o
                                                  ./../../../build/tcc70xx/gcc/tcc70xx-freertos-debug/obj/startup.o
PDM_CfgSetWrLock                                  ./../../../build/tcc70xx/gcc/tcc70xx-freertos-debug/obj/pdm.o
PDM_CfgSetWrPw                                    ./../../../build/tcc70xx/gcc/tcc70xx-freertos-debug/obj/pdm.o
PDM_Deinit                                        ./../../../build/tcc70xx/gcc/tcc70xx-freertos-debug/obj/pdm.o
PDM_Disable                                       ./../../../build/tcc70xx/gcc/tcc70xx-freertos-debug/obj/pdm.o
                                                  ./../../../build/tcc70xx/gcc/tcc70xx-freertos-debug/obj/pdm_test.o
                                                  ./../../../build/tcc70xx/gcc/tcc70xx-freertos-debug/obj/ictc_test.o
PDM_DisableClock                                  ./../../../build/tcc70xx/gcc/tcc70xx-freertos-debug/obj/pdm.o
PDM_Enable                                        ./../../../build/tcc70xx/gcc/tcc70xx-freertos-debug/obj/pdm.o
                                                  ./../../../build/tcc70xx/gcc/tcc70xx-freertos-debug/obj/pdm_test.o
                                                  ./../../../build/tcc70xx/gcc/tcc70xx-freertos-debug/obj/ictc_test.o
PDM_EnableClock                                   ./../../../build/tcc70xx/gcc/tcc70xx-freertos-debug/obj/pdm.o
PDM_GetChannelStatus                              ./../../../build/tcc70xx/gcc/tcc70xx-freertos-debug/obj/pdm.o
                                                  ./../../../build/tcc70xx/gcc/tcc70xx-freertos-debug/obj/pdm_test.o
PDM_Init                                          ./../../../build/tcc70xx/gcc/tcc70xx-freertos-debug/obj/pdm.o
                                                  ./../../../build/tcc70xx/gcc/tcc70xx-freertos-debug/obj/pdm_test.o
                                                  ./../../../build/tcc70xx/gcc/tcc70xx-freertos-debug/obj/ictc_test.o
PDM_SelectTestCase                                ./../../../build/tcc70xx/gcc/tcc70xx-freertos-debug/obj/pdm_test.o
                                                  ./../../../build/tcc70xx/gcc/tcc70xx-freertos-debug/obj/console.o
PDM_SetConfig                                     ./../../../build/tcc70xx/gcc/tcc70xx-freertos-debug/obj/pdm.o
                                                  ./../../../build/tcc70xx/gcc/tcc70xx-freertos-debug/obj/pdm_test.o
                                                  ./../../../build/tcc70xx/gcc/tcc70xx-freertos-debug/obj/ictc_test.o
PHY_GetMasterSlave                                ./../../../build/tcc70xx/gcc/tcc70xx-freertos-debug/obj/eth_mii.o
PHY_Init                                          ./../../../build/tcc70xx/gcc/tcc70xx-freertos-debug/obj/eth_mii.o
                                                  ./../../../build/tcc70xx/gcc/tcc70xx-freertos-debug/obj/eth.o
PHY_InitLoopback                                  ./../../../build/tcc70xx/gcc/tcc70xx-freertos-debug/obj/eth_mii.o
                                                  ./../../../build/tcc70xx/gcc/tcc70xx-freertos-debug/obj/eth.o
PHY_Read                                          ./../../../build/tcc70xx/gcc/tcc70xx-freertos-debug/obj/eth_mii.o
PHY_ReadStatus                                    ./../../../build/tcc70xx/gcc/tcc70xx-freertos-debug/obj/eth_mii.o
                                                  ./../../../build/tcc70xx/gcc/tcc70xx-freertos-debug/obj/eth.o
PHY_SetMasterSlave                                ./../../../build/tcc70xx/gcc/tcc70xx-freertos-debug/obj/eth_mii.o
PHY_Write                                         ./../../../build/tcc70xx/gcc/tcc70xx-freertos-debug/obj/eth_mii.o
PMIO_DebugPrintPowerStatus                        ./../../../build/tcc70xx/gcc/tcc70xx-freertos-debug/obj/pmio_dev.o
                                                  ./../../../build/tcc70xx/gcc/tcc70xx-freertos-debug/obj/console.o
PMIO_EXTN_GetUsingGpk32                           ./../../../build/tcc70xx/gcc/tcc70xx-freertos-debug/obj/pmio_dev_extn_pw_ctl.o
PMIO_EXTN_Init                                    ./../../../build/tcc70xx/gcc/tcc70xx-freertos-debug/obj/pmio_dev_extn_pw_ctl.o
                                                  ./../../../build/tcc70xx/gcc/tcc70xx-freertos-debug/obj/power_app.o
PMIO_EXTN_SetPower                                ./../../../build/tcc70xx/gcc/tcc70xx-freertos-debug/obj/pmio_dev_extn_pw_ctl.o
                                                  ./../../../build/tcc70xx/gcc/tcc70xx-freertos-debug/obj/power_app.o
PMIO_EXTN_SetStr                                  ./../../../build/tcc70xx/gcc/tcc70xx-freertos-debug/obj/pmio_dev_extn_pw_ctl.o
                                                  ./../../../build/tcc70xx/gcc/tcc70xx-freertos-debug/obj/power_app.o
PMIO_EarlyWakeUp                                  ./../../../build/tcc70xx/gcc/tcc70xx-freertos-debug/obj/pmio_dev.o
                                                  ./../../../build/tcc70xx/gcc/tcc70xx-freertos-debug/obj/startup.o
PMIO_GetBootReason                                ./../../../build/tcc70xx/gcc/tcc70xx-freertos-debug/obj/pmio_dev.o
PMIO_Init                                         ./../../../build/tcc70xx/gcc/tcc70xx-freertos-debug/obj/pmio_dev.o
                                                  ./../../../build/tcc70xx/gcc/tcc70xx-freertos-debug/obj/bsp.o
PMIO_PowerDown                                    ./../../../build/tcc70xx/gcc/tcc70xx-freertos-debug/obj/pmio_dev.o
                                                  ./../../../build/tcc70xx/gcc/tcc70xx-freertos-debug/obj/power_app.o
PMIO_SetGpk                                       ./../../../build/tcc70xx/gcc/tcc70xx-freertos-debug/obj/pmio_dev.o
                                                  ./../../../build/tcc70xx/gcc/tcc70xx-freertos-debug/obj/pdm.o
                                                  ./../../../build/tcc70xx/gcc/tcc70xx-freertos-debug/obj/can_porting.o
                                                  ./../../../build/tcc70xx/gcc/tcc70xx-freertos-debug/obj/lin.o
                                                  ./../../../build/tcc70xx/gcc/tcc70xx-freertos-debug/obj/power_app.o
PMIO_SetNotiGpkIrq                                ./../../../build/tcc70xx/gcc/tcc70xx-freertos-debug/obj/pmio_dev.o
                                                  ./../../../build/tcc70xx/gcc/tcc70xx-freertos-debug/obj/power_app.o
PMU_ClearPvtError                                 ./../../../build/tcc70xx/gcc/tcc70xx-freertos-debug/obj/pmu.o
                                                  ./../../../build/tcc70xx/gcc/tcc70xx-freertos-debug/obj/pmu_test.o
PMU_ColdReset                                     ./../../../build/tcc70xx/gcc/tcc70xx-freertos-debug/obj/pmu.o
                                                  ./../../../build/tcc70xx/gcc/tcc70xx-freertos-debug/obj/pmu_test.o
                                                  ./../../../build/tcc70xx/gcc/tcc70xx-freertos-debug/obj/console.o
PMU_DisableResetMonitor                           ./../../../build/tcc70xx/gcc/tcc70xx-freertos-debug/obj/pmu.o
                                                  ./../../../build/tcc70xx/gcc/tcc70xx-freertos-debug/obj/pmu_test.o
PMU_EnableResetMonitor                            ./../../../build/tcc70xx/gcc/tcc70xx-freertos-debug/obj/pmu.o
                                                  ./../../../build/tcc70xx/gcc/tcc70xx-freertos-debug/obj/wdt_pmu.o
                                                  ./../../../build/tcc70xx/gcc/tcc70xx-freertos-debug/obj/wdt.o
                                                  ./../../../build/tcc70xx/gcc/tcc70xx-freertos-debug/obj/pmu_test.o
PMU_GetResetOccur                                 ./../../../build/tcc70xx/gcc/tcc70xx-freertos-debug/obj/pmu.o
                                                  ./../../../build/tcc70xx/gcc/tcc70xx-freertos-debug/obj/pmu_test.o
PMU_Init                                          ./../../../build/tcc70xx/gcc/tcc70xx-freertos-debug/obj/pmu.o
                                                  ./../../../build/tcc70xx/gcc/tcc70xx-freertos-debug/obj/bsp.o
PMU_TEST_FmuMonitoringTest                        ./../../../build/tcc70xx/gcc/tcc70xx-freertos-debug/obj/pmu_test.o
                                                  ./../../../build/tcc70xx/gcc/tcc70xx-freertos-debug/obj/console.o
PMU_TEST_GetRstStatus                             ./../../../build/tcc70xx/gcc/tcc70xx-freertos-debug/obj/pmu_test.o
                                                  ./../../../build/tcc70xx/gcc/tcc70xx-freertos-debug/obj/console.o
PMU_TEST_RstMonitoringTest                        ./../../../build/tcc70xx/gcc/tcc70xx-freertos-debug/obj/pmu_test.o
                                                  ./../../../build/tcc70xx/gcc/tcc70xx-freertos-debug/obj/console.o
PMU_TEST_RstReqTest                               ./../../../build/tcc70xx/gcc/tcc70xx-freertos-debug/obj/pmu_test.o
                                                  ./../../../build/tcc70xx/gcc/tcc70xx-freertos-debug/obj/console.o
PMU_WarmReset                                     ./../../../build/tcc70xx/gcc/tcc70xx-freertos-debug/obj/pmu.o
                                                  ./../../../build/tcc70xx/gcc/tcc70xx-freertos-debug/obj/pmu_test.o
POWER_APP_StartDemo                               ./../../../build/tcc70xx/gcc/tcc70xx-freertos-debug/obj/power_app.o
                                                  ./../../../build/tcc70xx/gcc/tcc70xx-freertos-debug/obj/main.o
POWER_COM_HaltCh                                  ./../../../build/tcc70xx/gcc/tcc70xx-freertos-debug/obj/power_com.o
                                                  ./../../../build/tcc70xx/gcc/tcc70xx-freertos-debug/obj/power_app.o
POWER_COM_RecvMsg                                 ./../../../build/tcc70xx/gcc/tcc70xx-freertos-debug/obj/power_com.o
                                                  ./../../../build/tcc70xx/gcc/tcc70xx-freertos-debug/obj/power_app.o
POWER_COM_SendMsg                                 ./../../../build/tcc70xx/gcc/tcc70xx-freertos-debug/obj/power_com.o
                                                  ./../../../build/tcc70xx/gcc/tcc70xx-freertos-debug/obj/power_app.o
POWER_COM_Start                                   ./../../../build/tcc70xx/gcc/tcc70xx-freertos-debug/obj/power_com.o
                                                  ./../../../build/tcc70xx/gcc/tcc70xx-freertos-debug/obj/power_app.o
PRELOAD_JOB                                       ./../../../build/tcc70xx/gcc/tcc70xx-freertos-debug/obj/preload.o
                                                  ./../../../build/tcc70xx/gcc/tcc70xx-freertos-debug/obj/startup.o
PRELOAD_loadOnRam                                 ./../../../build/tcc70xx/gcc/tcc70xx-freertos-debug/obj/preload.o
                                                  ./../../../build/tcc70xx/gcc/tcc70xx-freertos-debug/obj/startup.o
RTC_ClearAlarm                                    ./../../../build/tcc70xx/gcc/tcc70xx-freertos-debug/obj/rtc_dev.o
                                                  ./../../../build/tcc70xx/gcc/tcc70xx-freertos-debug/obj/rtc_test.o
RTC_EnableAlarm                                   ./../../../build/tcc70xx/gcc/tcc70xx-freertos-debug/obj/rtc_dev.o
                                                  ./../../../build/tcc70xx/gcc/tcc70xx-freertos-debug/obj/rtc_test.o
RTC_GetTime                                       ./../../../build/tcc70xx/gcc/tcc70xx-freertos-debug/obj/rtc_dev.o
                                                  ./../../../build/tcc70xx/gcc/tcc70xx-freertos-debug/obj/rtc_test.o
RTC_Init                                          ./../../../build/tcc70xx/gcc/tcc70xx-freertos-debug/obj/rtc_dev.o
                                                  ./../../../build/tcc70xx/gcc/tcc70xx-freertos-debug/obj/bsp.o
                                                  ./../../../build/tcc70xx/gcc/tcc70xx-freertos-debug/obj/rtc_test.o
RTC_SetAlarm                                      ./../../../build/tcc70xx/gcc/tcc70xx-freertos-debug/obj/rtc_dev.o
                                                  ./../../../build/tcc70xx/gcc/tcc70xx-freertos-debug/obj/rtc_test.o
RTC_SetTime                                       ./../../../build/tcc70xx/gcc/tcc70xx-freertos-debug/obj/rtc_dev.o
                                                  ./../../../build/tcc70xx/gcc/tcc70xx-freertos-debug/obj/rtc_test.o
RTC_TEST_Alarm                                    ./../../../build/tcc70xx/gcc/tcc70xx-freertos-debug/obj/rtc_test.o
                                                  ./../../../build/tcc70xx/gcc/tcc70xx-freertos-debug/obj/console.o
RTC_TEST_Time                                     ./../../../build/tcc70xx/gcc/tcc70xx-freertos-debug/obj/rtc_test.o
                                                  ./../../../build/tcc70xx/gcc/tcc70xx-freertos-debug/obj/console.o
RemapMicomTest                                    ./../../../build/tcc70xx/gcc/tcc70xx-freertos-debug/obj/cpu_test.o
RxBufferFIFO0InfoPar                              ./../../../build/tcc70xx/gcc/tcc70xx-freertos-debug/obj/can_par.o
                                                  ./../../../build/tcc70xx/gcc/tcc70xx-freertos-debug/obj/can_drv.o
RxBufferFIFO1InfoPar                              ./../../../build/tcc70xx/gcc/tcc70xx-freertos-debug/obj/can_par.o
                                                  ./../../../build/tcc70xx/gcc/tcc70xx-freertos-debug/obj/can_drv.o
RxBufferInfoPar                                   ./../../../build/tcc70xx/gcc/tcc70xx-freertos-debug/obj/can_par.o
                                                  ./../../../build/tcc70xx/gcc/tcc70xx-freertos-debug/obj/can_drv.o
RxDesc                                            ./../../../build/tcc70xx/gcc/tcc70xx-freertos-debug/obj/eth.o
SAL_Init                                          ./../../../build/tcc70xx/gcc/tcc70xx-freertos-debug/obj/sal_freertos_impl.o
                                                  ./../../../build/tcc70xx/gcc/tcc70xx-freertos-debug/obj/main.o
SAL_RegisterFunction                              ./../../../build/tcc70xx/gcc/tcc70xx-freertos-debug/obj/sal_api.o
                                                  ./../../../build/tcc70xx/gcc/tcc70xx-freertos-debug/obj/sal_freertos_impl.o
SFMC_Test                                         ./../../../build/tcc70xx/gcc/tcc70xx-freertos-debug/obj/sfmc_test.o
                                                  ./../../../build/tcc70xx/gcc/tcc70xx-freertos-debug/obj/console.o
SIZE_OF_SAMPLE                                    ./../../../build/tcc70xx/gcc/tcc70xx-freertos-debug/obj/audio_test.o
                                                  ./../../../build/tcc70xx/gcc/tcc70xx-freertos-debug/obj/spu_test.o
SNOR_MIO_AutoRun                                  ./../../../build/tcc70xx/gcc/tcc70xx-freertos-debug/obj/snor_mio.o
                                                  ./../../../build/tcc70xx/gcc/tcc70xx-freertos-debug/obj/hsm_manager.o
                                                  ./../../../build/tcc70xx/gcc/tcc70xx-freertos-debug/obj/eflash_test.o
SNOR_MIO_Erase                                    ./../../../build/tcc70xx/gcc/tcc70xx-freertos-debug/obj/snor_mio.o
                                                  ./../../../build/tcc70xx/gcc/tcc70xx-freertos-debug/obj/eflash_test.o
SNOR_MIO_FWDN_LowFormat                           ./../../../build/tcc70xx/gcc/tcc70xx-freertos-debug/obj/snor_mio.o
                                                  ./../../../build/tcc70xx/gcc/tcc70xx-freertos-debug/obj/fwupdate.o
SNOR_MIO_FWDN_Read                                ./../../../build/tcc70xx/gcc/tcc70xx-freertos-debug/obj/snor_mio.o
                                                  ./../../../build/tcc70xx/gcc/tcc70xx-freertos-debug/obj/fwupdate.o
SNOR_MIO_FWDN_Write                               ./../../../build/tcc70xx/gcc/tcc70xx-freertos-debug/obj/snor_mio.o
                                                  ./../../../build/tcc70xx/gcc/tcc70xx-freertos-debug/obj/fwupdate.o
SNOR_MIO_Init                                     ./../../../build/tcc70xx/gcc/tcc70xx-freertos-debug/obj/snor_mio.o
                                                  ./../../../build/tcc70xx/gcc/tcc70xx-freertos-debug/obj/sfmc_test.o
                                                  ./../../../build/tcc70xx/gcc/tcc70xx-freertos-debug/obj/eflash_test.o
                                                  ./../../../build/tcc70xx/gcc/tcc70xx-freertos-debug/obj/fwupdate.o
SNOR_MIO_Read                                     ./../../../build/tcc70xx/gcc/tcc70xx-freertos-debug/obj/snor_mio.o
SNOR_MIO_Read_Fast                                ./../../../build/tcc70xx/gcc/tcc70xx-freertos-debug/obj/snor_mio.o
SNOR_MIO_Write                                    ./../../../build/tcc70xx/gcc/tcc70xx-freertos-debug/obj/snor_mio.o
                                                  ./../../../build/tcc70xx/gcc/tcc70xx-freertos-debug/obj/eflash_test.o
SOCKTEST_EchoRecv                                 ./../../../build/tcc70xx/gcc/tcc70xx-freertos-debug/obj/echo_test.o
SOCKTEST_EchoSend                                 ./../../../build/tcc70xx/gcc/tcc70xx-freertos-debug/obj/echo_test.o
SOCKTEST_IPInit                                   ./../../../build/tcc70xx/gcc/tcc70xx-freertos-debug/obj/echo_test.o
SPILED_CreateAppTask                              ./../../../build/tcc70xx/gcc/tcc70xx-freertos-debug/obj/spi_led.o
                                                  ./../../../build/tcc70xx/gcc/tcc70xx-freertos-debug/obj/main.o
SPILED_StatusOff                                  ./../../../build/tcc70xx/gcc/tcc70xx-freertos-debug/obj/spi_led.o
                                                  ./../../../build/tcc70xx/gcc/tcc70xx-freertos-debug/obj/console.o
SPILED_StatusOn                                   ./../../../build/tcc70xx/gcc/tcc70xx-freertos-debug/obj/spi_led.o
                                                  ./../../../build/tcc70xx/gcc/tcc70xx-freertos-debug/obj/console.o
SPU_DeInit                                        ./../../../build/tcc70xx/gcc/tcc70xx-freertos-debug/obj/spu.o
                                                  ./../../../build/tcc70xx/gcc/tcc70xx-freertos-debug/obj/spu_test.o
SPU_Get_STS                                       ./../../../build/tcc70xx/gcc/tcc70xx-freertos-debug/obj/spu.o
                                                  ./../../../build/tcc70xx/gcc/tcc70xx-freertos-debug/obj/spu_test.o
SPU_Init                                          ./../../../build/tcc70xx/gcc/tcc70xx-freertos-debug/obj/spu.o
                                                  ./../../../build/tcc70xx/gcc/tcc70xx-freertos-debug/obj/spu_test.o
SPU_SelectTestCase                                ./../../../build/tcc70xx/gcc/tcc70xx-freertos-debug/obj/spu_test.o
                                                  ./../../../build/tcc70xx/gcc/tcc70xx-freertos-debug/obj/console.o
SPU_Set_Channel_Mute                              ./../../../build/tcc70xx/gcc/tcc70xx-freertos-debug/obj/spu.o
SPU_Set_Volume_Controller                         ./../../../build/tcc70xx/gcc/tcc70xx-freertos-debug/obj/spu.o
SPU_Start_SSL_Chain                               ./../../../build/tcc70xx/gcc/tcc70xx-freertos-debug/obj/spu.o
                                                  ./../../../build/tcc70xx/gcc/tcc70xx-freertos-debug/obj/spu_test.o
SPU_Start_WG_Chain                                ./../../../build/tcc70xx/gcc/tcc70xx-freertos-debug/obj/spu.o
                                                  ./../../../build/tcc70xx/gcc/tcc70xx-freertos-debug/obj/spu_test.o
SPU_Stop_SSL_Chain                                ./../../../build/tcc70xx/gcc/tcc70xx-freertos-debug/obj/spu.o
                                                  ./../../../build/tcc70xx/gcc/tcc70xx-freertos-debug/obj/spu_test.o
SPU_Stop_WG_Chain                                 ./../../../build/tcc70xx/gcc/tcc70xx-freertos-debug/obj/spu.o
                                                  ./../../../build/tcc70xx/gcc/tcc70xx-freertos-debug/obj/spu_test.o
SPU_Test_SSL_With_Key                             ./../../../build/tcc70xx/gcc/tcc70xx-freertos-debug/obj/spu_test.o
SSLConigTable                                     ./../../../build/tcc70xx/gcc/tcc70xx-freertos-debug/obj/spu_test.o
SSM_EccDisable                                    ./../../../build/tcc70xx/gcc/tcc70xx-freertos-debug/obj/ssm.o
SSM_EccEnable                                     ./../../../build/tcc70xx/gcc/tcc70xx-freertos-debug/obj/ssm.o
                                                  ./../../../build/tcc70xx/gcc/tcc70xx-freertos-debug/obj/console.o
SSM_SoftFaultCheckEnable                          ./../../../build/tcc70xx/gcc/tcc70xx-freertos-debug/obj/ssm.o
SSM_SoftFautlCheckDisable                         ./../../../build/tcc70xx/gcc/tcc70xx-freertos-debug/obj/ssm.o
STACK_BASE_ADDR                                   ./../../../build/tcc70xx/gcc/tcc70xx-freertos-debug/obj/startup.o
SWL_Init                                          ./../../../build/tcc70xx/gcc/tcc70xx-freertos-debug/obj/swl.o
SWL_Write                                         ./../../../build/tcc70xx/gcc/tcc70xx-freertos-debug/obj/swl.o
StandardIDFilterPar                               ./../../../build/tcc70xx/gcc/tcc70xx-freertos-debug/obj/can_par.o
                                                  ./../../../build/tcc70xx/gcc/tcc70xx-freertos-debug/obj/can_drv.o
TIMER_Disable                                     ./../../../build/tcc70xx/gcc/tcc70xx-freertos-debug/obj/timer.o
                                                  ./../../../build/tcc70xx/gcc/tcc70xx-freertos-debug/obj/power_com.o
                                                  ./../../../build/tcc70xx/gcc/tcc70xx-freertos-debug/obj/timer_test.o
TIMER_Enable                                      ./../../../build/tcc70xx/gcc/tcc70xx-freertos-debug/obj/timer.o
                                                  ./../../../build/tcc70xx/gcc/tcc70xx-freertos-debug/obj/port.o
                                                  ./../../../build/tcc70xx/gcc/tcc70xx-freertos-debug/obj/power_com.o
                                                  ./../../../build/tcc70xx/gcc/tcc70xx-freertos-debug/obj/wdt_test.o
TIMER_EnableWithCfg                               ./../../../build/tcc70xx/gcc/tcc70xx-freertos-debug/obj/timer.o
                                                  ./../../../build/tcc70xx/gcc/tcc70xx-freertos-debug/obj/timer_test.o
TIMER_EnableWithMode                              ./../../../build/tcc70xx/gcc/tcc70xx-freertos-debug/obj/timer.o
                                                  ./../../../build/tcc70xx/gcc/tcc70xx-freertos-debug/obj/wdt_test.o
                                                  ./../../../build/tcc70xx/gcc/tcc70xx-freertos-debug/obj/timer_test.o
TIMER_Init                                        ./../../../build/tcc70xx/gcc/tcc70xx-freertos-debug/obj/timer.o
                                                  ./../../../build/tcc70xx/gcc/tcc70xx-freertos-debug/obj/bsp.o
TIMER_InterruptClear                              ./../../../build/tcc70xx/gcc/tcc70xx-freertos-debug/obj/timer.o
                                                  ./../../../build/tcc70xx/gcc/tcc70xx-freertos-debug/obj/port.o
TIMER_StartTimerTest                              ./../../../build/tcc70xx/gcc/tcc70xx-freertos-debug/obj/timer_test.o
                                                  ./../../../build/tcc70xx/gcc/tcc70xx-freertos-debug/obj/console.o
Test_WriteProtection                              ./../../../build/tcc70xx/gcc/tcc70xx-freertos-debug/obj/writelock_test.o
TxBufferInfoPar                                   ./../../../build/tcc70xx/gcc/tcc70xx-freertos-debug/obj/can_par.o
                                                  ./../../../build/tcc70xx/gcc/tcc70xx-freertos-debug/obj/can_drv.o
UART_Close                                        ./../../../build/tcc70xx/gcc/tcc70xx-freertos-debug/obj/uart.o
                                                  ./../../../build/tcc70xx/gcc/tcc70xx-freertos-debug/obj/uart_test.o
UART_ConsoleTxTest                                ./../../../build/tcc70xx/gcc/tcc70xx-freertos-debug/obj/uart_test.o
                                                  ./../../../build/tcc70xx/gcc/tcc70xx-freertos-debug/obj/console.o
UART_GetChar                                      ./../../../build/tcc70xx/gcc/tcc70xx-freertos-debug/obj/uart.o
                                                  ./../../../build/tcc70xx/gcc/tcc70xx-freertos-debug/obj/uart_test.o
                                                  ./../../../build/tcc70xx/gcc/tcc70xx-freertos-debug/obj/fwupdate.o
                                                  ./../../../build/tcc70xx/gcc/tcc70xx-freertos-debug/obj/console.o
UART_GetData                                      ./../../../build/tcc70xx/gcc/tcc70xx-freertos-debug/obj/uart.o
                                                  ./../../../build/tcc70xx/gcc/tcc70xx-freertos-debug/obj/lin.o
                                                  ./../../../build/tcc70xx/gcc/tcc70xx-freertos-debug/obj/fwupdate.o
UART_GetRawInterruptStatusReg                     ./../../../build/tcc70xx/gcc/tcc70xx-freertos-debug/obj/uart.o
UART_GetReceiveStatusReg                          ./../../../build/tcc70xx/gcc/tcc70xx-freertos-debug/obj/uart.o
UART_ISR                                          ./../../../build/tcc70xx/gcc/tcc70xx-freertos-debug/obj/uart.o
                                                  ./../../../build/tcc70xx/gcc/tcc70xx-freertos-debug/obj/lin.o
                                                  ./../../../build/tcc70xx/gcc/tcc70xx-freertos-debug/obj/uart_test.o
UART_Init                                         ./../../../build/tcc70xx/gcc/tcc70xx-freertos-debug/obj/uart.o
                                                  ./../../../build/tcc70xx/gcc/tcc70xx-freertos-debug/obj/bsp.o
UART_Open                                         ./../../../build/tcc70xx/gcc/tcc70xx-freertos-debug/obj/uart.o
                                                  ./../../../build/tcc70xx/gcc/tcc70xx-freertos-debug/obj/lin.o
                                                  ./../../../build/tcc70xx/gcc/tcc70xx-freertos-debug/obj/uart_test.o
                                                  ./../../../build/tcc70xx/gcc/tcc70xx-freertos-debug/obj/fwupdate.o
UART_PutChar                                      ./../../../build/tcc70xx/gcc/tcc70xx-freertos-debug/obj/uart.o
                                                  ./../../../build/tcc70xx/gcc/tcc70xx-freertos-debug/obj/debug.o
                                                  ./../../../build/tcc70xx/gcc/tcc70xx-freertos-debug/obj/uart_test.o
                                                  ./../../../build/tcc70xx/gcc/tcc70xx-freertos-debug/obj/lin_test.o
UART_Read                                         ./../../../build/tcc70xx/gcc/tcc70xx-freertos-debug/obj/uart.o
                                                  ./../../../build/tcc70xx/gcc/tcc70xx-freertos-debug/obj/lin.o
                                                  ./../../../build/tcc70xx/gcc/tcc70xx-freertos-debug/obj/uart_test.o
UART_SelectTestCase                               ./../../../build/tcc70xx/gcc/tcc70xx-freertos-debug/obj/uart_test.o
UART_SetErrorClearReg                             ./../../../build/tcc70xx/gcc/tcc70xx-freertos-debug/obj/uart.o
UART_SetInterruptClearReg                         ./../../../build/tcc70xx/gcc/tcc70xx-freertos-debug/obj/uart.o
UART_SetLineControlReg                            ./../../../build/tcc70xx/gcc/tcc70xx-freertos-debug/obj/uart.o
                                                  ./../../../build/tcc70xx/gcc/tcc70xx-freertos-debug/obj/lin.o
UART_Write                                        ./../../../build/tcc70xx/gcc/tcc70xx-freertos-debug/obj/uart.o
                                                  ./../../../build/tcc70xx/gcc/tcc70xx-freertos-debug/obj/lin.o
                                                  ./../../../build/tcc70xx/gcc/tcc70xx-freertos-debug/obj/uart_test.o
                                                  ./../../../build/tcc70xx/gcc/tcc70xx-freertos-debug/obj/fwupdate.o
                                                  ./../../../build/tcc70xx/gcc/tcc70xx-freertos-debug/obj/console.o
WDTPMU_Init                                       ./../../../build/tcc70xx/gcc/tcc70xx-freertos-debug/obj/wdt_pmu.o
                                                  ./../../../build/tcc70xx/gcc/tcc70xx-freertos-debug/obj/wdt_test.o
WDTPMU_KickPing                                   ./../../../build/tcc70xx/gcc/tcc70xx-freertos-debug/obj/wdt_pmu.o
                                                  ./../../../build/tcc70xx/gcc/tcc70xx-freertos-debug/obj/wdt_test.o
WDTPMU_ResetSystem                                ./../../../build/tcc70xx/gcc/tcc70xx-freertos-debug/obj/wdt_pmu.o
                                                  ./../../../build/tcc70xx/gcc/tcc70xx-freertos-debug/obj/wdt_test.o
WDTPMU_SmMode                                     ./../../../build/tcc70xx/gcc/tcc70xx-freertos-debug/obj/wdt_pmu.o
                                                  ./../../../build/tcc70xx/gcc/tcc70xx-freertos-debug/obj/wdt_test.o
WDTPMU_Stop                                       ./../../../build/tcc70xx/gcc/tcc70xx-freertos-debug/obj/wdt_pmu.o
                                                  ./../../../build/tcc70xx/gcc/tcc70xx-freertos-debug/obj/wdt_test.o
WDT_Init                                          ./../../../build/tcc70xx/gcc/tcc70xx-freertos-debug/obj/wdt.o
                                                  ./../../../build/tcc70xx/gcc/tcc70xx-freertos-debug/obj/wdt_test.o
                                                  ./../../../build/tcc70xx/gcc/tcc70xx-freertos-debug/obj/cpu_test.o
WDT_KickPing                                      ./../../../build/tcc70xx/gcc/tcc70xx-freertos-debug/obj/wdt.o
                                                  ./../../../build/tcc70xx/gcc/tcc70xx-freertos-debug/obj/wdt_test.o
                                                  ./../../../build/tcc70xx/gcc/tcc70xx-freertos-debug/obj/timer_test.o
WDT_ResetSystem                                   ./../../../build/tcc70xx/gcc/tcc70xx-freertos-debug/obj/wdt.o
                                                  ./../../../build/tcc70xx/gcc/tcc70xx-freertos-debug/obj/wdt_test.o
WDT_SmMode                                        ./../../../build/tcc70xx/gcc/tcc70xx-freertos-debug/obj/wdt.o
                                                  ./../../../build/tcc70xx/gcc/tcc70xx-freertos-debug/obj/wdt_test.o
                                                  ./../../../build/tcc70xx/gcc/tcc70xx-freertos-debug/obj/timer_test.o
WDT_StartTest                                     ./../../../build/tcc70xx/gcc/tcc70xx-freertos-debug/obj/wdt_test.o
                                                  ./../../../build/tcc70xx/gcc/tcc70xx-freertos-debug/obj/console.o
WDT_Stop                                          ./../../../build/tcc70xx/gcc/tcc70xx-freertos-debug/obj/wdt.o
                                                  ./../../../build/tcc70xx/gcc/tcc70xx-freertos-debug/obj/wdt_test.o
                                                  ./../../../build/tcc70xx/gcc/tcc70xx-freertos-debug/obj/timer_test.o
                                                  ./../../../build/tcc70xx/gcc/tcc70xx-freertos-debug/obj/fwupdate.o
WM8904_Initial                                    ./../../../build/tcc70xx/gcc/tcc70xx-freertos-debug/obj/wm8904.o
                                                  ./../../../build/tcc70xx/gcc/tcc70xx-freertos-debug/obj/spu_test.o
                                                  ./../../../build/tcc70xx/gcc/tcc70xx-freertos-debug/obj/audio_test.o
WM8904_ReadCmd                                    ./../../../build/tcc70xx/gcc/tcc70xx-freertos-debug/obj/wm8904.o
WM8904_SendCmd                                    ./../../../build/tcc70xx/gcc/tcc70xx-freertos-debug/obj/wm8904.o
WM8904_SetVolume                                  ./../../../build/tcc70xx/gcc/tcc70xx-freertos-debug/obj/wm8904.o
                                                  ./../../../build/tcc70xx/gcc/tcc70xx-freertos-debug/obj/spu_test.o
                                                  ./../../../build/tcc70xx/gcc/tcc70xx-freertos-debug/obj/audio_test.o
_Balloc                                           /opt/gcc-linaro-7.2.1-2017.11-x86_64_arm-eabi/arm-eabi/libc/usr/lib/libc.a(lib_a-mprec.o)
                                                  /opt/gcc-linaro-7.2.1-2017.11-x86_64_arm-eabi/arm-eabi/libc/usr/lib/libc.a(lib_a-gdtoa-gethex.o)
                                                  /opt/gcc-linaro-7.2.1-2017.11-x86_64_arm-eabi/arm-eabi/libc/usr/lib/libc.a(lib_a-strtod.o)
                                                  /opt/gcc-linaro-7.2.1-2017.11-x86_64_arm-eabi/arm-eabi/libc/usr/lib/libc.a(lib_a-dtoa.o)
_Bfree                                            /opt/gcc-linaro-7.2.1-2017.11-x86_64_arm-eabi/arm-eabi/libc/usr/lib/libc.a(lib_a-mprec.o)
                                                  /opt/gcc-linaro-7.2.1-2017.11-x86_64_arm-eabi/arm-eabi/libc/usr/lib/libc.a(lib_a-gdtoa-gethex.o)
                                                  /opt/gcc-linaro-7.2.1-2017.11-x86_64_arm-eabi/arm-eabi/libc/usr/lib/libc.a(lib_a-strtod.o)
                                                  /opt/gcc-linaro-7.2.1-2017.11-x86_64_arm-eabi/arm-eabi/libc/usr/lib/libc.a(lib_a-dtoa.o)
_PathLocale                                       /opt/gcc-linaro-7.2.1-2017.11-x86_64_arm-eabi/arm-eabi/libc/usr/lib/libc.a(lib_a-locale.o)
__BSS_END__                                       ./../../../build/tcc70xx/gcc/tcc70xx-freertos-debug/obj/startup.o
__BSS_START__                                     ./../../../build/tcc70xx/gcc/tcc70xx-freertos-debug/obj/startup.o
__C_locale                                        /opt/gcc-linaro-7.2.1-2017.11-x86_64_arm-eabi/arm-eabi/libc/usr/lib/libc.a(lib_a-locale.o)
__DATA_END__                                      ./../../../build/tcc70xx/gcc/tcc70xx-freertos-debug/obj/startup.o
__DATA_START_LOAD                                 ./../../../build/tcc70xx/gcc/tcc70xx-freertos-debug/obj/startup.o
__DATA_START__                                    ./../../../build/tcc70xx/gcc/tcc70xx-freertos-debug/obj/startup.o
__PRECODE_RAM_START__                             ./../../../build/tcc70xx/gcc/tcc70xx-freertos-debug/obj/preload.o
__PRECODE_SIZE__                                  ./../../../build/tcc70xx/gcc/tcc70xx-freertos-debug/obj/preload.o
__PRECODE_START_LOAD                              ./../../../build/tcc70xx/gcc/tcc70xx-freertos-debug/obj/preload.o
__RODATA_END__                                    ./../../../build/tcc70xx/gcc/tcc70xx-freertos-debug/obj/startup.o
__TEXT_START__                                    ./../../../build/tcc70xx/gcc/tcc70xx-freertos-debug/obj/startup.o
__VECTOR_END__                                    ./../../../build/tcc70xx/gcc/tcc70xx-freertos-debug/obj/startup.o
__VECTOR_START_LOAD                               ./../../../build/tcc70xx/gcc/tcc70xx-freertos-debug/obj/startup.o
__VECTOR_START__                                  ./../../../build/tcc70xx/gcc/tcc70xx-freertos-debug/obj/startup.o
__action_table                                    /opt/gcc-linaro-7.2.1-2017.11-x86_64_arm-eabi/arm-eabi/libc/usr/lib/libc.a(lib_a-svfiprintf.o)
                                                  /opt/gcc-linaro-7.2.1-2017.11-x86_64_arm-eabi/arm-eabi/libc/usr/lib/libc.a(lib_a-svfprintf.o)
__adddf3                                          /opt/gcc-linaro-7.2.1-2017.11-x86_64_arm-eabi/arm-eabi/libc/usr/lib/libgcc.a(_arm_addsubdf3.o)
__aeabi_cdcmpeq                                   /opt/gcc-linaro-7.2.1-2017.11-x86_64_arm-eabi/arm-eabi/libc/usr/lib/libgcc.a(_arm_cmpdf2.o)
__aeabi_cdcmple                                   /opt/gcc-linaro-7.2.1-2017.11-x86_64_arm-eabi/arm-eabi/libc/usr/lib/libgcc.a(_arm_cmpdf2.o)
__aeabi_cdrcmple                                  /opt/gcc-linaro-7.2.1-2017.11-x86_64_arm-eabi/arm-eabi/libc/usr/lib/libgcc.a(_arm_cmpdf2.o)
__aeabi_cfcmpeq                                   /opt/gcc-linaro-7.2.1-2017.11-x86_64_arm-eabi/arm-eabi/libc/usr/lib/libgcc.a(_arm_cmpsf2.o)
__aeabi_cfcmple                                   /opt/gcc-linaro-7.2.1-2017.11-x86_64_arm-eabi/arm-eabi/libc/usr/lib/libgcc.a(_arm_cmpsf2.o)
__aeabi_cfrcmple                                  /opt/gcc-linaro-7.2.1-2017.11-x86_64_arm-eabi/arm-eabi/libc/usr/lib/libgcc.a(_arm_cmpsf2.o)
__aeabi_d2f                                       /opt/gcc-linaro-7.2.1-2017.11-x86_64_arm-eabi/arm-eabi/libc/usr/lib/libgcc.a(_arm_truncdfsf2.o)
                                                  /opt/gcc-linaro-7.2.1-2017.11-x86_64_arm-eabi/arm-eabi/libc/usr/lib/libc.a(lib_a-strtod.o)
                                                  /opt/gcc-linaro-7.2.1-2017.11-x86_64_arm-eabi/arm-eabi/libc/usr/lib/libc.a(lib_a-svfscanf.o)
__aeabi_d2iz                                      /opt/gcc-linaro-7.2.1-2017.11-x86_64_arm-eabi/arm-eabi/libc/usr/lib/libgcc.a(_arm_fixdfsi.o)
                                                  /opt/gcc-linaro-7.2.1-2017.11-x86_64_arm-eabi/arm-eabi/libc/usr/lib/libc.a(lib_a-strtod.o)
                                                  /opt/gcc-linaro-7.2.1-2017.11-x86_64_arm-eabi/arm-eabi/libc/usr/lib/libc.a(lib_a-dtoa.o)
                                                  /opt/gcc-linaro-7.2.1-2017.11-x86_64_arm-eabi/arm-eabi/libc/usr/lib/libc.a(lib_a-svfprintf.o)
__aeabi_d2uiz                                     /opt/gcc-linaro-7.2.1-2017.11-x86_64_arm-eabi/arm-eabi/libc/usr/lib/libgcc.a(_arm_fixunsdfsi.o)
                                                  /opt/gcc-linaro-7.2.1-2017.11-x86_64_arm-eabi/arm-eabi/libc/usr/lib/libc.a(lib_a-strtod.o)
__aeabi_dadd                                      /opt/gcc-linaro-7.2.1-2017.11-x86_64_arm-eabi/arm-eabi/libc/usr/lib/libgcc.a(_arm_addsubdf3.o)
                                                  /opt/gcc-linaro-7.2.1-2017.11-x86_64_arm-eabi/arm-eabi/libc/usr/lib/libc.a(lib_a-strtod.o)
                                                  /opt/gcc-linaro-7.2.1-2017.11-x86_64_arm-eabi/arm-eabi/libc/usr/lib/libc.a(lib_a-dtoa.o)
__aeabi_dcmpeq                                    /opt/gcc-linaro-7.2.1-2017.11-x86_64_arm-eabi/arm-eabi/libc/usr/lib/libgcc.a(_arm_cmpdf2.o)
                                                  /opt/gcc-linaro-7.2.1-2017.11-x86_64_arm-eabi/arm-eabi/libc/usr/lib/libc.a(lib_a-strtod.o)
                                                  /opt/gcc-linaro-7.2.1-2017.11-x86_64_arm-eabi/arm-eabi/libc/usr/lib/libc.a(lib_a-dtoa.o)
                                                  /opt/gcc-linaro-7.2.1-2017.11-x86_64_arm-eabi/arm-eabi/libc/usr/lib/libc.a(lib_a-svfprintf.o)
__aeabi_dcmpge                                    /opt/gcc-linaro-7.2.1-2017.11-x86_64_arm-eabi/arm-eabi/libc/usr/lib/libgcc.a(_arm_cmpdf2.o)
                                                  /opt/gcc-linaro-7.2.1-2017.11-x86_64_arm-eabi/arm-eabi/libc/usr/lib/libc.a(lib_a-dtoa.o)
__aeabi_dcmpgt                                    /opt/gcc-linaro-7.2.1-2017.11-x86_64_arm-eabi/arm-eabi/libc/usr/lib/libgcc.a(_arm_cmpdf2.o)
                                                  /opt/gcc-linaro-7.2.1-2017.11-x86_64_arm-eabi/arm-eabi/libc/usr/lib/libc.a(lib_a-strtod.o)
                                                  /opt/gcc-linaro-7.2.1-2017.11-x86_64_arm-eabi/arm-eabi/libc/usr/lib/libc.a(lib_a-dtoa.o)
                                                  /opt/gcc-linaro-7.2.1-2017.11-x86_64_arm-eabi/arm-eabi/libc/usr/lib/libc.a(lib_a-svfprintf.o)
__aeabi_dcmple                                    /opt/gcc-linaro-7.2.1-2017.11-x86_64_arm-eabi/arm-eabi/libc/usr/lib/libgcc.a(_arm_cmpdf2.o)
                                                  /opt/gcc-linaro-7.2.1-2017.11-x86_64_arm-eabi/arm-eabi/libc/usr/lib/libc.a(lib_a-strtod.o)
                                                  /opt/gcc-linaro-7.2.1-2017.11-x86_64_arm-eabi/arm-eabi/libc/usr/lib/libc.a(lib_a-svfprintf.o)
__aeabi_dcmplt                                    /opt/gcc-linaro-7.2.1-2017.11-x86_64_arm-eabi/arm-eabi/libc/usr/lib/libgcc.a(_arm_cmpdf2.o)
                                                  /opt/gcc-linaro-7.2.1-2017.11-x86_64_arm-eabi/arm-eabi/libc/usr/lib/libc.a(lib_a-strtod.o)
                                                  /opt/gcc-linaro-7.2.1-2017.11-x86_64_arm-eabi/arm-eabi/libc/usr/lib/libc.a(lib_a-dtoa.o)
                                                  /opt/gcc-linaro-7.2.1-2017.11-x86_64_arm-eabi/arm-eabi/libc/usr/lib/libc.a(lib_a-svfprintf.o)
__aeabi_dcmpun                                    /opt/gcc-linaro-7.2.1-2017.11-x86_64_arm-eabi/arm-eabi/libc/usr/lib/libgcc.a(_arm_unorddf2.o)
                                                  /opt/gcc-linaro-7.2.1-2017.11-x86_64_arm-eabi/arm-eabi/libc/usr/lib/libc.a(lib_a-strtod.o)
                                                  /opt/gcc-linaro-7.2.1-2017.11-x86_64_arm-eabi/arm-eabi/libc/usr/lib/libc.a(lib_a-svfscanf.o)
                                                  /opt/gcc-linaro-7.2.1-2017.11-x86_64_arm-eabi/arm-eabi/libc/usr/lib/libc.a(lib_a-svfprintf.o)
__aeabi_ddiv                                      /opt/gcc-linaro-7.2.1-2017.11-x86_64_arm-eabi/arm-eabi/libc/usr/lib/libgcc.a(_arm_muldivdf3.o)
                                                  /opt/gcc-linaro-7.2.1-2017.11-x86_64_arm-eabi/arm-eabi/libc/usr/lib/libc.a(lib_a-strtod.o)
                                                  /opt/gcc-linaro-7.2.1-2017.11-x86_64_arm-eabi/arm-eabi/libc/usr/lib/libc.a(lib_a-mprec.o)
                                                  /opt/gcc-linaro-7.2.1-2017.11-x86_64_arm-eabi/arm-eabi/libc/usr/lib/libc.a(lib_a-dtoa.o)
__aeabi_dmul                                      /opt/gcc-linaro-7.2.1-2017.11-x86_64_arm-eabi/arm-eabi/libc/usr/lib/libgcc.a(_arm_muldivdf3.o)
                                                  /opt/gcc-linaro-7.2.1-2017.11-x86_64_arm-eabi/arm-eabi/libc/usr/lib/libc.a(lib_a-strtod.o)
                                                  /opt/gcc-linaro-7.2.1-2017.11-x86_64_arm-eabi/arm-eabi/libc/usr/lib/libc.a(lib_a-s_frexp.o)
                                                  /opt/gcc-linaro-7.2.1-2017.11-x86_64_arm-eabi/arm-eabi/libc/usr/lib/libc.a(lib_a-mprec.o)
                                                  /opt/gcc-linaro-7.2.1-2017.11-x86_64_arm-eabi/arm-eabi/libc/usr/lib/libc.a(lib_a-dtoa.o)
                                                  /opt/gcc-linaro-7.2.1-2017.11-x86_64_arm-eabi/arm-eabi/libc/usr/lib/libc.a(lib_a-svfprintf.o)
__aeabi_drsub                                     /opt/gcc-linaro-7.2.1-2017.11-x86_64_arm-eabi/arm-eabi/libc/usr/lib/libgcc.a(_arm_addsubdf3.o)
__aeabi_dsub                                      /opt/gcc-linaro-7.2.1-2017.11-x86_64_arm-eabi/arm-eabi/libc/usr/lib/libgcc.a(_arm_addsubdf3.o)
                                                  /opt/gcc-linaro-7.2.1-2017.11-x86_64_arm-eabi/arm-eabi/libc/usr/lib/libc.a(lib_a-strtod.o)
                                                  /opt/gcc-linaro-7.2.1-2017.11-x86_64_arm-eabi/arm-eabi/libc/usr/lib/libc.a(lib_a-dtoa.o)
                                                  /opt/gcc-linaro-7.2.1-2017.11-x86_64_arm-eabi/arm-eabi/libc/usr/lib/libc.a(lib_a-svfprintf.o)
__aeabi_f2d                                       /opt/gcc-linaro-7.2.1-2017.11-x86_64_arm-eabi/arm-eabi/libc/usr/lib/libgcc.a(_arm_addsubdf3.o)
__aeabi_fcmpeq                                    /opt/gcc-linaro-7.2.1-2017.11-x86_64_arm-eabi/arm-eabi/libc/usr/lib/libgcc.a(_arm_cmpsf2.o)
__aeabi_fcmpge                                    /opt/gcc-linaro-7.2.1-2017.11-x86_64_arm-eabi/arm-eabi/libc/usr/lib/libgcc.a(_arm_cmpsf2.o)
__aeabi_fcmpgt                                    /opt/gcc-linaro-7.2.1-2017.11-x86_64_arm-eabi/arm-eabi/libc/usr/lib/libgcc.a(_arm_cmpsf2.o)
__aeabi_fcmple                                    /opt/gcc-linaro-7.2.1-2017.11-x86_64_arm-eabi/arm-eabi/libc/usr/lib/libgcc.a(_arm_cmpsf2.o)
                                                  /opt/gcc-linaro-7.2.1-2017.11-x86_64_arm-eabi/arm-eabi/libc/usr/lib/libc.a(lib_a-strtod.o)
__aeabi_fcmplt                                    /opt/gcc-linaro-7.2.1-2017.11-x86_64_arm-eabi/arm-eabi/libc/usr/lib/libgcc.a(_arm_cmpsf2.o)
__aeabi_fcmpun                                    /opt/gcc-linaro-7.2.1-2017.11-x86_64_arm-eabi/arm-eabi/libc/usr/lib/libgcc.a(_arm_unordsf2.o)
                                                  /opt/gcc-linaro-7.2.1-2017.11-x86_64_arm-eabi/arm-eabi/libc/usr/lib/libc.a(lib_a-strtod.o)
__aeabi_i2d                                       /opt/gcc-linaro-7.2.1-2017.11-x86_64_arm-eabi/arm-eabi/libc/usr/lib/libgcc.a(_arm_addsubdf3.o)
                                                  /opt/gcc-linaro-7.2.1-2017.11-x86_64_arm-eabi/arm-eabi/libc/usr/lib/libc.a(lib_a-strtod.o)
                                                  /opt/gcc-linaro-7.2.1-2017.11-x86_64_arm-eabi/arm-eabi/libc/usr/lib/libc.a(lib_a-dtoa.o)
                                                  /opt/gcc-linaro-7.2.1-2017.11-x86_64_arm-eabi/arm-eabi/libc/usr/lib/libc.a(lib_a-svfprintf.o)
__aeabi_idiv0                                     /opt/gcc-linaro-7.2.1-2017.11-x86_64_arm-eabi/arm-eabi/libc/usr/lib/libgcc.a(_dvmd_tls.o)
                                                  /opt/gcc-linaro-7.2.1-2017.11-x86_64_arm-eabi/arm-eabi/libc/usr/lib/libgcc.a(_udivsi3.o)
__aeabi_l2d                                       /opt/gcc-linaro-7.2.1-2017.11-x86_64_arm-eabi/arm-eabi/libc/usr/lib/libgcc.a(_arm_addsubdf3.o)
__aeabi_ldiv0                                     /opt/gcc-linaro-7.2.1-2017.11-x86_64_arm-eabi/arm-eabi/libc/usr/lib/libgcc.a(_dvmd_tls.o)
                                                  /opt/gcc-linaro-7.2.1-2017.11-x86_64_arm-eabi/arm-eabi/libc/usr/lib/libgcc.a(_aeabi_uldivmod.o)
__aeabi_ui2d                                      /opt/gcc-linaro-7.2.1-2017.11-x86_64_arm-eabi/arm-eabi/libc/usr/lib/libgcc.a(_arm_addsubdf3.o)
                                                  /opt/gcc-linaro-7.2.1-2017.11-x86_64_arm-eabi/arm-eabi/libc/usr/lib/libc.a(lib_a-strtod.o)
                                                  /opt/gcc-linaro-7.2.1-2017.11-x86_64_arm-eabi/arm-eabi/libc/usr/lib/libc.a(lib_a-dtoa.o)
__aeabi_uidiv                                     /opt/gcc-linaro-7.2.1-2017.11-x86_64_arm-eabi/arm-eabi/libc/usr/lib/libgcc.a(_udivsi3.o)
                                                  /opt/gcc-linaro-7.2.1-2017.11-x86_64_arm-eabi/arm-eabi/libc/usr/lib/libc.a(lib_a-svfiscanf.o)
                                                  /opt/gcc-linaro-7.2.1-2017.11-x86_64_arm-eabi/arm-eabi/libc/usr/lib/libc.a(lib_a-dtoa.o)
                                                  /opt/gcc-linaro-7.2.1-2017.11-x86_64_arm-eabi/arm-eabi/libc/usr/lib/libc.a(lib_a-strtoul.o)
__aeabi_uidivmod                                  /opt/gcc-linaro-7.2.1-2017.11-x86_64_arm-eabi/arm-eabi/libc/usr/lib/libgcc.a(_udivsi3.o)
                                                  /opt/gcc-linaro-7.2.1-2017.11-x86_64_arm-eabi/arm-eabi/libc/usr/lib/libc.a(lib_a-strtoul.o)
                                                  /opt/gcc-linaro-7.2.1-2017.11-x86_64_arm-eabi/arm-eabi/libc/usr/lib/libc.a(lib_a-strtol.o)
__aeabi_ul2d                                      /opt/gcc-linaro-7.2.1-2017.11-x86_64_arm-eabi/arm-eabi/libc/usr/lib/libgcc.a(_arm_addsubdf3.o)
__aeabi_uldivmod                                  /opt/gcc-linaro-7.2.1-2017.11-x86_64_arm-eabi/arm-eabi/libc/usr/lib/libgcc.a(_aeabi_uldivmod.o)
                                                  /opt/gcc-linaro-7.2.1-2017.11-x86_64_arm-eabi/arm-eabi/libc/usr/lib/libc.a(lib_a-svfiprintf.o)
                                                  /opt/gcc-linaro-7.2.1-2017.11-x86_64_arm-eabi/arm-eabi/libc/usr/lib/libc.a(lib_a-strtoull.o)
                                                  /opt/gcc-linaro-7.2.1-2017.11-x86_64_arm-eabi/arm-eabi/libc/usr/lib/libc.a(lib_a-strtoll.o)
                                                  /opt/gcc-linaro-7.2.1-2017.11-x86_64_arm-eabi/arm-eabi/libc/usr/lib/libc.a(lib_a-svfprintf.o)
                                                  ./../../../build/tcc70xx/gcc/tcc70xx-freertos-debug/obj/sal_freertos_impl.o
                                                  ./../../../build/tcc70xx/gcc/tcc70xx-freertos-debug/obj/clock_dev.o
__any_on                                          /opt/gcc-linaro-7.2.1-2017.11-x86_64_arm-eabi/arm-eabi/libc/usr/lib/libc.a(lib_a-mprec.o)
                                                  /opt/gcc-linaro-7.2.1-2017.11-x86_64_arm-eabi/arm-eabi/libc/usr/lib/libc.a(lib_a-gdtoa-gethex.o)
__ascii_mbtowc                                    /opt/gcc-linaro-7.2.1-2017.11-x86_64_arm-eabi/arm-eabi/libc/usr/lib/libc.a(lib_a-mbtowc_r.o)
                                                  /opt/gcc-linaro-7.2.1-2017.11-x86_64_arm-eabi/arm-eabi/libc/usr/lib/libc.a(lib_a-locale.o)
__ascii_wctomb                                    /opt/gcc-linaro-7.2.1-2017.11-x86_64_arm-eabi/arm-eabi/libc/usr/lib/libc.a(lib_a-wctomb_r.o)
                                                  /opt/gcc-linaro-7.2.1-2017.11-x86_64_arm-eabi/arm-eabi/libc/usr/lib/libc.a(lib_a-locale.o)
__b2d                                             /opt/gcc-linaro-7.2.1-2017.11-x86_64_arm-eabi/arm-eabi/libc/usr/lib/libc.a(lib_a-mprec.o)
__chclass                                         /opt/gcc-linaro-7.2.1-2017.11-x86_64_arm-eabi/arm-eabi/libc/usr/lib/libc.a(lib_a-svfiprintf.o)
                                                  /opt/gcc-linaro-7.2.1-2017.11-x86_64_arm-eabi/arm-eabi/libc/usr/lib/libc.a(lib_a-svfprintf.o)
__clzdi2                                          /opt/gcc-linaro-7.2.1-2017.11-x86_64_arm-eabi/arm-eabi/libc/usr/lib/libgcc.a(_clzdi2.o)
                                                  /opt/gcc-linaro-7.2.1-2017.11-x86_64_arm-eabi/arm-eabi/libc/usr/lib/libgcc.a(_udivmoddi4.o)
__clzsi2                                          /opt/gcc-linaro-7.2.1-2017.11-x86_64_arm-eabi/arm-eabi/libc/usr/lib/libgcc.a(_clzsi2.o)
                                                  /opt/gcc-linaro-7.2.1-2017.11-x86_64_arm-eabi/arm-eabi/libc/usr/lib/libgcc.a(_clzdi2.o)
__cmpdf2                                          /opt/gcc-linaro-7.2.1-2017.11-x86_64_arm-eabi/arm-eabi/libc/usr/lib/libgcc.a(_arm_cmpdf2.o)
__cmpsf2                                          /opt/gcc-linaro-7.2.1-2017.11-x86_64_arm-eabi/arm-eabi/libc/usr/lib/libgcc.a(_arm_cmpsf2.o)
__copybits                                        /opt/gcc-linaro-7.2.1-2017.11-x86_64_arm-eabi/arm-eabi/libc/usr/lib/libc.a(lib_a-mprec.o)
                                                  /opt/gcc-linaro-7.2.1-2017.11-x86_64_arm-eabi/arm-eabi/libc/usr/lib/libc.a(lib_a-strtod.o)
__d2b                                             /opt/gcc-linaro-7.2.1-2017.11-x86_64_arm-eabi/arm-eabi/libc/usr/lib/libc.a(lib_a-mprec.o)
                                                  /opt/gcc-linaro-7.2.1-2017.11-x86_64_arm-eabi/arm-eabi/libc/usr/lib/libc.a(lib_a-strtod.o)
                                                  /opt/gcc-linaro-7.2.1-2017.11-x86_64_arm-eabi/arm-eabi/libc/usr/lib/libc.a(lib_a-dtoa.o)
__default_locale                                  /opt/gcc-linaro-7.2.1-2017.11-x86_64_arm-eabi/arm-eabi/libc/usr/lib/libc.a(lib_a-locale.o)
__divdf3                                          /opt/gcc-linaro-7.2.1-2017.11-x86_64_arm-eabi/arm-eabi/libc/usr/lib/libgcc.a(_arm_muldivdf3.o)
__env_lock                                        /opt/gcc-linaro-7.2.1-2017.11-x86_64_arm-eabi/arm-eabi/libc/usr/lib/libc.a(lib_a-envlock.o)
                                                  /opt/gcc-linaro-7.2.1-2017.11-x86_64_arm-eabi/arm-eabi/libc/usr/lib/libc.a(lib_a-getenv_r.o)
__env_unlock                                      /opt/gcc-linaro-7.2.1-2017.11-x86_64_arm-eabi/arm-eabi/libc/usr/lib/libc.a(lib_a-envlock.o)
                                                  /opt/gcc-linaro-7.2.1-2017.11-x86_64_arm-eabi/arm-eabi/libc/usr/lib/libc.a(lib_a-getenv_r.o)
__eqdf2                                           /opt/gcc-linaro-7.2.1-2017.11-x86_64_arm-eabi/arm-eabi/libc/usr/lib/libgcc.a(_arm_cmpdf2.o)
__eqsf2                                           /opt/gcc-linaro-7.2.1-2017.11-x86_64_arm-eabi/arm-eabi/libc/usr/lib/libgcc.a(_arm_cmpsf2.o)
__errno                                           /opt/gcc-linaro-7.2.1-2017.11-x86_64_arm-eabi/arm-eabi/libc/usr/lib/libc.a(lib_a-errno.o)
                                                  /opt/gcc-linaro-7.2.1-2017.11-x86_64_arm-eabi/arm-eabi/libc/usr/lib/libc.a(lib_a-syscalls.o)
__eucjp_mbtowc                                    /opt/gcc-linaro-7.2.1-2017.11-x86_64_arm-eabi/arm-eabi/libc/usr/lib/libc.a(lib_a-mbtowc_r.o)
                                                  /opt/gcc-linaro-7.2.1-2017.11-x86_64_arm-eabi/arm-eabi/libc/usr/lib/libc.a(lib_a-locale.o)
__eucjp_wctomb                                    /opt/gcc-linaro-7.2.1-2017.11-x86_64_arm-eabi/arm-eabi/libc/usr/lib/libc.a(lib_a-wctomb_r.o)
                                                  /opt/gcc-linaro-7.2.1-2017.11-x86_64_arm-eabi/arm-eabi/libc/usr/lib/libc.a(lib_a-locale.o)
__extendsfdf2                                     /opt/gcc-linaro-7.2.1-2017.11-x86_64_arm-eabi/arm-eabi/libc/usr/lib/libgcc.a(_arm_addsubdf3.o)
__fixdfsi                                         /opt/gcc-linaro-7.2.1-2017.11-x86_64_arm-eabi/arm-eabi/libc/usr/lib/libgcc.a(_arm_fixdfsi.o)
__fixunsdfsi                                      /opt/gcc-linaro-7.2.1-2017.11-x86_64_arm-eabi/arm-eabi/libc/usr/lib/libgcc.a(_arm_fixunsdfsi.o)
__floatdidf                                       /opt/gcc-linaro-7.2.1-2017.11-x86_64_arm-eabi/arm-eabi/libc/usr/lib/libgcc.a(_arm_addsubdf3.o)
__floatsidf                                       /opt/gcc-linaro-7.2.1-2017.11-x86_64_arm-eabi/arm-eabi/libc/usr/lib/libgcc.a(_arm_addsubdf3.o)
__floatundidf                                     /opt/gcc-linaro-7.2.1-2017.11-x86_64_arm-eabi/arm-eabi/libc/usr/lib/libgcc.a(_arm_addsubdf3.o)
__floatunsidf                                     /opt/gcc-linaro-7.2.1-2017.11-x86_64_arm-eabi/arm-eabi/libc/usr/lib/libgcc.a(_arm_addsubdf3.o)
__fp_lock_all                                     /opt/gcc-linaro-7.2.1-2017.11-x86_64_arm-eabi/arm-eabi/libc/usr/lib/libc.a(lib_a-findfp.o)
__fp_unlock_all                                   /opt/gcc-linaro-7.2.1-2017.11-x86_64_arm-eabi/arm-eabi/libc/usr/lib/libc.a(lib_a-findfp.o)
__gedf2                                           /opt/gcc-linaro-7.2.1-2017.11-x86_64_arm-eabi/arm-eabi/libc/usr/lib/libgcc.a(_arm_cmpdf2.o)
__gesf2                                           /opt/gcc-linaro-7.2.1-2017.11-x86_64_arm-eabi/arm-eabi/libc/usr/lib/libgcc.a(_arm_cmpsf2.o)
__get_locale_env                                  /opt/gcc-linaro-7.2.1-2017.11-x86_64_arm-eabi/arm-eabi/libc/usr/lib/libc.a(lib_a-locale.o)
__gethex                                          /opt/gcc-linaro-7.2.1-2017.11-x86_64_arm-eabi/arm-eabi/libc/usr/lib/libc.a(lib_a-gdtoa-gethex.o)
                                                  /opt/gcc-linaro-7.2.1-2017.11-x86_64_arm-eabi/arm-eabi/libc/usr/lib/libc.a(lib_a-strtod.o)
__global_locale                                   /opt/gcc-linaro-7.2.1-2017.11-x86_64_arm-eabi/arm-eabi/libc/usr/lib/libc.a(lib_a-locale.o)
                                                  /opt/gcc-linaro-7.2.1-2017.11-x86_64_arm-eabi/arm-eabi/libc/usr/lib/libc.a(lib_a-wctomb_r.o)
                                                  /opt/gcc-linaro-7.2.1-2017.11-x86_64_arm-eabi/arm-eabi/libc/usr/lib/libc.a(lib_a-wcsnrtombs.o)
                                                  /opt/gcc-linaro-7.2.1-2017.11-x86_64_arm-eabi/arm-eabi/libc/usr/lib/libc.a(lib_a-svfiscanf.o)
                                                  /opt/gcc-linaro-7.2.1-2017.11-x86_64_arm-eabi/arm-eabi/libc/usr/lib/libc.a(lib_a-svfiprintf.o)
                                                  /opt/gcc-linaro-7.2.1-2017.11-x86_64_arm-eabi/arm-eabi/libc/usr/lib/libc.a(lib_a-strtoull.o)
                                                  /opt/gcc-linaro-7.2.1-2017.11-x86_64_arm-eabi/arm-eabi/libc/usr/lib/libc.a(lib_a-strtoll.o)
                                                  /opt/gcc-linaro-7.2.1-2017.11-x86_64_arm-eabi/arm-eabi/libc/usr/lib/libc.a(lib_a-strtod.o)
                                                  /opt/gcc-linaro-7.2.1-2017.11-x86_64_arm-eabi/arm-eabi/libc/usr/lib/libc.a(lib_a-mbtowc_r.o)
                                                  /opt/gcc-linaro-7.2.1-2017.11-x86_64_arm-eabi/arm-eabi/libc/usr/lib/libc.a(lib_a-mbrtowc.o)
                                                  /opt/gcc-linaro-7.2.1-2017.11-x86_64_arm-eabi/arm-eabi/libc/usr/lib/libc.a(lib_a-localeconv.o)
                                                  /opt/gcc-linaro-7.2.1-2017.11-x86_64_arm-eabi/arm-eabi/libc/usr/lib/libc.a(lib_a-jp2uc.o)
                                                  /opt/gcc-linaro-7.2.1-2017.11-x86_64_arm-eabi/arm-eabi/libc/usr/lib/libc.a(lib_a-wcrtomb.o)
                                                  /opt/gcc-linaro-7.2.1-2017.11-x86_64_arm-eabi/arm-eabi/libc/usr/lib/libc.a(lib_a-svfscanf.o)
                                                  /opt/gcc-linaro-7.2.1-2017.11-x86_64_arm-eabi/arm-eabi/libc/usr/lib/libc.a(lib_a-svfprintf.o)
                                                  /opt/gcc-linaro-7.2.1-2017.11-x86_64_arm-eabi/arm-eabi/libc/usr/lib/libc.a(lib_a-strtoul.o)
                                                  /opt/gcc-linaro-7.2.1-2017.11-x86_64_arm-eabi/arm-eabi/libc/usr/lib/libc.a(lib_a-strtol.o)
__gtdf2                                           /opt/gcc-linaro-7.2.1-2017.11-x86_64_arm-eabi/arm-eabi/libc/usr/lib/libgcc.a(_arm_cmpdf2.o)
__gtsf2                                           /opt/gcc-linaro-7.2.1-2017.11-x86_64_arm-eabi/arm-eabi/libc/usr/lib/libgcc.a(_arm_cmpsf2.o)
__hexdig                                          /opt/gcc-linaro-7.2.1-2017.11-x86_64_arm-eabi/arm-eabi/libc/usr/lib/libc.a(lib_a-gdtoa-gethex.o)
                                                  /opt/gcc-linaro-7.2.1-2017.11-x86_64_arm-eabi/arm-eabi/libc/usr/lib/libc.a(lib_a-gdtoa-hexnan.o)
__hexnan                                          /opt/gcc-linaro-7.2.1-2017.11-x86_64_arm-eabi/arm-eabi/libc/usr/lib/libc.a(lib_a-gdtoa-hexnan.o)
                                                  /opt/gcc-linaro-7.2.1-2017.11-x86_64_arm-eabi/arm-eabi/libc/usr/lib/libc.a(lib_a-strtod.o)
__hi0bits                                         /opt/gcc-linaro-7.2.1-2017.11-x86_64_arm-eabi/arm-eabi/libc/usr/lib/libc.a(lib_a-mprec.o)
                                                  /opt/gcc-linaro-7.2.1-2017.11-x86_64_arm-eabi/arm-eabi/libc/usr/lib/libc.a(lib_a-gdtoa-gethex.o)
                                                  /opt/gcc-linaro-7.2.1-2017.11-x86_64_arm-eabi/arm-eabi/libc/usr/lib/libc.a(lib_a-dtoa.o)
__i2b                                             /opt/gcc-linaro-7.2.1-2017.11-x86_64_arm-eabi/arm-eabi/libc/usr/lib/libc.a(lib_a-mprec.o)
                                                  /opt/gcc-linaro-7.2.1-2017.11-x86_64_arm-eabi/arm-eabi/libc/usr/lib/libc.a(lib_a-strtod.o)
                                                  /opt/gcc-linaro-7.2.1-2017.11-x86_64_arm-eabi/arm-eabi/libc/usr/lib/libc.a(lib_a-dtoa.o)
__jis_mbtowc                                      /opt/gcc-linaro-7.2.1-2017.11-x86_64_arm-eabi/arm-eabi/libc/usr/lib/libc.a(lib_a-mbtowc_r.o)
                                                  /opt/gcc-linaro-7.2.1-2017.11-x86_64_arm-eabi/arm-eabi/libc/usr/lib/libc.a(lib_a-locale.o)
__jis_wctomb                                      /opt/gcc-linaro-7.2.1-2017.11-x86_64_arm-eabi/arm-eabi/libc/usr/lib/libc.a(lib_a-wctomb_r.o)
                                                  /opt/gcc-linaro-7.2.1-2017.11-x86_64_arm-eabi/arm-eabi/libc/usr/lib/libc.a(lib_a-locale.o)
__ledf2                                           /opt/gcc-linaro-7.2.1-2017.11-x86_64_arm-eabi/arm-eabi/libc/usr/lib/libgcc.a(_arm_cmpdf2.o)
__lesf2                                           /opt/gcc-linaro-7.2.1-2017.11-x86_64_arm-eabi/arm-eabi/libc/usr/lib/libgcc.a(_arm_cmpsf2.o)
__lo0bits                                         /opt/gcc-linaro-7.2.1-2017.11-x86_64_arm-eabi/arm-eabi/libc/usr/lib/libc.a(lib_a-mprec.o)
__loadlocale                                      /opt/gcc-linaro-7.2.1-2017.11-x86_64_arm-eabi/arm-eabi/libc/usr/lib/libc.a(lib_a-locale.o)
__locale_ctype_ptr                                /opt/gcc-linaro-7.2.1-2017.11-x86_64_arm-eabi/arm-eabi/libc/usr/lib/libc.a(lib_a-locale.o)
                                                  /opt/gcc-linaro-7.2.1-2017.11-x86_64_arm-eabi/arm-eabi/libc/usr/lib/libc.a(lib_a-svfiscanf.o)
                                                  /opt/gcc-linaro-7.2.1-2017.11-x86_64_arm-eabi/arm-eabi/libc/usr/lib/libc.a(lib_a-strncasecmp.o)
                                                  /opt/gcc-linaro-7.2.1-2017.11-x86_64_arm-eabi/arm-eabi/libc/usr/lib/libc.a(lib_a-strcasecmp.o)
                                                  /opt/gcc-linaro-7.2.1-2017.11-x86_64_arm-eabi/arm-eabi/libc/usr/lib/libc.a(lib_a-svfscanf.o)
__locale_ctype_ptr_l                              /opt/gcc-linaro-7.2.1-2017.11-x86_64_arm-eabi/arm-eabi/libc/usr/lib/libc.a(lib_a-locale.o)
                                                  /opt/gcc-linaro-7.2.1-2017.11-x86_64_arm-eabi/arm-eabi/libc/usr/lib/libc.a(lib_a-strtoull.o)
                                                  /opt/gcc-linaro-7.2.1-2017.11-x86_64_arm-eabi/arm-eabi/libc/usr/lib/libc.a(lib_a-strtoll.o)
                                                  /opt/gcc-linaro-7.2.1-2017.11-x86_64_arm-eabi/arm-eabi/libc/usr/lib/libc.a(lib_a-strtoul.o)
                                                  /opt/gcc-linaro-7.2.1-2017.11-x86_64_arm-eabi/arm-eabi/libc/usr/lib/libc.a(lib_a-strtol.o)
__locale_mb_cur_max                               /opt/gcc-linaro-7.2.1-2017.11-x86_64_arm-eabi/arm-eabi/libc/usr/lib/libc.a(lib_a-locale.o)
                                                  /opt/gcc-linaro-7.2.1-2017.11-x86_64_arm-eabi/arm-eabi/libc/usr/lib/libc.a(lib_a-svfiscanf.o)
                                                  /opt/gcc-linaro-7.2.1-2017.11-x86_64_arm-eabi/arm-eabi/libc/usr/lib/libc.a(lib_a-svfiprintf.o)
                                                  /opt/gcc-linaro-7.2.1-2017.11-x86_64_arm-eabi/arm-eabi/libc/usr/lib/libc.a(lib_a-svfscanf.o)
                                                  /opt/gcc-linaro-7.2.1-2017.11-x86_64_arm-eabi/arm-eabi/libc/usr/lib/libc.a(lib_a-svfprintf.o)
__localeconv_l                                    /opt/gcc-linaro-7.2.1-2017.11-x86_64_arm-eabi/arm-eabi/libc/usr/lib/libc.a(lib_a-localeconv.o)
                                                  /opt/gcc-linaro-7.2.1-2017.11-x86_64_arm-eabi/arm-eabi/libc/usr/lib/libc.a(lib_a-gdtoa-gethex.o)
                                                  /opt/gcc-linaro-7.2.1-2017.11-x86_64_arm-eabi/arm-eabi/libc/usr/lib/libc.a(lib_a-strtod.o)
__lshift                                          /opt/gcc-linaro-7.2.1-2017.11-x86_64_arm-eabi/arm-eabi/libc/usr/lib/libc.a(lib_a-mprec.o)
                                                  /opt/gcc-linaro-7.2.1-2017.11-x86_64_arm-eabi/arm-eabi/libc/usr/lib/libc.a(lib_a-gdtoa-gethex.o)
                                                  /opt/gcc-linaro-7.2.1-2017.11-x86_64_arm-eabi/arm-eabi/libc/usr/lib/libc.a(lib_a-strtod.o)
                                                  /opt/gcc-linaro-7.2.1-2017.11-x86_64_arm-eabi/arm-eabi/libc/usr/lib/libc.a(lib_a-dtoa.o)
__ltdf2                                           /opt/gcc-linaro-7.2.1-2017.11-x86_64_arm-eabi/arm-eabi/libc/usr/lib/libgcc.a(_arm_cmpdf2.o)
__ltsf2                                           /opt/gcc-linaro-7.2.1-2017.11-x86_64_arm-eabi/arm-eabi/libc/usr/lib/libgcc.a(_arm_cmpsf2.o)
__malloc_av_                                      /opt/gcc-linaro-7.2.1-2017.11-x86_64_arm-eabi/arm-eabi/libc/usr/lib/libc.a(lib_a-mallocr.o)
                                                  /opt/gcc-linaro-7.2.1-2017.11-x86_64_arm-eabi/arm-eabi/libc/usr/lib/libc.a(lib_a-reallocr.o)
                                                  /opt/gcc-linaro-7.2.1-2017.11-x86_64_arm-eabi/arm-eabi/libc/usr/lib/libc.a(lib_a-freer.o)
__malloc_current_mallinfo                         /opt/gcc-linaro-7.2.1-2017.11-x86_64_arm-eabi/arm-eabi/libc/usr/lib/libc.a(lib_a-mallocr.o)
                                                  /opt/gcc-linaro-7.2.1-2017.11-x86_64_arm-eabi/arm-eabi/libc/usr/lib/libc.a(lib_a-freer.o)
__malloc_lock                                     /opt/gcc-linaro-7.2.1-2017.11-x86_64_arm-eabi/arm-eabi/libc/usr/lib/libc.a(lib_a-mlock.o)
                                                  /opt/gcc-linaro-7.2.1-2017.11-x86_64_arm-eabi/arm-eabi/libc/usr/lib/libc.a(lib_a-reallocr.o)
                                                  /opt/gcc-linaro-7.2.1-2017.11-x86_64_arm-eabi/arm-eabi/libc/usr/lib/libc.a(lib_a-mallocr.o)
                                                  /opt/gcc-linaro-7.2.1-2017.11-x86_64_arm-eabi/arm-eabi/libc/usr/lib/libc.a(lib_a-freer.o)
__malloc_max_sbrked_mem                           /opt/gcc-linaro-7.2.1-2017.11-x86_64_arm-eabi/arm-eabi/libc/usr/lib/libc.a(lib_a-mallocr.o)
__malloc_max_total_mem                            /opt/gcc-linaro-7.2.1-2017.11-x86_64_arm-eabi/arm-eabi/libc/usr/lib/libc.a(lib_a-mallocr.o)
__malloc_sbrk_base                                /opt/gcc-linaro-7.2.1-2017.11-x86_64_arm-eabi/arm-eabi/libc/usr/lib/libc.a(lib_a-mallocr.o)
                                                  /opt/gcc-linaro-7.2.1-2017.11-x86_64_arm-eabi/arm-eabi/libc/usr/lib/libc.a(lib_a-freer.o)
__malloc_top_pad                                  /opt/gcc-linaro-7.2.1-2017.11-x86_64_arm-eabi/arm-eabi/libc/usr/lib/libc.a(lib_a-mallocr.o)
                                                  /opt/gcc-linaro-7.2.1-2017.11-x86_64_arm-eabi/arm-eabi/libc/usr/lib/libc.a(lib_a-freer.o)
__malloc_trim_threshold                           /opt/gcc-linaro-7.2.1-2017.11-x86_64_arm-eabi/arm-eabi/libc/usr/lib/libc.a(lib_a-mallocr.o)
                                                  /opt/gcc-linaro-7.2.1-2017.11-x86_64_arm-eabi/arm-eabi/libc/usr/lib/libc.a(lib_a-freer.o)
__malloc_unlock                                   /opt/gcc-linaro-7.2.1-2017.11-x86_64_arm-eabi/arm-eabi/libc/usr/lib/libc.a(lib_a-mlock.o)
                                                  /opt/gcc-linaro-7.2.1-2017.11-x86_64_arm-eabi/arm-eabi/libc/usr/lib/libc.a(lib_a-reallocr.o)
                                                  /opt/gcc-linaro-7.2.1-2017.11-x86_64_arm-eabi/arm-eabi/libc/usr/lib/libc.a(lib_a-mallocr.o)
                                                  /opt/gcc-linaro-7.2.1-2017.11-x86_64_arm-eabi/arm-eabi/libc/usr/lib/libc.a(lib_a-freer.o)
__match                                           /opt/gcc-linaro-7.2.1-2017.11-x86_64_arm-eabi/arm-eabi/libc/usr/lib/libc.a(lib_a-gdtoa-hexnan.o)
                                                  /opt/gcc-linaro-7.2.1-2017.11-x86_64_arm-eabi/arm-eabi/libc/usr/lib/libc.a(lib_a-strtod.o)
__mcmp                                            /opt/gcc-linaro-7.2.1-2017.11-x86_64_arm-eabi/arm-eabi/libc/usr/lib/libc.a(lib_a-mprec.o)
                                                  /opt/gcc-linaro-7.2.1-2017.11-x86_64_arm-eabi/arm-eabi/libc/usr/lib/libc.a(lib_a-strtod.o)
                                                  /opt/gcc-linaro-7.2.1-2017.11-x86_64_arm-eabi/arm-eabi/libc/usr/lib/libc.a(lib_a-dtoa.o)
__mdiff                                           /opt/gcc-linaro-7.2.1-2017.11-x86_64_arm-eabi/arm-eabi/libc/usr/lib/libc.a(lib_a-mprec.o)
                                                  /opt/gcc-linaro-7.2.1-2017.11-x86_64_arm-eabi/arm-eabi/libc/usr/lib/libc.a(lib_a-strtod.o)
                                                  /opt/gcc-linaro-7.2.1-2017.11-x86_64_arm-eabi/arm-eabi/libc/usr/lib/libc.a(lib_a-dtoa.o)
__mprec_bigtens                                   /opt/gcc-linaro-7.2.1-2017.11-x86_64_arm-eabi/arm-eabi/libc/usr/lib/libc.a(lib_a-mprec.o)
                                                  /opt/gcc-linaro-7.2.1-2017.11-x86_64_arm-eabi/arm-eabi/libc/usr/lib/libc.a(lib_a-strtod.o)
                                                  /opt/gcc-linaro-7.2.1-2017.11-x86_64_arm-eabi/arm-eabi/libc/usr/lib/libc.a(lib_a-dtoa.o)
__mprec_tens                                      /opt/gcc-linaro-7.2.1-2017.11-x86_64_arm-eabi/arm-eabi/libc/usr/lib/libc.a(lib_a-mprec.o)
                                                  /opt/gcc-linaro-7.2.1-2017.11-x86_64_arm-eabi/arm-eabi/libc/usr/lib/libc.a(lib_a-strtod.o)
                                                  /opt/gcc-linaro-7.2.1-2017.11-x86_64_arm-eabi/arm-eabi/libc/usr/lib/libc.a(lib_a-dtoa.o)
__mprec_tinytens                                  /opt/gcc-linaro-7.2.1-2017.11-x86_64_arm-eabi/arm-eabi/libc/usr/lib/libc.a(lib_a-mprec.o)
__muldf3                                          /opt/gcc-linaro-7.2.1-2017.11-x86_64_arm-eabi/arm-eabi/libc/usr/lib/libgcc.a(_arm_muldivdf3.o)
__multadd                                         /opt/gcc-linaro-7.2.1-2017.11-x86_64_arm-eabi/arm-eabi/libc/usr/lib/libc.a(lib_a-mprec.o)
                                                  /opt/gcc-linaro-7.2.1-2017.11-x86_64_arm-eabi/arm-eabi/libc/usr/lib/libc.a(lib_a-dtoa.o)
__multiply                                        /opt/gcc-linaro-7.2.1-2017.11-x86_64_arm-eabi/arm-eabi/libc/usr/lib/libc.a(lib_a-mprec.o)
                                                  /opt/gcc-linaro-7.2.1-2017.11-x86_64_arm-eabi/arm-eabi/libc/usr/lib/libc.a(lib_a-strtod.o)
                                                  /opt/gcc-linaro-7.2.1-2017.11-x86_64_arm-eabi/arm-eabi/libc/usr/lib/libc.a(lib_a-dtoa.o)
__nc_canstart                                     ./../../../build/tcc70xx/gcc/tcc70xx-freertos-debug/obj/mpu.o
__nc_dmastart                                     ./../../../build/tcc70xx/gcc/tcc70xx-freertos-debug/obj/mpu.o
__nedf2                                           /opt/gcc-linaro-7.2.1-2017.11-x86_64_arm-eabi/arm-eabi/libc/usr/lib/libgcc.a(_arm_cmpdf2.o)
__nesf2                                           /opt/gcc-linaro-7.2.1-2017.11-x86_64_arm-eabi/arm-eabi/libc/usr/lib/libgcc.a(_arm_cmpsf2.o)
__pow5mult                                        /opt/gcc-linaro-7.2.1-2017.11-x86_64_arm-eabi/arm-eabi/libc/usr/lib/libc.a(lib_a-mprec.o)
                                                  /opt/gcc-linaro-7.2.1-2017.11-x86_64_arm-eabi/arm-eabi/libc/usr/lib/libc.a(lib_a-strtod.o)
                                                  /opt/gcc-linaro-7.2.1-2017.11-x86_64_arm-eabi/arm-eabi/libc/usr/lib/libc.a(lib_a-dtoa.o)
__ratio                                           /opt/gcc-linaro-7.2.1-2017.11-x86_64_arm-eabi/arm-eabi/libc/usr/lib/libc.a(lib_a-mprec.o)
                                                  /opt/gcc-linaro-7.2.1-2017.11-x86_64_arm-eabi/arm-eabi/libc/usr/lib/libc.a(lib_a-strtod.o)
__s2b                                             /opt/gcc-linaro-7.2.1-2017.11-x86_64_arm-eabi/arm-eabi/libc/usr/lib/libc.a(lib_a-mprec.o)
                                                  /opt/gcc-linaro-7.2.1-2017.11-x86_64_arm-eabi/arm-eabi/libc/usr/lib/libc.a(lib_a-strtod.o)
__sccl                                            /opt/gcc-linaro-7.2.1-2017.11-x86_64_arm-eabi/arm-eabi/libc/usr/lib/libc.a(lib_a-sccl.o)
                                                  /opt/gcc-linaro-7.2.1-2017.11-x86_64_arm-eabi/arm-eabi/libc/usr/lib/libc.a(lib_a-svfiscanf.o)
                                                  /opt/gcc-linaro-7.2.1-2017.11-x86_64_arm-eabi/arm-eabi/libc/usr/lib/libc.a(lib_a-svfscanf.o)
__sclose                                          /opt/gcc-linaro-7.2.1-2017.11-x86_64_arm-eabi/arm-eabi/libc/usr/lib/libc.a(lib_a-stdio.o)
                                                  /opt/gcc-linaro-7.2.1-2017.11-x86_64_arm-eabi/arm-eabi/libc/usr/lib/libc.a(lib_a-findfp.o)
__seofread                                        /opt/gcc-linaro-7.2.1-2017.11-x86_64_arm-eabi/arm-eabi/libc/usr/lib/libc.a(lib_a-stdio.o)
                                                  /opt/gcc-linaro-7.2.1-2017.11-x86_64_arm-eabi/arm-eabi/libc/usr/lib/libc.a(lib_a-sscanf.o)
__set_ctype                                       /opt/gcc-linaro-7.2.1-2017.11-x86_64_arm-eabi/arm-eabi/libc/usr/lib/libc.a(lib_a-ctype_.o)
                                                  /opt/gcc-linaro-7.2.1-2017.11-x86_64_arm-eabi/arm-eabi/libc/usr/lib/libc.a(lib_a-locale.o)
__sflush_r                                        /opt/gcc-linaro-7.2.1-2017.11-x86_64_arm-eabi/arm-eabi/libc/usr/lib/libc.a(lib_a-fflush.o)
                                                  /opt/gcc-linaro-7.2.1-2017.11-x86_64_arm-eabi/arm-eabi/libc/usr/lib/libc.a(lib_a-fclose.o)
__sfmoreglue                                      /opt/gcc-linaro-7.2.1-2017.11-x86_64_arm-eabi/arm-eabi/libc/usr/lib/libc.a(lib_a-findfp.o)
__sfp                                             /opt/gcc-linaro-7.2.1-2017.11-x86_64_arm-eabi/arm-eabi/libc/usr/lib/libc.a(lib_a-findfp.o)
__sfp_lock_acquire                                /opt/gcc-linaro-7.2.1-2017.11-x86_64_arm-eabi/arm-eabi/libc/usr/lib/libc.a(lib_a-findfp.o)
                                                  /opt/gcc-linaro-7.2.1-2017.11-x86_64_arm-eabi/arm-eabi/libc/usr/lib/libc.a(lib_a-fclose.o)
__sfp_lock_release                                /opt/gcc-linaro-7.2.1-2017.11-x86_64_arm-eabi/arm-eabi/libc/usr/lib/libc.a(lib_a-findfp.o)
                                                  /opt/gcc-linaro-7.2.1-2017.11-x86_64_arm-eabi/arm-eabi/libc/usr/lib/libc.a(lib_a-fclose.o)
__sinit                                           /opt/gcc-linaro-7.2.1-2017.11-x86_64_arm-eabi/arm-eabi/libc/usr/lib/libc.a(lib_a-findfp.o)
                                                  /opt/gcc-linaro-7.2.1-2017.11-x86_64_arm-eabi/arm-eabi/libc/usr/lib/libc.a(lib_a-fclose.o)
                                                  /opt/gcc-linaro-7.2.1-2017.11-x86_64_arm-eabi/arm-eabi/libc/usr/lib/libc.a(lib_a-fflush.o)
                                                  /opt/gcc-linaro-7.2.1-2017.11-x86_64_arm-eabi/arm-eabi/libc/usr/lib/libc.a(lib_a-ungetc.o)
                                                  /opt/gcc-linaro-7.2.1-2017.11-x86_64_arm-eabi/arm-eabi/libc/usr/lib/libc.a(lib_a-syscalls.o)
__sinit_lock_acquire                              /opt/gcc-linaro-7.2.1-2017.11-x86_64_arm-eabi/arm-eabi/libc/usr/lib/libc.a(lib_a-findfp.o)
__sinit_lock_release                              /opt/gcc-linaro-7.2.1-2017.11-x86_64_arm-eabi/arm-eabi/libc/usr/lib/libc.a(lib_a-findfp.o)
__sjis_mbtowc                                     /opt/gcc-linaro-7.2.1-2017.11-x86_64_arm-eabi/arm-eabi/libc/usr/lib/libc.a(lib_a-mbtowc_r.o)
                                                  /opt/gcc-linaro-7.2.1-2017.11-x86_64_arm-eabi/arm-eabi/libc/usr/lib/libc.a(lib_a-locale.o)
__sjis_wctomb                                     /opt/gcc-linaro-7.2.1-2017.11-x86_64_arm-eabi/arm-eabi/libc/usr/lib/libc.a(lib_a-wctomb_r.o)
                                                  /opt/gcc-linaro-7.2.1-2017.11-x86_64_arm-eabi/arm-eabi/libc/usr/lib/libc.a(lib_a-locale.o)
__sread                                           /opt/gcc-linaro-7.2.1-2017.11-x86_64_arm-eabi/arm-eabi/libc/usr/lib/libc.a(lib_a-stdio.o)
                                                  /opt/gcc-linaro-7.2.1-2017.11-x86_64_arm-eabi/arm-eabi/libc/usr/lib/libc.a(lib_a-findfp.o)
__sseek                                           /opt/gcc-linaro-7.2.1-2017.11-x86_64_arm-eabi/arm-eabi/libc/usr/lib/libc.a(lib_a-stdio.o)
                                                  /opt/gcc-linaro-7.2.1-2017.11-x86_64_arm-eabi/arm-eabi/libc/usr/lib/libc.a(lib_a-findfp.o)
__ssprint_r                                       /opt/gcc-linaro-7.2.1-2017.11-x86_64_arm-eabi/arm-eabi/libc/usr/lib/libc.a(lib_a-svfiprintf.o)
                                                  /opt/gcc-linaro-7.2.1-2017.11-x86_64_arm-eabi/arm-eabi/libc/usr/lib/libc.a(lib_a-svfprintf.o)
__ssrefill_r                                      /opt/gcc-linaro-7.2.1-2017.11-x86_64_arm-eabi/arm-eabi/libc/usr/lib/libc.a(lib_a-svfiscanf.o)
                                                  /opt/gcc-linaro-7.2.1-2017.11-x86_64_arm-eabi/arm-eabi/libc/usr/lib/libc.a(lib_a-svfscanf.o)
__ssvfiscanf_r                                    /opt/gcc-linaro-7.2.1-2017.11-x86_64_arm-eabi/arm-eabi/libc/usr/lib/libc.a(lib_a-svfiscanf.o)
__ssvfscanf_r                                     /opt/gcc-linaro-7.2.1-2017.11-x86_64_arm-eabi/arm-eabi/libc/usr/lib/libc.a(lib_a-svfscanf.o)
                                                  /opt/gcc-linaro-7.2.1-2017.11-x86_64_arm-eabi/arm-eabi/libc/usr/lib/libc.a(lib_a-sscanf.o)
__state_table                                     /opt/gcc-linaro-7.2.1-2017.11-x86_64_arm-eabi/arm-eabi/libc/usr/lib/libc.a(lib_a-svfiprintf.o)
                                                  /opt/gcc-linaro-7.2.1-2017.11-x86_64_arm-eabi/arm-eabi/libc/usr/lib/libc.a(lib_a-svfprintf.o)
__subdf3                                          /opt/gcc-linaro-7.2.1-2017.11-x86_64_arm-eabi/arm-eabi/libc/usr/lib/libgcc.a(_arm_addsubdf3.o)
__submore                                         /opt/gcc-linaro-7.2.1-2017.11-x86_64_arm-eabi/arm-eabi/libc/usr/lib/libc.a(lib_a-ungetc.o)
                                                  /opt/gcc-linaro-7.2.1-2017.11-x86_64_arm-eabi/arm-eabi/libc/usr/lib/libc.a(lib_a-svfiscanf.o)
__swrite                                          /opt/gcc-linaro-7.2.1-2017.11-x86_64_arm-eabi/arm-eabi/libc/usr/lib/libc.a(lib_a-stdio.o)
                                                  /opt/gcc-linaro-7.2.1-2017.11-x86_64_arm-eabi/arm-eabi/libc/usr/lib/libc.a(lib_a-findfp.o)
__truncdfsf2                                      /opt/gcc-linaro-7.2.1-2017.11-x86_64_arm-eabi/arm-eabi/libc/usr/lib/libgcc.a(_arm_truncdfsf2.o)
__udivmoddi4                                      /opt/gcc-linaro-7.2.1-2017.11-x86_64_arm-eabi/arm-eabi/libc/usr/lib/libgcc.a(_udivmoddi4.o)
                                                  /opt/gcc-linaro-7.2.1-2017.11-x86_64_arm-eabi/arm-eabi/libc/usr/lib/libgcc.a(_aeabi_uldivmod.o)
__udivsi3                                         /opt/gcc-linaro-7.2.1-2017.11-x86_64_arm-eabi/arm-eabi/libc/usr/lib/libgcc.a(_udivsi3.o)
__ulp                                             /opt/gcc-linaro-7.2.1-2017.11-x86_64_arm-eabi/arm-eabi/libc/usr/lib/libc.a(lib_a-mprec.o)
                                                  /opt/gcc-linaro-7.2.1-2017.11-x86_64_arm-eabi/arm-eabi/libc/usr/lib/libc.a(lib_a-strtod.o)
__unorddf2                                        /opt/gcc-linaro-7.2.1-2017.11-x86_64_arm-eabi/arm-eabi/libc/usr/lib/libgcc.a(_arm_unorddf2.o)
__unordsf2                                        /opt/gcc-linaro-7.2.1-2017.11-x86_64_arm-eabi/arm-eabi/libc/usr/lib/libgcc.a(_arm_unordsf2.o)
__utf8_mbtowc                                     /opt/gcc-linaro-7.2.1-2017.11-x86_64_arm-eabi/arm-eabi/libc/usr/lib/libc.a(lib_a-mbtowc_r.o)
                                                  /opt/gcc-linaro-7.2.1-2017.11-x86_64_arm-eabi/arm-eabi/libc/usr/lib/libc.a(lib_a-locale.o)
__utf8_wctomb                                     /opt/gcc-linaro-7.2.1-2017.11-x86_64_arm-eabi/arm-eabi/libc/usr/lib/libc.a(lib_a-wctomb_r.o)
                                                  /opt/gcc-linaro-7.2.1-2017.11-x86_64_arm-eabi/arm-eabi/libc/usr/lib/libc.a(lib_a-locale.o)
_atoi_r                                           /opt/gcc-linaro-7.2.1-2017.11-x86_64_arm-eabi/arm-eabi/libc/usr/lib/libc.a(lib_a-atoi.o)
_calloc_r                                         /opt/gcc-linaro-7.2.1-2017.11-x86_64_arm-eabi/arm-eabi/libc/usr/lib/libc.a(lib_a-callocr.o)
                                                  /opt/gcc-linaro-7.2.1-2017.11-x86_64_arm-eabi/arm-eabi/libc/usr/lib/libc.a(lib_a-mprec.o)
_cleanup                                          /opt/gcc-linaro-7.2.1-2017.11-x86_64_arm-eabi/arm-eabi/libc/usr/lib/libc.a(lib_a-findfp.o)
_cleanup_r                                        /opt/gcc-linaro-7.2.1-2017.11-x86_64_arm-eabi/arm-eabi/libc/usr/lib/libc.a(lib_a-findfp.o)
_close                                            /opt/gcc-linaro-7.2.1-2017.11-x86_64_arm-eabi/arm-eabi/libc/usr/lib/libc.a(lib_a-syscalls.o)
                                                  /opt/gcc-linaro-7.2.1-2017.11-x86_64_arm-eabi/arm-eabi/libc/usr/lib/libc.a(lib_a-closer.o)
_close_r                                          /opt/gcc-linaro-7.2.1-2017.11-x86_64_arm-eabi/arm-eabi/libc/usr/lib/libc.a(lib_a-closer.o)
                                                  /opt/gcc-linaro-7.2.1-2017.11-x86_64_arm-eabi/arm-eabi/libc/usr/lib/libc.a(lib_a-stdio.o)
_ctype_                                           /opt/gcc-linaro-7.2.1-2017.11-x86_64_arm-eabi/arm-eabi/libc/usr/lib/libc.a(lib_a-ctype_.o)
                                                  /opt/gcc-linaro-7.2.1-2017.11-x86_64_arm-eabi/arm-eabi/libc/usr/lib/libc.a(lib_a-locale.o)
_dtoa_r                                           /opt/gcc-linaro-7.2.1-2017.11-x86_64_arm-eabi/arm-eabi/libc/usr/lib/libc.a(lib_a-dtoa.o)
                                                  /opt/gcc-linaro-7.2.1-2017.11-x86_64_arm-eabi/arm-eabi/libc/usr/lib/libc.a(lib_a-svfprintf.o)
_end_of_nc_can                                    ./../../../build/tcc70xx/gcc/tcc70xx-freertos-debug/obj/mpu.o
_end_of_nc_dma                                    ./../../../build/tcc70xx/gcc/tcc70xx-freertos-debug/obj/mpu.o
_exit                                             /opt/gcc-linaro-7.2.1-2017.11-x86_64_arm-eabi/arm-eabi/libc/usr/lib/libc.a(lib_a-syscalls.o)
_fclose_r                                         /opt/gcc-linaro-7.2.1-2017.11-x86_64_arm-eabi/arm-eabi/libc/usr/lib/libc.a(lib_a-fclose.o)
                                                  /opt/gcc-linaro-7.2.1-2017.11-x86_64_arm-eabi/arm-eabi/libc/usr/lib/libc.a(lib_a-findfp.o)
_fflush_r                                         /opt/gcc-linaro-7.2.1-2017.11-x86_64_arm-eabi/arm-eabi/libc/usr/lib/libc.a(lib_a-fflush.o)
                                                  /opt/gcc-linaro-7.2.1-2017.11-x86_64_arm-eabi/arm-eabi/libc/usr/lib/libc.a(lib_a-ungetc.o)
_findenv_r                                        /opt/gcc-linaro-7.2.1-2017.11-x86_64_arm-eabi/arm-eabi/libc/usr/lib/libc.a(lib_a-getenv_r.o)
_free_r                                           /opt/gcc-linaro-7.2.1-2017.11-x86_64_arm-eabi/arm-eabi/libc/usr/lib/libc.a(lib_a-freer.o)
                                                  /opt/gcc-linaro-7.2.1-2017.11-x86_64_arm-eabi/arm-eabi/libc/usr/lib/libc.a(lib_a-fclose.o)
                                                  /opt/gcc-linaro-7.2.1-2017.11-x86_64_arm-eabi/arm-eabi/libc/usr/lib/libc.a(lib_a-reallocr.o)
                                                  /opt/gcc-linaro-7.2.1-2017.11-x86_64_arm-eabi/arm-eabi/libc/usr/lib/libc.a(lib_a-fflush.o)
                                                  /opt/gcc-linaro-7.2.1-2017.11-x86_64_arm-eabi/arm-eabi/libc/usr/lib/libc.a(lib_a-svfiscanf.o)
                                                  /opt/gcc-linaro-7.2.1-2017.11-x86_64_arm-eabi/arm-eabi/libc/usr/lib/libc.a(lib_a-svfiprintf.o)
                                                  /opt/gcc-linaro-7.2.1-2017.11-x86_64_arm-eabi/arm-eabi/libc/usr/lib/libc.a(lib_a-reent.o)
                                                  /opt/gcc-linaro-7.2.1-2017.11-x86_64_arm-eabi/arm-eabi/libc/usr/lib/libc.a(lib_a-mallocr.o)
                                                  /opt/gcc-linaro-7.2.1-2017.11-x86_64_arm-eabi/arm-eabi/libc/usr/lib/libc.a(lib_a-svfprintf.o)
_fstat                                            /opt/gcc-linaro-7.2.1-2017.11-x86_64_arm-eabi/arm-eabi/libc/usr/lib/libc.a(lib_a-syscalls.o)
_fwalk                                            /opt/gcc-linaro-7.2.1-2017.11-x86_64_arm-eabi/arm-eabi/libc/usr/lib/libc.a(lib_a-fwalk.o)
                                                  /opt/gcc-linaro-7.2.1-2017.11-x86_64_arm-eabi/arm-eabi/libc/usr/lib/libc.a(lib_a-findfp.o)
_fwalk_reent                                      /opt/gcc-linaro-7.2.1-2017.11-x86_64_arm-eabi/arm-eabi/libc/usr/lib/libc.a(lib_a-fwalk.o)
                                                  /opt/gcc-linaro-7.2.1-2017.11-x86_64_arm-eabi/arm-eabi/libc/usr/lib/libc.a(lib_a-findfp.o)
                                                  /opt/gcc-linaro-7.2.1-2017.11-x86_64_arm-eabi/arm-eabi/libc/usr/lib/libc.a(lib_a-fflush.o)
_getenv_r                                         /opt/gcc-linaro-7.2.1-2017.11-x86_64_arm-eabi/arm-eabi/libc/usr/lib/libc.a(lib_a-getenv_r.o)
                                                  /opt/gcc-linaro-7.2.1-2017.11-x86_64_arm-eabi/arm-eabi/libc/usr/lib/libc.a(lib_a-locale.o)
_getpid                                           /opt/gcc-linaro-7.2.1-2017.11-x86_64_arm-eabi/arm-eabi/libc/usr/lib/libc.a(lib_a-syscalls.o)
_gettimeofday                                     /opt/gcc-linaro-7.2.1-2017.11-x86_64_arm-eabi/arm-eabi/libc/usr/lib/libc.a(lib_a-syscalls.o)
_global_impure_ptr                                /opt/gcc-linaro-7.2.1-2017.11-x86_64_arm-eabi/arm-eabi/libc/usr/lib/libc.a(lib_a-impure.o)
                                                  /opt/gcc-linaro-7.2.1-2017.11-x86_64_arm-eabi/arm-eabi/libc/usr/lib/libc.a(lib_a-findfp.o)
                                                  /opt/gcc-linaro-7.2.1-2017.11-x86_64_arm-eabi/arm-eabi/libc/usr/lib/libc.a(lib_a-fflush.o)
_impure_ptr                                       /opt/gcc-linaro-7.2.1-2017.11-x86_64_arm-eabi/arm-eabi/libc/usr/lib/libc.a(lib_a-impure.o)
                                                  /opt/gcc-linaro-7.2.1-2017.11-x86_64_arm-eabi/arm-eabi/libc/usr/lib/libc.a(lib_a-fclose.o)
                                                  /opt/gcc-linaro-7.2.1-2017.11-x86_64_arm-eabi/arm-eabi/libc/usr/lib/libc.a(lib_a-findfp.o)
                                                  /opt/gcc-linaro-7.2.1-2017.11-x86_64_arm-eabi/arm-eabi/libc/usr/lib/libc.a(lib_a-fflush.o)
                                                  /opt/gcc-linaro-7.2.1-2017.11-x86_64_arm-eabi/arm-eabi/libc/usr/lib/libc.a(lib_a-errno.o)
                                                  /opt/gcc-linaro-7.2.1-2017.11-x86_64_arm-eabi/arm-eabi/libc/usr/lib/libc.a(lib_a-wctomb_r.o)
                                                  /opt/gcc-linaro-7.2.1-2017.11-x86_64_arm-eabi/arm-eabi/libc/usr/lib/libc.a(lib_a-wcsnrtombs.o)
                                                  /opt/gcc-linaro-7.2.1-2017.11-x86_64_arm-eabi/arm-eabi/libc/usr/lib/libc.a(lib_a-ungetc.o)
                                                  /opt/gcc-linaro-7.2.1-2017.11-x86_64_arm-eabi/arm-eabi/libc/usr/lib/libc.a(lib_a-syscalls.o)
                                                  /opt/gcc-linaro-7.2.1-2017.11-x86_64_arm-eabi/arm-eabi/libc/usr/lib/libc.a(lib_a-svfiscanf.o)
                                                  /opt/gcc-linaro-7.2.1-2017.11-x86_64_arm-eabi/arm-eabi/libc/usr/lib/libc.a(lib_a-svfiprintf.o)
                                                  /opt/gcc-linaro-7.2.1-2017.11-x86_64_arm-eabi/arm-eabi/libc/usr/lib/libc.a(lib_a-strtoull.o)
                                                  /opt/gcc-linaro-7.2.1-2017.11-x86_64_arm-eabi/arm-eabi/libc/usr/lib/libc.a(lib_a-strtoll.o)
                                                  /opt/gcc-linaro-7.2.1-2017.11-x86_64_arm-eabi/arm-eabi/libc/usr/lib/libc.a(lib_a-strtod.o)
                                                  /opt/gcc-linaro-7.2.1-2017.11-x86_64_arm-eabi/arm-eabi/libc/usr/lib/libc.a(lib_a-reent.o)
                                                  /opt/gcc-linaro-7.2.1-2017.11-x86_64_arm-eabi/arm-eabi/libc/usr/lib/libc.a(lib_a-mbtowc_r.o)
                                                  /opt/gcc-linaro-7.2.1-2017.11-x86_64_arm-eabi/arm-eabi/libc/usr/lib/libc.a(lib_a-mbrtowc.o)
                                                  /opt/gcc-linaro-7.2.1-2017.11-x86_64_arm-eabi/arm-eabi/libc/usr/lib/libc.a(lib_a-localeconv.o)
                                                  /opt/gcc-linaro-7.2.1-2017.11-x86_64_arm-eabi/arm-eabi/libc/usr/lib/libc.a(lib_a-locale.o)
                                                  /opt/gcc-linaro-7.2.1-2017.11-x86_64_arm-eabi/arm-eabi/libc/usr/lib/libc.a(lib_a-jp2uc.o)
                                                  /opt/gcc-linaro-7.2.1-2017.11-x86_64_arm-eabi/arm-eabi/libc/usr/lib/libc.a(lib_a-wcsrtombs.o)
                                                  /opt/gcc-linaro-7.2.1-2017.11-x86_64_arm-eabi/arm-eabi/libc/usr/lib/libc.a(lib_a-wcrtomb.o)
                                                  /opt/gcc-linaro-7.2.1-2017.11-x86_64_arm-eabi/arm-eabi/libc/usr/lib/libc.a(lib_a-svfscanf.o)
                                                  /opt/gcc-linaro-7.2.1-2017.11-x86_64_arm-eabi/arm-eabi/libc/usr/lib/libc.a(lib_a-svfprintf.o)
                                                  /opt/gcc-linaro-7.2.1-2017.11-x86_64_arm-eabi/arm-eabi/libc/usr/lib/libc.a(lib_a-strtoul.o)
                                                  /opt/gcc-linaro-7.2.1-2017.11-x86_64_arm-eabi/arm-eabi/libc/usr/lib/libc.a(lib_a-strtol.o)
                                                  /opt/gcc-linaro-7.2.1-2017.11-x86_64_arm-eabi/arm-eabi/libc/usr/lib/libc.a(lib_a-sscanf.o)
                                                  /opt/gcc-linaro-7.2.1-2017.11-x86_64_arm-eabi/arm-eabi/libc/usr/lib/libc.a(lib_a-sprintf.o)
                                                  /opt/gcc-linaro-7.2.1-2017.11-x86_64_arm-eabi/arm-eabi/libc/usr/lib/libc.a(lib_a-snprintf.o)
_isatty                                           /opt/gcc-linaro-7.2.1-2017.11-x86_64_arm-eabi/arm-eabi/libc/usr/lib/libc.a(lib_a-syscalls.o)
_jp2uc                                            /opt/gcc-linaro-7.2.1-2017.11-x86_64_arm-eabi/arm-eabi/libc/usr/lib/libc.a(lib_a-jp2uc.o)
                                                  /opt/gcc-linaro-7.2.1-2017.11-x86_64_arm-eabi/arm-eabi/libc/usr/lib/libc.a(lib_a-iswspace.o)
_kill                                             /opt/gcc-linaro-7.2.1-2017.11-x86_64_arm-eabi/arm-eabi/libc/usr/lib/libc.a(lib_a-syscalls.o)
_link                                             /opt/gcc-linaro-7.2.1-2017.11-x86_64_arm-eabi/arm-eabi/libc/usr/lib/libc.a(lib_a-syscalls.o)
_localeconv_r                                     /opt/gcc-linaro-7.2.1-2017.11-x86_64_arm-eabi/arm-eabi/libc/usr/lib/libc.a(lib_a-localeconv.o)
                                                  /opt/gcc-linaro-7.2.1-2017.11-x86_64_arm-eabi/arm-eabi/libc/usr/lib/libc.a(lib_a-svfiprintf.o)
                                                  /opt/gcc-linaro-7.2.1-2017.11-x86_64_arm-eabi/arm-eabi/libc/usr/lib/libc.a(lib_a-svfscanf.o)
                                                  /opt/gcc-linaro-7.2.1-2017.11-x86_64_arm-eabi/arm-eabi/libc/usr/lib/libc.a(lib_a-svfprintf.o)
_lseek                                            /opt/gcc-linaro-7.2.1-2017.11-x86_64_arm-eabi/arm-eabi/libc/usr/lib/libc.a(lib_a-syscalls.o)
                                                  /opt/gcc-linaro-7.2.1-2017.11-x86_64_arm-eabi/arm-eabi/libc/usr/lib/libc.a(lib_a-lseekr.o)
_lseek_r                                          /opt/gcc-linaro-7.2.1-2017.11-x86_64_arm-eabi/arm-eabi/libc/usr/lib/libc.a(lib_a-lseekr.o)
                                                  /opt/gcc-linaro-7.2.1-2017.11-x86_64_arm-eabi/arm-eabi/libc/usr/lib/libc.a(lib_a-stdio.o)
_malloc_r                                         /opt/gcc-linaro-7.2.1-2017.11-x86_64_arm-eabi/arm-eabi/libc/usr/lib/libc.a(lib_a-mallocr.o)
                                                  /opt/gcc-linaro-7.2.1-2017.11-x86_64_arm-eabi/arm-eabi/libc/usr/lib/libc.a(lib_a-reallocr.o)
                                                  /opt/gcc-linaro-7.2.1-2017.11-x86_64_arm-eabi/arm-eabi/libc/usr/lib/libc.a(lib_a-findfp.o)
                                                  /opt/gcc-linaro-7.2.1-2017.11-x86_64_arm-eabi/arm-eabi/libc/usr/lib/libc.a(lib_a-callocr.o)
                                                  /opt/gcc-linaro-7.2.1-2017.11-x86_64_arm-eabi/arm-eabi/libc/usr/lib/libc.a(lib_a-ungetc.o)
                                                  /opt/gcc-linaro-7.2.1-2017.11-x86_64_arm-eabi/arm-eabi/libc/usr/lib/libc.a(lib_a-svfiprintf.o)
                                                  /opt/gcc-linaro-7.2.1-2017.11-x86_64_arm-eabi/arm-eabi/libc/usr/lib/libc.a(lib_a-svfprintf.o)
_malloc_trim_r                                    /opt/gcc-linaro-7.2.1-2017.11-x86_64_arm-eabi/arm-eabi/libc/usr/lib/libc.a(lib_a-freer.o)
_mbrtowc_r                                        /opt/gcc-linaro-7.2.1-2017.11-x86_64_arm-eabi/arm-eabi/libc/usr/lib/libc.a(lib_a-mbrtowc.o)
                                                  /opt/gcc-linaro-7.2.1-2017.11-x86_64_arm-eabi/arm-eabi/libc/usr/lib/libc.a(lib_a-svfiscanf.o)
                                                  /opt/gcc-linaro-7.2.1-2017.11-x86_64_arm-eabi/arm-eabi/libc/usr/lib/libc.a(lib_a-svfscanf.o)
_mbtowc_r                                         /opt/gcc-linaro-7.2.1-2017.11-x86_64_arm-eabi/arm-eabi/libc/usr/lib/libc.a(lib_a-mbtowc_r.o)
_mprec_log10                                      /opt/gcc-linaro-7.2.1-2017.11-x86_64_arm-eabi/arm-eabi/libc/usr/lib/libc.a(lib_a-mprec.o)
_open                                             /opt/gcc-linaro-7.2.1-2017.11-x86_64_arm-eabi/arm-eabi/libc/usr/lib/libc.a(lib_a-syscalls.o)
_raise                                            /opt/gcc-linaro-7.2.1-2017.11-x86_64_arm-eabi/arm-eabi/libc/usr/lib/libc.a(lib_a-syscalls.o)
_read                                             /opt/gcc-linaro-7.2.1-2017.11-x86_64_arm-eabi/arm-eabi/libc/usr/lib/libc.a(lib_a-syscalls.o)
                                                  /opt/gcc-linaro-7.2.1-2017.11-x86_64_arm-eabi/arm-eabi/libc/usr/lib/libc.a(lib_a-readr.o)
_read_r                                           /opt/gcc-linaro-7.2.1-2017.11-x86_64_arm-eabi/arm-eabi/libc/usr/lib/libc.a(lib_a-readr.o)
                                                  /opt/gcc-linaro-7.2.1-2017.11-x86_64_arm-eabi/arm-eabi/libc/usr/lib/libc.a(lib_a-stdio.o)
_realloc_r                                        /opt/gcc-linaro-7.2.1-2017.11-x86_64_arm-eabi/arm-eabi/libc/usr/lib/libc.a(lib_a-reallocr.o)
                                                  /opt/gcc-linaro-7.2.1-2017.11-x86_64_arm-eabi/arm-eabi/libc/usr/lib/libc.a(lib_a-ungetc.o)
                                                  /opt/gcc-linaro-7.2.1-2017.11-x86_64_arm-eabi/arm-eabi/libc/usr/lib/libc.a(lib_a-svfiprintf.o)
_reclaim_reent                                    /opt/gcc-linaro-7.2.1-2017.11-x86_64_arm-eabi/arm-eabi/libc/usr/lib/libc.a(lib_a-reent.o)
_rename                                           /opt/gcc-linaro-7.2.1-2017.11-x86_64_arm-eabi/arm-eabi/libc/usr/lib/libc.a(lib_a-syscalls.o)
_sbrk                                             /opt/gcc-linaro-7.2.1-2017.11-x86_64_arm-eabi/arm-eabi/libc/usr/lib/libc.a(lib_a-syscalls.o)
                                                  /opt/gcc-linaro-7.2.1-2017.11-x86_64_arm-eabi/arm-eabi/libc/usr/lib/libc.a(lib_a-sbrkr.o)
_sbrk_r                                           /opt/gcc-linaro-7.2.1-2017.11-x86_64_arm-eabi/arm-eabi/libc/usr/lib/libc.a(lib_a-sbrkr.o)
                                                  /opt/gcc-linaro-7.2.1-2017.11-x86_64_arm-eabi/arm-eabi/libc/usr/lib/libc.a(lib_a-mallocr.o)
                                                  /opt/gcc-linaro-7.2.1-2017.11-x86_64_arm-eabi/arm-eabi/libc/usr/lib/libc.a(lib_a-freer.o)
_setlocale_r                                      /opt/gcc-linaro-7.2.1-2017.11-x86_64_arm-eabi/arm-eabi/libc/usr/lib/libc.a(lib_a-locale.o)
_sfread_r                                         /opt/gcc-linaro-7.2.1-2017.11-x86_64_arm-eabi/arm-eabi/libc/usr/lib/libc.a(lib_a-svfiscanf.o)
                                                  /opt/gcc-linaro-7.2.1-2017.11-x86_64_arm-eabi/arm-eabi/libc/usr/lib/libc.a(lib_a-svfscanf.o)
_snprintf_r                                       /opt/gcc-linaro-7.2.1-2017.11-x86_64_arm-eabi/arm-eabi/libc/usr/lib/libc.a(lib_a-snprintf.o)
_sprintf_r                                        /opt/gcc-linaro-7.2.1-2017.11-x86_64_arm-eabi/arm-eabi/libc/usr/lib/libc.a(lib_a-sprintf.o)
_sscanf_r                                         /opt/gcc-linaro-7.2.1-2017.11-x86_64_arm-eabi/arm-eabi/libc/usr/lib/libc.a(lib_a-sscanf.o)
_start                                            ./../../../build/tcc70xx/gcc/tcc70xx-freertos-debug/obj/vector.o
_stat                                             /opt/gcc-linaro-7.2.1-2017.11-x86_64_arm-eabi/arm-eabi/libc/usr/lib/libc.a(lib_a-syscalls.o)
_strtod_l                                         /opt/gcc-linaro-7.2.1-2017.11-x86_64_arm-eabi/arm-eabi/libc/usr/lib/libc.a(lib_a-strtod.o)
_strtod_r                                         /opt/gcc-linaro-7.2.1-2017.11-x86_64_arm-eabi/arm-eabi/libc/usr/lib/libc.a(lib_a-strtod.o)
                                                  /opt/gcc-linaro-7.2.1-2017.11-x86_64_arm-eabi/arm-eabi/libc/usr/lib/libc.a(lib_a-svfscanf.o)
_strtol_r                                         /opt/gcc-linaro-7.2.1-2017.11-x86_64_arm-eabi/arm-eabi/libc/usr/lib/libc.a(lib_a-strtol.o)
                                                  /opt/gcc-linaro-7.2.1-2017.11-x86_64_arm-eabi/arm-eabi/libc/usr/lib/libc.a(lib_a-svfiscanf.o)
                                                  /opt/gcc-linaro-7.2.1-2017.11-x86_64_arm-eabi/arm-eabi/libc/usr/lib/libc.a(lib_a-svfscanf.o)
                                                  /opt/gcc-linaro-7.2.1-2017.11-x86_64_arm-eabi/arm-eabi/libc/usr/lib/libc.a(lib_a-atoi.o)
_strtoll_r                                        /opt/gcc-linaro-7.2.1-2017.11-x86_64_arm-eabi/arm-eabi/libc/usr/lib/libc.a(lib_a-strtoll.o)
                                                  /opt/gcc-linaro-7.2.1-2017.11-x86_64_arm-eabi/arm-eabi/libc/usr/lib/libc.a(lib_a-svfiscanf.o)
                                                  /opt/gcc-linaro-7.2.1-2017.11-x86_64_arm-eabi/arm-eabi/libc/usr/lib/libc.a(lib_a-svfscanf.o)
_strtoul_r                                        /opt/gcc-linaro-7.2.1-2017.11-x86_64_arm-eabi/arm-eabi/libc/usr/lib/libc.a(lib_a-strtoul.o)
                                                  /opt/gcc-linaro-7.2.1-2017.11-x86_64_arm-eabi/arm-eabi/libc/usr/lib/libc.a(lib_a-svfiscanf.o)
                                                  /opt/gcc-linaro-7.2.1-2017.11-x86_64_arm-eabi/arm-eabi/libc/usr/lib/libc.a(lib_a-svfscanf.o)
_strtoull_r                                       /opt/gcc-linaro-7.2.1-2017.11-x86_64_arm-eabi/arm-eabi/libc/usr/lib/libc.a(lib_a-strtoull.o)
                                                  /opt/gcc-linaro-7.2.1-2017.11-x86_64_arm-eabi/arm-eabi/libc/usr/lib/libc.a(lib_a-svfiscanf.o)
                                                  /opt/gcc-linaro-7.2.1-2017.11-x86_64_arm-eabi/arm-eabi/libc/usr/lib/libc.a(lib_a-svfscanf.o)
_sungetc_r                                        /opt/gcc-linaro-7.2.1-2017.11-x86_64_arm-eabi/arm-eabi/libc/usr/lib/libc.a(lib_a-svfiscanf.o)
                                                  /opt/gcc-linaro-7.2.1-2017.11-x86_64_arm-eabi/arm-eabi/libc/usr/lib/libc.a(lib_a-svfscanf.o)
_svfiprintf_r                                     /opt/gcc-linaro-7.2.1-2017.11-x86_64_arm-eabi/arm-eabi/libc/usr/lib/libc.a(lib_a-svfiprintf.o)
_svfprintf_r                                      /opt/gcc-linaro-7.2.1-2017.11-x86_64_arm-eabi/arm-eabi/libc/usr/lib/libc.a(lib_a-svfprintf.o)
                                                  /opt/gcc-linaro-7.2.1-2017.11-x86_64_arm-eabi/arm-eabi/libc/usr/lib/libc.a(lib_a-sprintf.o)
                                                  /opt/gcc-linaro-7.2.1-2017.11-x86_64_arm-eabi/arm-eabi/libc/usr/lib/libc.a(lib_a-snprintf.o)
_swiclose                                         /opt/gcc-linaro-7.2.1-2017.11-x86_64_arm-eabi/arm-eabi/libc/usr/lib/libc.a(lib_a-syscalls.o)
_swilseek                                         /opt/gcc-linaro-7.2.1-2017.11-x86_64_arm-eabi/arm-eabi/libc/usr/lib/libc.a(lib_a-syscalls.o)
_swiopen                                          /opt/gcc-linaro-7.2.1-2017.11-x86_64_arm-eabi/arm-eabi/libc/usr/lib/libc.a(lib_a-syscalls.o)
_swiread                                          /opt/gcc-linaro-7.2.1-2017.11-x86_64_arm-eabi/arm-eabi/libc/usr/lib/libc.a(lib_a-syscalls.o)
_swiwrite                                         /opt/gcc-linaro-7.2.1-2017.11-x86_64_arm-eabi/arm-eabi/libc/usr/lib/libc.a(lib_a-syscalls.o)
_system                                           /opt/gcc-linaro-7.2.1-2017.11-x86_64_arm-eabi/arm-eabi/libc/usr/lib/libc.a(lib_a-syscalls.o)
_times                                            /opt/gcc-linaro-7.2.1-2017.11-x86_64_arm-eabi/arm-eabi/libc/usr/lib/libc.a(lib_a-syscalls.o)
_ungetc_r                                         /opt/gcc-linaro-7.2.1-2017.11-x86_64_arm-eabi/arm-eabi/libc/usr/lib/libc.a(lib_a-ungetc.o)
_unlink                                           /opt/gcc-linaro-7.2.1-2017.11-x86_64_arm-eabi/arm-eabi/libc/usr/lib/libc.a(lib_a-syscalls.o)
_vector                                           ./../../../build/tcc70xx/gcc/tcc70xx-freertos-debug/obj/vector.o
_wcrtomb_r                                        /opt/gcc-linaro-7.2.1-2017.11-x86_64_arm-eabi/arm-eabi/libc/usr/lib/libc.a(lib_a-wcrtomb.o)
                                                  /opt/gcc-linaro-7.2.1-2017.11-x86_64_arm-eabi/arm-eabi/libc/usr/lib/libc.a(lib_a-svfiprintf.o)
                                                  /opt/gcc-linaro-7.2.1-2017.11-x86_64_arm-eabi/arm-eabi/libc/usr/lib/libc.a(lib_a-svfprintf.o)
_wcsnrtombs_l                                     /opt/gcc-linaro-7.2.1-2017.11-x86_64_arm-eabi/arm-eabi/libc/usr/lib/libc.a(lib_a-wcsnrtombs.o)
_wcsnrtombs_r                                     /opt/gcc-linaro-7.2.1-2017.11-x86_64_arm-eabi/arm-eabi/libc/usr/lib/libc.a(lib_a-wcsnrtombs.o)
                                                  /opt/gcc-linaro-7.2.1-2017.11-x86_64_arm-eabi/arm-eabi/libc/usr/lib/libc.a(lib_a-wcsrtombs.o)
_wcsrtombs_r                                      /opt/gcc-linaro-7.2.1-2017.11-x86_64_arm-eabi/arm-eabi/libc/usr/lib/libc.a(lib_a-wcsrtombs.o)
                                                  /opt/gcc-linaro-7.2.1-2017.11-x86_64_arm-eabi/arm-eabi/libc/usr/lib/libc.a(lib_a-svfiprintf.o)
                                                  /opt/gcc-linaro-7.2.1-2017.11-x86_64_arm-eabi/arm-eabi/libc/usr/lib/libc.a(lib_a-svfprintf.o)
_wctomb_r                                         /opt/gcc-linaro-7.2.1-2017.11-x86_64_arm-eabi/arm-eabi/libc/usr/lib/libc.a(lib_a-wctomb_r.o)
_write                                            /opt/gcc-linaro-7.2.1-2017.11-x86_64_arm-eabi/arm-eabi/libc/usr/lib/libc.a(lib_a-syscalls.o)
                                                  /opt/gcc-linaro-7.2.1-2017.11-x86_64_arm-eabi/arm-eabi/libc/usr/lib/libc.a(lib_a-writer.o)
_write_r                                          /opt/gcc-linaro-7.2.1-2017.11-x86_64_arm-eabi/arm-eabi/libc/usr/lib/libc.a(lib_a-writer.o)
                                                  /opt/gcc-linaro-7.2.1-2017.11-x86_64_arm-eabi/arm-eabi/libc/usr/lib/libc.a(lib_a-stdio.o)
atoi                                              /opt/gcc-linaro-7.2.1-2017.11-x86_64_arm-eabi/arm-eabi/libc/usr/lib/libc.a(lib_a-atoi.o)
                                                  ./../../../build/tcc70xx/gcc/tcc70xx-freertos-debug/obj/hsm_test.o
                                                  ./../../../build/tcc70xx/gcc/tcc70xx-freertos-debug/obj/audio_test.o
backup_rxbuf_addr                                 ./../../../build/tcc70xx/gcc/tcc70xx-freertos-debug/obj/eth.o
benchmarkBuf                                      ./../../../build/tcc70xx/gcc/tcc70xx-freertos-debug/obj/hsm_test.o
cleanup_glue                                      /opt/gcc-linaro-7.2.1-2017.11-x86_64_arm-eabi/arm-eabi/libc/usr/lib/libc.a(lib_a-reent.o)
cmain                                             ./../../../build/tcc70xx/gcc/tcc70xx-freertos-debug/obj/main.o
                                                  ./../../../build/tcc70xx/gcc/tcc70xx-freertos-debug/obj/startup.o
dbgTags                                           ./../../../build/tcc70xx/gcc/tcc70xx-freertos-debug/obj/debug.o
                                                  ./../../../build/tcc70xx/gcc/tcc70xx-freertos-debug/obj/sal_freertos_impl.o
                                                  ./../../../build/tcc70xx/gcc/tcc70xx-freertos-debug/obj/wdt_pmu.o
                                                  ./../../../build/tcc70xx/gcc/tcc70xx-freertos-debug/obj/wdt.o
                                                  ./../../../build/tcc70xx/gcc/tcc70xx-freertos-debug/obj/uart.o
                                                  ./../../../build/tcc70xx/gcc/tcc70xx-freertos-debug/obj/timer.o
                                                  ./../../../build/tcc70xx/gcc/tcc70xx-freertos-debug/obj/ssm.o
                                                  ./../../../build/tcc70xx/gcc/tcc70xx-freertos-debug/obj/spu.o
                                                  ./../../../build/tcc70xx/gcc/tcc70xx-freertos-debug/obj/snor_mio.o
                                                  ./../../../build/tcc70xx/gcc/tcc70xx-freertos-debug/obj/pdm.o
                                                  ./../../../build/tcc70xx/gcc/tcc70xx-freertos-debug/obj/ictc.o
                                                  ./../../../build/tcc70xx/gcc/tcc70xx-freertos-debug/obj/i2s.o
                                                  ./../../../build/tcc70xx/gcc/tcc70xx-freertos-debug/obj/i2c.o
                                                  ./../../../build/tcc70xx/gcc/tcc70xx-freertos-debug/obj/gpsb.o
                                                  ./../../../build/tcc70xx/gcc/tcc70xx-freertos-debug/obj/gpio.o
                                                  ./../../../build/tcc70xx/gcc/tcc70xx-freertos-debug/obj/fmu.o
                                                  ./../../../build/tcc70xx/gcc/tcc70xx-freertos-debug/obj/eth.o
                                                  ./../../../build/tcc70xx/gcc/tcc70xx-freertos-debug/obj/eflash.o
                                                  ./../../../build/tcc70xx/gcc/tcc70xx-freertos-debug/obj/dse.o
                                                  ./../../../build/tcc70xx/gcc/tcc70xx-freertos-debug/obj/can_drv.o
                                                  ./../../../build/tcc70xx/gcc/tcc70xx-freertos-debug/obj/can.o
                                                  ./../../../build/tcc70xx/gcc/tcc70xx-freertos-debug/obj/adc.o
                                                  ./../../../build/tcc70xx/gcc/tcc70xx-freertos-debug/obj/lin.o
                                                  ./../../../build/tcc70xx/gcc/tcc70xx-freertos-debug/obj/gdma_test.o
                                                  ./../../../build/tcc70xx/gcc/tcc70xx-freertos-debug/obj/console.o
                                                  ./../../../build/tcc70xx/gcc/tcc70xx-freertos-debug/obj/can_demo.o
eARPGetCacheEntry                                 ./../../../build/tcc70xx/gcc/tcc70xx-freertos-debug/obj/FreeRTOS_ARP.o
                                                  ./../../../build/tcc70xx/gcc/tcc70xx-freertos-debug/obj/FreeRTOS_UDP_IP.o
                                                  ./../../../build/tcc70xx/gcc/tcc70xx-freertos-debug/obj/FreeRTOS_TCP_IP.o
eARPProcessPacket                                 ./../../../build/tcc70xx/gcc/tcc70xx-freertos-debug/obj/FreeRTOS_ARP.o
                                                  ./../../../build/tcc70xx/gcc/tcc70xx-freertos-debug/obj/FreeRTOS_IP.o
eConsiderFrameForProcessing                       ./../../../build/tcc70xx/gcc/tcc70xx-freertos-debug/obj/FreeRTOS_IP.o
                                                  ./../../../build/tcc70xx/gcc/tcc70xx-freertos-debug/obj/NetworkInterface.o
eTaskGetState                                     ./../../../build/tcc70xx/gcc/tcc70xx-freertos-debug/obj/tasks.o
end                                               /opt/gcc-linaro-7.2.1-2017.11-x86_64_arm-eabi/arm-eabi/libc/usr/lib/libc.a(lib_a-syscalls.o)
environ                                           /opt/gcc-linaro-7.2.1-2017.11-x86_64_arm-eabi/arm-eabi/libc/usr/lib/libc.a(lib_a-environ.o)
                                                  /opt/gcc-linaro-7.2.1-2017.11-x86_64_arm-eabi/arm-eabi/libc/usr/lib/libc.a(lib_a-getenv_r.o)
errno                                             /opt/gcc-linaro-7.2.1-2017.11-x86_64_arm-eabi/arm-eabi/libc/usr/lib/libc.a(lib_a-reent.o)
                                                  /opt/gcc-linaro-7.2.1-2017.11-x86_64_arm-eabi/arm-eabi/libc/usr/lib/libc.a(lib_a-sbrkr.o)
                                                  /opt/gcc-linaro-7.2.1-2017.11-x86_64_arm-eabi/arm-eabi/libc/usr/lib/libc.a(lib_a-readr.o)
                                                  /opt/gcc-linaro-7.2.1-2017.11-x86_64_arm-eabi/arm-eabi/libc/usr/lib/libc.a(lib_a-lseekr.o)
                                                  /opt/gcc-linaro-7.2.1-2017.11-x86_64_arm-eabi/arm-eabi/libc/usr/lib/libc.a(lib_a-closer.o)
                                                  /opt/gcc-linaro-7.2.1-2017.11-x86_64_arm-eabi/arm-eabi/libc/usr/lib/libc.a(lib_a-writer.o)
fabsf                                             /opt/gcc-linaro-7.2.1-2017.11-x86_64_arm-eabi/arm-eabi/libc/usr/lib/libm.a(lib_a-sf_fabs.o)
                                                  ./../../../build/tcc70xx/gcc/tcc70xx-freertos-debug/obj/cpu_test.o
fclose                                            /opt/gcc-linaro-7.2.1-2017.11-x86_64_arm-eabi/arm-eabi/libc/usr/lib/libc.a(lib_a-fclose.o)
fflush                                            /opt/gcc-linaro-7.2.1-2017.11-x86_64_arm-eabi/arm-eabi/libc/usr/lib/libc.a(lib_a-fflush.o)
frexp                                             /opt/gcc-linaro-7.2.1-2017.11-x86_64_arm-eabi/arm-eabi/libc/usr/lib/libc.a(lib_a-s_frexp.o)
                                                  /opt/gcc-linaro-7.2.1-2017.11-x86_64_arm-eabi/arm-eabi/libc/usr/lib/libc.a(lib_a-svfprintf.o)
gALiveMsgOnOff                                    ./../../../build/tcc70xx/gcc/tcc70xx-freertos-debug/obj/main.o
                                                  ./../../../build/tcc70xx/gcc/tcc70xx-freertos-debug/obj/console.o
gAudioRunning                                     ./../../../build/tcc70xx/gcc/tcc70xx-freertos-debug/obj/audio_test.o
gDataBuffer                                       ./../../../build/tcc70xx/gcc/tcc70xx-freertos-debug/obj/fwupdate.o
gDebugOption                                      ./../../../build/tcc70xx/gcc/tcc70xx-freertos-debug/obj/debug.o
                                                  ./../../../build/tcc70xx/gcc/tcc70xx-freertos-debug/obj/sal_freertos_impl.o
                                                  ./../../../build/tcc70xx/gcc/tcc70xx-freertos-debug/obj/wdt_pmu.o
                                                  ./../../../build/tcc70xx/gcc/tcc70xx-freertos-debug/obj/wdt.o
                                                  ./../../../build/tcc70xx/gcc/tcc70xx-freertos-debug/obj/uart.o
                                                  ./../../../build/tcc70xx/gcc/tcc70xx-freertos-debug/obj/timer.o
                                                  ./../../../build/tcc70xx/gcc/tcc70xx-freertos-debug/obj/ssm.o
                                                  ./../../../build/tcc70xx/gcc/tcc70xx-freertos-debug/obj/spu.o
                                                  ./../../../build/tcc70xx/gcc/tcc70xx-freertos-debug/obj/snor_mio.o
                                                  ./../../../build/tcc70xx/gcc/tcc70xx-freertos-debug/obj/pdm.o
                                                  ./../../../build/tcc70xx/gcc/tcc70xx-freertos-debug/obj/ictc.o
                                                  ./../../../build/tcc70xx/gcc/tcc70xx-freertos-debug/obj/i2s.o
                                                  ./../../../build/tcc70xx/gcc/tcc70xx-freertos-debug/obj/i2c.o
                                                  ./../../../build/tcc70xx/gcc/tcc70xx-freertos-debug/obj/gpsb.o
                                                  ./../../../build/tcc70xx/gcc/tcc70xx-freertos-debug/obj/gpio.o
                                                  ./../../../build/tcc70xx/gcc/tcc70xx-freertos-debug/obj/fmu.o
                                                  ./../../../build/tcc70xx/gcc/tcc70xx-freertos-debug/obj/eth.o
                                                  ./../../../build/tcc70xx/gcc/tcc70xx-freertos-debug/obj/eflash.o
                                                  ./../../../build/tcc70xx/gcc/tcc70xx-freertos-debug/obj/dse.o
                                                  ./../../../build/tcc70xx/gcc/tcc70xx-freertos-debug/obj/can_drv.o
                                                  ./../../../build/tcc70xx/gcc/tcc70xx-freertos-debug/obj/can.o
                                                  ./../../../build/tcc70xx/gcc/tcc70xx-freertos-debug/obj/adc.o
                                                  ./../../../build/tcc70xx/gcc/tcc70xx-freertos-debug/obj/lin.o
                                                  ./../../../build/tcc70xx/gcc/tcc70xx-freertos-debug/obj/gdma_test.o
                                                  ./../../../build/tcc70xx/gcc/tcc70xx-freertos-debug/obj/console.o
                                                  ./../../../build/tcc70xx/gcc/tcc70xx-freertos-debug/obj/can_demo.o
gPOWERAPPMps                                      ./../../../build/tcc70xx/gcc/tcc70xx-freertos-debug/obj/power_app.o
gReplay                                           ./../../../build/tcc70xx/gcc/tcc70xx-freertos-debug/obj/audio_test.o
gSALCoreTable                                     ./../../../build/tcc70xx/gcc/tcc70xx-freertos-debug/obj/sal_api.o
                                                  ./../../../build/tcc70xx/gcc/tcc70xx-freertos-debug/obj/port.o
                                                  ./../../../build/tcc70xx/gcc/tcc70xx-freertos-debug/obj/i2c.o
                                                  ./../../../build/tcc70xx/gcc/tcc70xx-freertos-debug/obj/gpsb.o
                                                  ./../../../build/tcc70xx/gcc/tcc70xx-freertos-debug/obj/gic.o
                                                  ./../../../build/tcc70xx/gcc/tcc70xx-freertos-debug/obj/bsp.o
                                                  ./../../../build/tcc70xx/gcc/tcc70xx-freertos-debug/obj/clock_dev.o
                                                  ./../../../build/tcc70xx/gcc/tcc70xx-freertos-debug/obj/lin.o
                                                  ./../../../build/tcc70xx/gcc/tcc70xx-freertos-debug/obj/fwupdate.o
gSALDataStructTable                               ./../../../build/tcc70xx/gcc/tcc70xx-freertos-debug/obj/sal_api.o
                                                  ./../../../build/tcc70xx/gcc/tcc70xx-freertos-debug/obj/spi_eccp.o
gSALEtcTable                                      ./../../../build/tcc70xx/gcc/tcc70xx-freertos-debug/obj/sal_api.o
                                                  ./../../../build/tcc70xx/gcc/tcc70xx-freertos-debug/obj/timer_test.o
                                                  ./../../../build/tcc70xx/gcc/tcc70xx-freertos-debug/obj/hsm_test.o
                                                  ./../../../build/tcc70xx/gcc/tcc70xx-freertos-debug/obj/eflash_test.o
                                                  ./../../../build/tcc70xx/gcc/tcc70xx-freertos-debug/obj/fwupdate.o
                                                  ./../../../build/tcc70xx/gcc/tcc70xx-freertos-debug/obj/main.o
gSALFileTable                                     ./../../../build/tcc70xx/gcc/tcc70xx-freertos-debug/obj/sal_api.o
gSALMemoryTable                                   ./../../../build/tcc70xx/gcc/tcc70xx-freertos-debug/obj/sal_api.o
                                                  ./../../../build/tcc70xx/gcc/tcc70xx-freertos-debug/obj/uart.o
                                                  ./../../../build/tcc70xx/gcc/tcc70xx-freertos-debug/obj/timer.o
                                                  ./../../../build/tcc70xx/gcc/tcc70xx-freertos-debug/obj/snor_mio.o
                                                  ./../../../build/tcc70xx/gcc/tcc70xx-freertos-debug/obj/pdm.o
                                                  ./../../../build/tcc70xx/gcc/tcc70xx-freertos-debug/obj/ictc.o
                                                  ./../../../build/tcc70xx/gcc/tcc70xx-freertos-debug/obj/i2s.o
                                                  ./../../../build/tcc70xx/gcc/tcc70xx-freertos-debug/obj/i2c.o
                                                  ./../../../build/tcc70xx/gcc/tcc70xx-freertos-debug/obj/gpsb.o
                                                  ./../../../build/tcc70xx/gcc/tcc70xx-freertos-debug/obj/eflash.o
                                                  ./../../../build/tcc70xx/gcc/tcc70xx-freertos-debug/obj/clock_dev.o
                                                  ./../../../build/tcc70xx/gcc/tcc70xx-freertos-debug/obj/can_porting.o
                                                  ./../../../build/tcc70xx/gcc/tcc70xx-freertos-debug/obj/can_msg.o
                                                  ./../../../build/tcc70xx/gcc/tcc70xx-freertos-debug/obj/can_drv.o
                                                  ./../../../build/tcc70xx/gcc/tcc70xx-freertos-debug/obj/lin.o
                                                  ./../../../build/tcc70xx/gcc/tcc70xx-freertos-debug/obj/hsm_manager.o
                                                  ./../../../build/tcc70xx/gcc/tcc70xx-freertos-debug/obj/spi_eccp.o
                                                  ./../../../build/tcc70xx/gcc/tcc70xx-freertos-debug/obj/spu_test.o
                                                  ./../../../build/tcc70xx/gcc/tcc70xx-freertos-debug/obj/uart_test.o
                                                  ./../../../build/tcc70xx/gcc/tcc70xx-freertos-debug/obj/echo_test.o
                                                  ./../../../build/tcc70xx/gcc/tcc70xx-freertos-debug/obj/lin_test.o
                                                  ./../../../build/tcc70xx/gcc/tcc70xx-freertos-debug/obj/hsm_test.o
                                                  ./../../../build/tcc70xx/gcc/tcc70xx-freertos-debug/obj/gpsb_test.o
                                                  ./../../../build/tcc70xx/gcc/tcc70xx-freertos-debug/obj/eflash_test.o
                                                  ./../../../build/tcc70xx/gcc/tcc70xx-freertos-debug/obj/audio_chip_veri.o
                                                  ./../../../build/tcc70xx/gcc/tcc70xx-freertos-debug/obj/audio_test.o
                                                  ./../../../build/tcc70xx/gcc/tcc70xx-freertos-debug/obj/fwupdate.o
                                                  ./../../../build/tcc70xx/gcc/tcc70xx-freertos-debug/obj/console.o
                                                  ./../../../build/tcc70xx/gcc/tcc70xx-freertos-debug/obj/can_demo.o
gSALOSRunTable                                    ./../../../build/tcc70xx/gcc/tcc70xx-freertos-debug/obj/sal_api.o
                                                  ./../../../build/tcc70xx/gcc/tcc70xx-freertos-debug/obj/main.o
gSALSocketTable                                   ./../../../build/tcc70xx/gcc/tcc70xx-freertos-debug/obj/sal_api.o
gSALSyncObjectTable                               ./../../../build/tcc70xx/gcc/tcc70xx-freertos-debug/obj/sal_api.o
                                                  ./../../../build/tcc70xx/gcc/tcc70xx-freertos-debug/obj/pmio_dev.o
                                                  ./../../../build/tcc70xx/gcc/tcc70xx-freertos-debug/obj/spi_eccp.o
                                                  ./../../../build/tcc70xx/gcc/tcc70xx-freertos-debug/obj/power_com.o
gSALTaskTable                                     ./../../../build/tcc70xx/gcc/tcc70xx-freertos-debug/obj/sal_api.o
                                                  ./../../../build/tcc70xx/gcc/tcc70xx-freertos-debug/obj/snor_mio.o
                                                  ./../../../build/tcc70xx/gcc/tcc70xx-freertos-debug/obj/pmio_dev.o
                                                  ./../../../build/tcc70xx/gcc/tcc70xx-freertos-debug/obj/eth.o
                                                  ./../../../build/tcc70xx/gcc/tcc70xx-freertos-debug/obj/adc.o
                                                  ./../../../build/tcc70xx/gcc/tcc70xx-freertos-debug/obj/spi_eccp.o
                                                  ./../../../build/tcc70xx/gcc/tcc70xx-freertos-debug/obj/power_com.o
                                                  ./../../../build/tcc70xx/gcc/tcc70xx-freertos-debug/obj/spu_test.o
                                                  ./../../../build/tcc70xx/gcc/tcc70xx-freertos-debug/obj/wdt_test.o
                                                  ./../../../build/tcc70xx/gcc/tcc70xx-freertos-debug/obj/echo_test.o
                                                  ./../../../build/tcc70xx/gcc/tcc70xx-freertos-debug/obj/pdm_test.o
                                                  ./../../../build/tcc70xx/gcc/tcc70xx-freertos-debug/obj/lin_test.o
                                                  ./../../../build/tcc70xx/gcc/tcc70xx-freertos-debug/obj/ictc_test.o
                                                  ./../../../build/tcc70xx/gcc/tcc70xx-freertos-debug/obj/gpsb_test.o
                                                  ./../../../build/tcc70xx/gcc/tcc70xx-freertos-debug/obj/wm8904.o
                                                  ./../../../build/tcc70xx/gcc/tcc70xx-freertos-debug/obj/audio_test.o
                                                  ./../../../build/tcc70xx/gcc/tcc70xx-freertos-debug/obj/spi_led.o
                                                  ./../../../build/tcc70xx/gcc/tcc70xx-freertos-debug/obj/idle.o
                                                  ./../../../build/tcc70xx/gcc/tcc70xx-freertos-debug/obj/fwupdate.o
                                                  ./../../../build/tcc70xx/gcc/tcc70xx-freertos-debug/obj/console.o
                                                  ./../../../build/tcc70xx/gcc/tcc70xx-freertos-debug/obj/can_demo.o
                                                  ./../../../build/tcc70xx/gcc/tcc70xx-freertos-debug/obj/main.o
gSALTraceTable                                    ./../../../build/tcc70xx/gcc/tcc70xx-freertos-debug/obj/sal_api.o
                                                  ./../../../build/tcc70xx/gcc/tcc70xx-freertos-debug/obj/wdt_pmu.o
                                                  ./../../../build/tcc70xx/gcc/tcc70xx-freertos-debug/obj/wdt.o
                                                  ./../../../build/tcc70xx/gcc/tcc70xx-freertos-debug/obj/uart.o
                                                  ./../../../build/tcc70xx/gcc/tcc70xx-freertos-debug/obj/timer.o
                                                  ./../../../build/tcc70xx/gcc/tcc70xx-freertos-debug/obj/gdma.o
                                                  ./../../../build/tcc70xx/gcc/tcc70xx-freertos-debug/obj/timer_test.o
gWait_irq                                         ./../../../build/tcc70xx/gcc/tcc70xx-freertos-debug/obj/dse.o
                                                  ./../../../build/tcc70xx/gcc/tcc70xx-freertos-debug/obj/dse_test.o
g_Audio_Sample                                    ./../../../build/tcc70xx/gcc/tcc70xx-freertos-debug/obj/audio_test.o
gfHandler                                         ./../../../build/tcc70xx/gcc/tcc70xx-freertos-debug/obj/rtc_dev.o
gpLinResFunc                                      ./../../../build/tcc70xx/gcc/tcc70xx-freertos-debug/obj/lin.o
gpsb                                              ./../../../build/tcc70xx/gcc/tcc70xx-freertos-debug/obj/gpsb_reg.o
                                                  ./../../../build/tcc70xx/gcc/tcc70xx-freertos-debug/obj/gpsb.o
gpsb_sm                                           ./../../../build/tcc70xx/gcc/tcc70xx-freertos-debug/obj/gpsb_reg.o
                                                  ./../../../build/tcc70xx/gcc/tcc70xx-freertos-debug/obj/gpsb.o
gpsbport                                          ./../../../build/tcc70xx/gcc/tcc70xx-freertos-debug/obj/gpsb_reg.o
                                                  ./../../../build/tcc70xx/gcc/tcc70xx-freertos-debug/obj/gpsb.o
                                                  ./../../../build/tcc70xx/gcc/tcc70xx-freertos-debug/obj/spi_eccp.o
gtPMIONoti                                        ./../../../build/tcc70xx/gcc/tcc70xx-freertos-debug/obj/pmio_dev.o
h_mac                                             ./../../../build/tcc70xx/gcc/tcc70xx-freertos-debug/obj/eth.o
heap_init                                         ./../../../build/tcc70xx/gcc/tcc70xx-freertos-debug/obj/port.o
                                                  ./../../../build/tcc70xx/gcc/tcc70xx-freertos-debug/obj/sal_freertos_impl.o
hsm_dev                                           ./../../../build/tcc70xx/gcc/tcc70xx-freertos-debug/obj/hsm_manager.o
i2c                                               ./../../../build/tcc70xx/gcc/tcc70xx-freertos-debug/obj/i2c_reg.o
                                                  ./../../../build/tcc70xx/gcc/tcc70xx-freertos-debug/obj/i2c.o
initialise_monitor_handles                        /opt/gcc-linaro-7.2.1-2017.11-x86_64_arm-eabi/arm-eabi/libc/usr/lib/libc.a(lib_a-syscalls.o)
initialized                                       ./../../../build/tcc70xx/gcc/tcc70xx-freertos-debug/obj/eth.o
iswspace                                          /opt/gcc-linaro-7.2.1-2017.11-x86_64_arm-eabi/arm-eabi/libc/usr/lib/libc.a(lib_a-iswspace.o)
                                                  /opt/gcc-linaro-7.2.1-2017.11-x86_64_arm-eabi/arm-eabi/libc/usr/lib/libc.a(lib_a-svfiscanf.o)
                                                  /opt/gcc-linaro-7.2.1-2017.11-x86_64_arm-eabi/arm-eabi/libc/usr/lib/libc.a(lib_a-svfscanf.o)
lTCPAddRxdata                                     ./../../../build/tcc70xx/gcc/tcc70xx-freertos-debug/obj/FreeRTOS_Sockets.o
                                                  ./../../../build/tcc70xx/gcc/tcc70xx-freertos-debug/obj/FreeRTOS_TCP_IP.o
lTCPWindowRxCheck                                 ./../../../build/tcc70xx/gcc/tcc70xx-freertos-debug/obj/FreeRTOS_TCP_WIN.o
                                                  ./../../../build/tcc70xx/gcc/tcc70xx-freertos-debug/obj/FreeRTOS_TCP_IP.o
lTCPWindowTxAdd                                   ./../../../build/tcc70xx/gcc/tcc70xx-freertos-debug/obj/FreeRTOS_TCP_WIN.o
                                                  ./../../../build/tcc70xx/gcc/tcc70xx-freertos-debug/obj/FreeRTOS_TCP_IP.o
localeconv                                        /opt/gcc-linaro-7.2.1-2017.11-x86_64_arm-eabi/arm-eabi/libc/usr/lib/libc.a(lib_a-localeconv.o)
mbrtowc                                           /opt/gcc-linaro-7.2.1-2017.11-x86_64_arm-eabi/arm-eabi/libc/usr/lib/libc.a(lib_a-mbrtowc.o)
memchr                                            /opt/gcc-linaro-7.2.1-2017.11-x86_64_arm-eabi/arm-eabi/libc/usr/lib/libc.a(lib_a-memchr-stub.o)
                                                  /opt/gcc-linaro-7.2.1-2017.11-x86_64_arm-eabi/arm-eabi/libc/usr/lib/libc.a(lib_a-svfiprintf.o)
                                                  /opt/gcc-linaro-7.2.1-2017.11-x86_64_arm-eabi/arm-eabi/libc/usr/lib/libc.a(lib_a-svfprintf.o)
memcmp                                            /opt/gcc-linaro-7.2.1-2017.11-x86_64_arm-eabi/arm-eabi/libc/usr/lib/libc.a(lib_a-memcmp.o)
                                                  ./../../../build/tcc70xx/gcc/tcc70xx-freertos-debug/obj/sal_freertos_impl.o
                                                  ./../../../build/tcc70xx/gcc/tcc70xx-freertos-debug/obj/FreeRTOS_IP.o
                                                  ./../../../build/tcc70xx/gcc/tcc70xx-freertos-debug/obj/FreeRTOS_ARP.o
memcpy                                            /opt/gcc-linaro-7.2.1-2017.11-x86_64_arm-eabi/arm-eabi/libc/usr/lib/libc.a(lib_a-memcpy-stub.o)
                                                  /opt/gcc-linaro-7.2.1-2017.11-x86_64_arm-eabi/arm-eabi/libc/usr/lib/libc.a(lib_a-gdtoa-gethex.o)
                                                  /opt/gcc-linaro-7.2.1-2017.11-x86_64_arm-eabi/arm-eabi/libc/usr/lib/libc.a(lib_a-ungetc.o)
                                                  /opt/gcc-linaro-7.2.1-2017.11-x86_64_arm-eabi/arm-eabi/libc/usr/lib/libc.a(lib_a-svfiscanf.o)
                                                  /opt/gcc-linaro-7.2.1-2017.11-x86_64_arm-eabi/arm-eabi/libc/usr/lib/libc.a(lib_a-svfiprintf.o)
                                                  /opt/gcc-linaro-7.2.1-2017.11-x86_64_arm-eabi/arm-eabi/libc/usr/lib/libc.a(lib_a-strtod.o)
                                                  /opt/gcc-linaro-7.2.1-2017.11-x86_64_arm-eabi/arm-eabi/libc/usr/lib/libc.a(lib_a-mprec.o)
                                                  /opt/gcc-linaro-7.2.1-2017.11-x86_64_arm-eabi/arm-eabi/libc/usr/lib/libc.a(lib_a-dtoa.o)
                                                  ./../../../build/tcc70xx/gcc/tcc70xx-freertos-debug/obj/sal_freertos_impl.o
                                                  ./../../../build/tcc70xx/gcc/tcc70xx-freertos-debug/obj/sal_api.o
                                                  ./../../../build/tcc70xx/gcc/tcc70xx-freertos-debug/obj/FreeRTOS_UDP_IP.o
                                                  ./../../../build/tcc70xx/gcc/tcc70xx-freertos-debug/obj/FreeRTOS_TCP_IP.o
                                                  ./../../../build/tcc70xx/gcc/tcc70xx-freertos-debug/obj/FreeRTOS_Stream_Buffer.o
                                                  ./../../../build/tcc70xx/gcc/tcc70xx-freertos-debug/obj/FreeRTOS_Sockets.o
                                                  ./../../../build/tcc70xx/gcc/tcc70xx-freertos-debug/obj/FreeRTOS_IP.o
                                                  ./../../../build/tcc70xx/gcc/tcc70xx-freertos-debug/obj/FreeRTOS_DNS.o
                                                  ./../../../build/tcc70xx/gcc/tcc70xx-freertos-debug/obj/FreeRTOS_ARP.o
                                                  ./../../../build/tcc70xx/gcc/tcc70xx-freertos-debug/obj/stream_buffer.o
                                                  ./../../../build/tcc70xx/gcc/tcc70xx-freertos-debug/obj/queue.o
                                                  ./../../../build/tcc70xx/gcc/tcc70xx-freertos-debug/obj/iperf_task_v3_0d.o
memmove                                           /opt/gcc-linaro-7.2.1-2017.11-x86_64_arm-eabi/arm-eabi/libc/usr/lib/libc.a(lib_a-memmove.o)
                                                  /opt/gcc-linaro-7.2.1-2017.11-x86_64_arm-eabi/arm-eabi/libc/usr/lib/libc.a(lib_a-reallocr.o)
                                                  /opt/gcc-linaro-7.2.1-2017.11-x86_64_arm-eabi/arm-eabi/libc/usr/lib/libc.a(lib_a-svfiprintf.o)
                                                  ./../../../build/tcc70xx/gcc/tcc70xx-freertos-debug/obj/FreeRTOS_IP.o
memset                                            /opt/gcc-linaro-7.2.1-2017.11-x86_64_arm-eabi/arm-eabi/libc/usr/lib/libc.a(lib_a-memset.o)
                                                  /opt/gcc-linaro-7.2.1-2017.11-x86_64_arm-eabi/arm-eabi/libc/usr/lib/libc.a(lib_a-findfp.o)
                                                  /opt/gcc-linaro-7.2.1-2017.11-x86_64_arm-eabi/arm-eabi/libc/usr/lib/libc.a(lib_a-callocr.o)
                                                  /opt/gcc-linaro-7.2.1-2017.11-x86_64_arm-eabi/arm-eabi/libc/usr/lib/libc.a(lib_a-syscalls.o)
                                                  /opt/gcc-linaro-7.2.1-2017.11-x86_64_arm-eabi/arm-eabi/libc/usr/lib/libc.a(lib_a-svfiscanf.o)
                                                  /opt/gcc-linaro-7.2.1-2017.11-x86_64_arm-eabi/arm-eabi/libc/usr/lib/libc.a(lib_a-svfiprintf.o)
                                                  /opt/gcc-linaro-7.2.1-2017.11-x86_64_arm-eabi/arm-eabi/libc/usr/lib/libc.a(lib_a-svfscanf.o)
                                                  /opt/gcc-linaro-7.2.1-2017.11-x86_64_arm-eabi/arm-eabi/libc/usr/lib/libc.a(lib_a-svfprintf.o)
                                                  ./../../../build/tcc70xx/gcc/tcc70xx-freertos-debug/obj/sal_freertos_impl.o
                                                  ./../../../build/tcc70xx/gcc/tcc70xx-freertos-debug/obj/FreeRTOS_TCP_WIN.o
                                                  ./../../../build/tcc70xx/gcc/tcc70xx-freertos-debug/obj/FreeRTOS_TCP_IP.o
                                                  ./../../../build/tcc70xx/gcc/tcc70xx-freertos-debug/obj/FreeRTOS_Sockets.o
                                                  ./../../../build/tcc70xx/gcc/tcc70xx-freertos-debug/obj/FreeRTOS_DNS.o
                                                  ./../../../build/tcc70xx/gcc/tcc70xx-freertos-debug/obj/FreeRTOS_ARP.o
                                                  ./../../../build/tcc70xx/gcc/tcc70xx-freertos-debug/obj/stream_buffer.o
                                                  ./../../../build/tcc70xx/gcc/tcc70xx-freertos-debug/obj/tasks.o
                                                  ./../../../build/tcc70xx/gcc/tcc70xx-freertos-debug/obj/snor_mio.o
                                                  ./../../../build/tcc70xx/gcc/tcc70xx-freertos-debug/obj/mpu.o
                                                  ./../../../build/tcc70xx/gcc/tcc70xx-freertos-debug/obj/eth.o
                                                  ./../../../build/tcc70xx/gcc/tcc70xx-freertos-debug/obj/hsm_manager.o
                                                  ./../../../build/tcc70xx/gcc/tcc70xx-freertos-debug/obj/pdm_test.o
                                                  ./../../../build/tcc70xx/gcc/tcc70xx-freertos-debug/obj/ictc_test.o
                                                  ./../../../build/tcc70xx/gcc/tcc70xx-freertos-debug/obj/hsm_test.o
                                                  ./../../../build/tcc70xx/gcc/tcc70xx-freertos-debug/obj/iperf_task_v3_0d.o
                                                  ./../../../build/tcc70xx/gcc/tcc70xx-freertos-debug/obj/console.o
mfio_ch_cfg_flag                                  ./../../../build/tcc70xx/gcc/tcc70xx-freertos-debug/obj/gpio.o
nanf                                              /opt/gcc-linaro-7.2.1-2017.11-x86_64_arm-eabi/arm-eabi/libc/usr/lib/libc.a(lib_a-sf_nan.o)
                                                  /opt/gcc-linaro-7.2.1-2017.11-x86_64_arm-eabi/arm-eabi/libc/usr/lib/libc.a(lib_a-strtod.o)
                                                  /opt/gcc-linaro-7.2.1-2017.11-x86_64_arm-eabi/arm-eabi/libc/usr/lib/libc.a(lib_a-svfscanf.o)
overflow_cnt                                      ./../../../build/tcc70xx/gcc/tcc70xx-freertos-debug/obj/eth.o
overflow_err                                      ./../../../build/tcc70xx/gcc/tcc70xx-freertos-debug/obj/eth.o
pcApplicationHostnameHook                         ./../../../build/tcc70xx/gcc/tcc70xx-freertos-debug/obj/FreeRTOS_Port.o
pcExpectedClient                                  ./../../../build/tcc70xx/gcc/tcc70xx-freertos-debug/obj/iperf_task_v3_0d.o
pcQueueGetName                                    ./../../../build/tcc70xx/gcc/tcc70xx-freertos-debug/obj/queue.o
pcTaskGetName                                     ./../../../build/tcc70xx/gcc/tcc70xx-freertos-debug/obj/tasks.o
pcTimerGetName                                    ./../../../build/tcc70xx/gcc/tcc70xx-freertos-debug/obj/timers.o
pmac                                              ./../../../build/tcc70xx/gcc/tcc70xx-freertos-debug/obj/eth_mii.o
pvPortMalloc                                      ./../../../build/tcc70xx/gcc/tcc70xx-freertos-debug/obj/heap_5.o
                                                  ./../../../build/tcc70xx/gcc/tcc70xx-freertos-debug/obj/sal_freertos_impl.o
                                                  ./../../../build/tcc70xx/gcc/tcc70xx-freertos-debug/obj/FreeRTOS_TCP_WIN.o
                                                  ./../../../build/tcc70xx/gcc/tcc70xx-freertos-debug/obj/FreeRTOS_Sockets.o
                                                  ./../../../build/tcc70xx/gcc/tcc70xx-freertos-debug/obj/stream_buffer.o
                                                  ./../../../build/tcc70xx/gcc/tcc70xx-freertos-debug/obj/timers.o
                                                  ./../../../build/tcc70xx/gcc/tcc70xx-freertos-debug/obj/event_groups.o
                                                  ./../../../build/tcc70xx/gcc/tcc70xx-freertos-debug/obj/queue.o
                                                  ./../../../build/tcc70xx/gcc/tcc70xx-freertos-debug/obj/tasks.o
                                                  ./../../../build/tcc70xx/gcc/tcc70xx-freertos-debug/obj/iperf_task_v3_0d.o
pvTaskIncrementMutexHeldCount                     ./../../../build/tcc70xx/gcc/tcc70xx-freertos-debug/obj/tasks.o
                                                  ./../../../build/tcc70xx/gcc/tcc70xx-freertos-debug/obj/queue.o
pvTimerGetTimerID                                 ./../../../build/tcc70xx/gcc/tcc70xx-freertos-debug/obj/timers.o
pxControlClient                                   ./../../../build/tcc70xx/gcc/tcc70xx-freertos-debug/obj/iperf_task_v3_0d.o
pxCurrentTCB                                      ./../../../build/tcc70xx/gcc/tcc70xx-freertos-debug/obj/tasks.o
                                                  ./../../../build/tcc70xx/gcc/tcc70xx-freertos-debug/obj/portASM.o
pxDataClient                                      ./../../../build/tcc70xx/gcc/tcc70xx-freertos-debug/obj/iperf_task_v3_0d.o
pxDuplicateNetworkBufferWithDescriptor            ./../../../build/tcc70xx/gcc/tcc70xx-freertos-debug/obj/FreeRTOS_IP.o
                                                  ./../../../build/tcc70xx/gcc/tcc70xx-freertos-debug/obj/FreeRTOS_TCP_IP.o
                                                  ./../../../build/tcc70xx/gcc/tcc70xx-freertos-debug/obj/FreeRTOS_DNS.o
pxGetNetworkBufferWithDescriptor                  ./../../../build/tcc70xx/gcc/tcc70xx-freertos-debug/obj/BufferAllocation_1.o
                                                  ./../../../build/tcc70xx/gcc/tcc70xx-freertos-debug/obj/NetworkInterface.o
                                                  ./../../../build/tcc70xx/gcc/tcc70xx-freertos-debug/obj/FreeRTOS_TCP_IP.o
                                                  ./../../../build/tcc70xx/gcc/tcc70xx-freertos-debug/obj/FreeRTOS_Sockets.o
                                                  ./../../../build/tcc70xx/gcc/tcc70xx-freertos-debug/obj/FreeRTOS_IP.o
                                                  ./../../../build/tcc70xx/gcc/tcc70xx-freertos-debug/obj/FreeRTOS_ARP.o
                                                  ./../../../build/tcc70xx/gcc/tcc70xx-freertos-debug/obj/eth.o
pxNetworkBufferGetFromISR                         ./../../../build/tcc70xx/gcc/tcc70xx-freertos-debug/obj/BufferAllocation_1.o
pxPacketBuffer_to_NetworkBuffer                   ./../../../build/tcc70xx/gcc/tcc70xx-freertos-debug/obj/FreeRTOS_IP.o
pxPortInitialiseStack                             ./../../../build/tcc70xx/gcc/tcc70xx-freertos-debug/obj/port.o
                                                  ./../../../build/tcc70xx/gcc/tcc70xx-freertos-debug/obj/tasks.o
pxRawBuffer                                       ./../../../build/tcc70xx/gcc/tcc70xx-freertos-debug/obj/iperf_task_v3_0d.o
pxResizeNetworkBufferWithDescriptor               ./../../../build/tcc70xx/gcc/tcc70xx-freertos-debug/obj/BufferAllocation_1.o
pxTCPSocketLookup                                 ./../../../build/tcc70xx/gcc/tcc70xx-freertos-debug/obj/FreeRTOS_Sockets.o
                                                  ./../../../build/tcc70xx/gcc/tcc70xx-freertos-debug/obj/FreeRTOS_TCP_IP.o
pxUDPPayloadBuffer_to_NetworkBuffer               ./../../../build/tcc70xx/gcc/tcc70xx-freertos-debug/obj/FreeRTOS_IP.o
                                                  ./../../../build/tcc70xx/gcc/tcc70xx-freertos-debug/obj/FreeRTOS_Sockets.o
                                                  ./../../../build/tcc70xx/gcc/tcc70xx-freertos-debug/obj/FreeRTOS_DNS.o
pxUDPSocketLookup                                 ./../../../build/tcc70xx/gcc/tcc70xx-freertos-debug/obj/FreeRTOS_Sockets.o
                                                  ./../../../build/tcc70xx/gcc/tcc70xx-freertos-debug/obj/FreeRTOS_UDP_IP.o
rdes_base                                         ./../../../build/tcc70xx/gcc/tcc70xx-freertos-debug/obj/eth.o
reset                                             ./../../../build/tcc70xx/gcc/tcc70xx-freertos-debug/obj/startup.o
                                                  ./../../../build/tcc70xx/gcc/tcc70xx-freertos-debug/obj/vector.o
sAVCConigTable                                    ./../../../build/tcc70xx/gcc/tcc70xx-freertos-debug/obj/spu_test.o
sSRCConigTable                                    ./../../../build/tcc70xx/gcc/tcc70xx-freertos-debug/obj/spu_test.o
sWGConigTable                                     ./../../../build/tcc70xx/gcc/tcc70xx-freertos-debug/obj/spu_test.o
setlocale                                         /opt/gcc-linaro-7.2.1-2017.11-x86_64_arm-eabi/arm-eabi/libc/usr/lib/libc.a(lib_a-locale.o)
setup_flag                                        ./../../../build/tcc70xx/gcc/tcc70xx-freertos-debug/obj/eth.o
siADCDebug                                        ./../../../build/tcc70xx/gcc/tcc70xx-freertos-debug/obj/console.o
siADCModule                                       ./../../../build/tcc70xx/gcc/tcc70xx-freertos-debug/obj/console.o
slave_rx_data                                     ./../../../build/tcc70xx/gcc/tcc70xx-freertos-debug/obj/gpsb_test.o
snprintf                                          /opt/gcc-linaro-7.2.1-2017.11-x86_64_arm-eabi/arm-eabi/libc/usr/lib/libc.a(lib_a-snprintf.o)
                                                  ./../../../build/tcc70xx/gcc/tcc70xx-freertos-debug/obj/iperf_task_v3_0d.o
sprintf                                           /opt/gcc-linaro-7.2.1-2017.11-x86_64_arm-eabi/arm-eabi/libc/usr/lib/libc.a(lib_a-sprintf.o)
                                                  /opt/gcc-linaro-7.2.1-2017.11-x86_64_arm-eabi/arm-eabi/libc/usr/lib/libc.a(lib_a-svfscanf.o)
                                                  ./../../../build/tcc70xx/gcc/tcc70xx-freertos-debug/obj/iperf_task_v3_0d.o
sscanf                                            /opt/gcc-linaro-7.2.1-2017.11-x86_64_arm-eabi/arm-eabi/libc/usr/lib/libc.a(lib_a-sscanf.o)
                                                  ./../../../build/tcc70xx/gcc/tcc70xx-freertos-debug/obj/echo_test.o
                                                  ./../../../build/tcc70xx/gcc/tcc70xx-freertos-debug/obj/iperf_task_v3_0d.o
stpncpy                                           /opt/gcc-linaro-7.2.1-2017.11-x86_64_arm-eabi/arm-eabi/libc/usr/lib/libc.a(lib_a-stpncpy.o)
                                                  /opt/gcc-linaro-7.2.1-2017.11-x86_64_arm-eabi/arm-eabi/libc/usr/lib/libc.a(lib_a-svfscanf.o)
strcasecmp                                        /opt/gcc-linaro-7.2.1-2017.11-x86_64_arm-eabi/arm-eabi/libc/usr/lib/libc.a(lib_a-strcasecmp.o)
                                                  /opt/gcc-linaro-7.2.1-2017.11-x86_64_arm-eabi/arm-eabi/libc/usr/lib/libc.a(lib_a-locale.o)
strcat                                            /opt/gcc-linaro-7.2.1-2017.11-x86_64_arm-eabi/arm-eabi/libc/usr/lib/libc.a(lib_a-strcat.o)
                                                  /opt/gcc-linaro-7.2.1-2017.11-x86_64_arm-eabi/arm-eabi/libc/usr/lib/libc.a(lib_a-locale.o)
strchr                                            /opt/gcc-linaro-7.2.1-2017.11-x86_64_arm-eabi/arm-eabi/libc/usr/lib/libc.a(lib_a-strchr.o)
                                                  /opt/gcc-linaro-7.2.1-2017.11-x86_64_arm-eabi/arm-eabi/libc/usr/lib/libc.a(lib_a-locale.o)
strcmp                                            /opt/gcc-linaro-7.2.1-2017.11-x86_64_arm-eabi/arm-eabi/libc/usr/lib/libc.a(lib_a-strcmp.o)
                                                  /opt/gcc-linaro-7.2.1-2017.11-x86_64_arm-eabi/arm-eabi/libc/usr/lib/libc.a(lib_a-locale.o)
                                                  /opt/gcc-linaro-7.2.1-2017.11-x86_64_arm-eabi/arm-eabi/libc/usr/lib/libc.a(lib_a-jp2uc.o)
                                                  ./../../../build/tcc70xx/gcc/tcc70xx-freertos-debug/obj/sal_freertos_impl.o
                                                  ./../../../build/tcc70xx/gcc/tcc70xx-freertos-debug/obj/FreeRTOS_Port.o
                                                  ./../../../build/tcc70xx/gcc/tcc70xx-freertos-debug/obj/FreeRTOS_DNS.o
strcpy                                            /opt/gcc-linaro-7.2.1-2017.11-x86_64_arm-eabi/arm-eabi/libc/usr/lib/libc.a(lib_a-strcpy.o)
                                                  /opt/gcc-linaro-7.2.1-2017.11-x86_64_arm-eabi/arm-eabi/libc/usr/lib/libc.a(lib_a-strcat.o)
                                                  /opt/gcc-linaro-7.2.1-2017.11-x86_64_arm-eabi/arm-eabi/libc/usr/lib/libc.a(lib_a-locale.o)
                                                  ./../../../build/tcc70xx/gcc/tcc70xx-freertos-debug/obj/FreeRTOS_DNS.o
strlcpy                                           /opt/gcc-linaro-7.2.1-2017.11-x86_64_arm-eabi/arm-eabi/libc/usr/lib/libc.a(lib_a-strlcpy.o)
                                                  /opt/gcc-linaro-7.2.1-2017.11-x86_64_arm-eabi/arm-eabi/libc/usr/lib/libc.a(lib_a-locale.o)
strlen                                            /opt/gcc-linaro-7.2.1-2017.11-x86_64_arm-eabi/arm-eabi/libc/usr/lib/libc.a(lib_a-strlen-stub.o)
                                                  /opt/gcc-linaro-7.2.1-2017.11-x86_64_arm-eabi/arm-eabi/libc/usr/lib/libc.a(lib_a-gdtoa-gethex.o)
                                                  /opt/gcc-linaro-7.2.1-2017.11-x86_64_arm-eabi/arm-eabi/libc/usr/lib/libc.a(lib_a-syscalls.o)
                                                  /opt/gcc-linaro-7.2.1-2017.11-x86_64_arm-eabi/arm-eabi/libc/usr/lib/libc.a(lib_a-svfiprintf.o)
                                                  /opt/gcc-linaro-7.2.1-2017.11-x86_64_arm-eabi/arm-eabi/libc/usr/lib/libc.a(lib_a-strtod.o)
                                                  /opt/gcc-linaro-7.2.1-2017.11-x86_64_arm-eabi/arm-eabi/libc/usr/lib/libc.a(lib_a-locale.o)
                                                  /opt/gcc-linaro-7.2.1-2017.11-x86_64_arm-eabi/arm-eabi/libc/usr/lib/libc.a(lib_a-svfprintf.o)
                                                  /opt/gcc-linaro-7.2.1-2017.11-x86_64_arm-eabi/arm-eabi/libc/usr/lib/libc.a(lib_a-sscanf.o)
                                                  ./../../../build/tcc70xx/gcc/tcc70xx-freertos-debug/obj/FreeRTOS_DNS.o
                                                  ./../../../build/tcc70xx/gcc/tcc70xx-freertos-debug/obj/tasks.o
strncasecmp                                       /opt/gcc-linaro-7.2.1-2017.11-x86_64_arm-eabi/arm-eabi/libc/usr/lib/libc.a(lib_a-strncasecmp.o)
                                                  /opt/gcc-linaro-7.2.1-2017.11-x86_64_arm-eabi/arm-eabi/libc/usr/lib/libc.a(lib_a-locale.o)
strncmp                                           /opt/gcc-linaro-7.2.1-2017.11-x86_64_arm-eabi/arm-eabi/libc/usr/lib/libc.a(lib_a-strncmp.o)
                                                  /opt/gcc-linaro-7.2.1-2017.11-x86_64_arm-eabi/arm-eabi/libc/usr/lib/libc.a(lib_a-getenv_r.o)
                                                  /opt/gcc-linaro-7.2.1-2017.11-x86_64_arm-eabi/arm-eabi/libc/usr/lib/libc.a(lib_a-gdtoa-gethex.o)
                                                  /opt/gcc-linaro-7.2.1-2017.11-x86_64_arm-eabi/arm-eabi/libc/usr/lib/libc.a(lib_a-strtod.o)
                                                  /opt/gcc-linaro-7.2.1-2017.11-x86_64_arm-eabi/arm-eabi/libc/usr/lib/libc.a(lib_a-locale.o)
                                                  ./../../../build/tcc70xx/gcc/tcc70xx-freertos-debug/obj/sal_freertos_impl.o
                                                  ./../../../build/tcc70xx/gcc/tcc70xx-freertos-debug/obj/iperf_task_v3_0d.o
strncpy                                           /opt/gcc-linaro-7.2.1-2017.11-x86_64_arm-eabi/arm-eabi/libc/usr/lib/libc.a(lib_a-strncpy.o)
                                                  /opt/gcc-linaro-7.2.1-2017.11-x86_64_arm-eabi/arm-eabi/libc/usr/lib/libc.a(lib_a-svfiprintf.o)
                                                  /opt/gcc-linaro-7.2.1-2017.11-x86_64_arm-eabi/arm-eabi/libc/usr/lib/libc.a(lib_a-locale.o)
                                                  /opt/gcc-linaro-7.2.1-2017.11-x86_64_arm-eabi/arm-eabi/libc/usr/lib/libc.a(lib_a-svfprintf.o)
                                                  ./../../../build/tcc70xx/gcc/tcc70xx-freertos-debug/obj/sal_freertos_impl.o
                                                  ./../../../build/tcc70xx/gcc/tcc70xx-freertos-debug/obj/iperf_task_v3_0d.o
strnlen                                           /opt/gcc-linaro-7.2.1-2017.11-x86_64_arm-eabi/arm-eabi/libc/usr/lib/libc.a(lib_a-strnlen.o)
                                                  ./../../../build/tcc70xx/gcc/tcc70xx-freertos-debug/obj/sal_freertos_impl.o
strtod                                            /opt/gcc-linaro-7.2.1-2017.11-x86_64_arm-eabi/arm-eabi/libc/usr/lib/libc.a(lib_a-strtod.o)
strtod_l                                          /opt/gcc-linaro-7.2.1-2017.11-x86_64_arm-eabi/arm-eabi/libc/usr/lib/libc.a(lib_a-strtod.o)
strtof                                            /opt/gcc-linaro-7.2.1-2017.11-x86_64_arm-eabi/arm-eabi/libc/usr/lib/libc.a(lib_a-strtod.o)
strtof_l                                          /opt/gcc-linaro-7.2.1-2017.11-x86_64_arm-eabi/arm-eabi/libc/usr/lib/libc.a(lib_a-strtod.o)
strtol                                            /opt/gcc-linaro-7.2.1-2017.11-x86_64_arm-eabi/arm-eabi/libc/usr/lib/libc.a(lib_a-strtol.o)
                                                  /opt/gcc-linaro-7.2.1-2017.11-x86_64_arm-eabi/arm-eabi/libc/usr/lib/libc.a(lib_a-locale.o)
                                                  /opt/gcc-linaro-7.2.1-2017.11-x86_64_arm-eabi/arm-eabi/libc/usr/lib/libc.a(lib_a-atoi.o)
                                                  ./../../../build/tcc70xx/gcc/tcc70xx-freertos-debug/obj/console.o
strtol_l                                          /opt/gcc-linaro-7.2.1-2017.11-x86_64_arm-eabi/arm-eabi/libc/usr/lib/libc.a(lib_a-strtol.o)
strtoll                                           /opt/gcc-linaro-7.2.1-2017.11-x86_64_arm-eabi/arm-eabi/libc/usr/lib/libc.a(lib_a-strtoll.o)
strtoll_l                                         /opt/gcc-linaro-7.2.1-2017.11-x86_64_arm-eabi/arm-eabi/libc/usr/lib/libc.a(lib_a-strtoll.o)
strtoul                                           /opt/gcc-linaro-7.2.1-2017.11-x86_64_arm-eabi/arm-eabi/libc/usr/lib/libc.a(lib_a-strtoul.o)
                                                  ./../../../build/tcc70xx/gcc/tcc70xx-freertos-debug/obj/console.o
strtoul_l                                         /opt/gcc-linaro-7.2.1-2017.11-x86_64_arm-eabi/arm-eabi/libc/usr/lib/libc.a(lib_a-strtoul.o)
strtoull                                          /opt/gcc-linaro-7.2.1-2017.11-x86_64_arm-eabi/arm-eabi/libc/usr/lib/libc.a(lib_a-strtoull.o)
strtoull_l                                        /opt/gcc-linaro-7.2.1-2017.11-x86_64_arm-eabi/arm-eabi/libc/usr/lib/libc.a(lib_a-strtoull.o)
tdes_base                                         ./../../../build/tcc70xx/gcc/tcc70xx-freertos-debug/obj/eth.o
ucHeap                                            ./../../../build/tcc70xx/gcc/tcc70xx-freertos-debug/obj/port.o
ulApplicationGetNextSequenceNumber                ./../../../build/tcc70xx/gcc/tcc70xx-freertos-debug/obj/FreeRTOS_Port.o
                                                  ./../../../build/tcc70xx/gcc/tcc70xx-freertos-debug/obj/FreeRTOS_TCP_IP.o
ulCriticalNesting                                 ./../../../build/tcc70xx/gcc/tcc70xx-freertos-debug/obj/port.o
                                                  ./../../../build/tcc70xx/gcc/tcc70xx-freertos-debug/obj/portASM.o
ulDNSHandlePacket                                 ./../../../build/tcc70xx/gcc/tcc70xx-freertos-debug/obj/FreeRTOS_DNS.o
                                                  ./../../../build/tcc70xx/gcc/tcc70xx-freertos-debug/obj/FreeRTOS_UDP_IP.o
ulICCEOIR                                         ./../../../build/tcc70xx/gcc/tcc70xx-freertos-debug/obj/port.o
                                                  ./../../../build/tcc70xx/gcc/tcc70xx-freertos-debug/obj/portASM.o
ulICCIAR                                          ./../../../build/tcc70xx/gcc/tcc70xx-freertos-debug/obj/port.o
                                                  ./../../../build/tcc70xx/gcc/tcc70xx-freertos-debug/obj/portASM.o
ulICCPMR                                          ./../../../build/tcc70xx/gcc/tcc70xx-freertos-debug/obj/port.o
                                                  ./../../../build/tcc70xx/gcc/tcc70xx-freertos-debug/obj/portASM.o
ulMaxAPIPriorityMask                              ./../../../build/tcc70xx/gcc/tcc70xx-freertos-debug/obj/port.o
                                                  ./../../../build/tcc70xx/gcc/tcc70xx-freertos-debug/obj/portASM.o
ulNBNSHandlePacket                                ./../../../build/tcc70xx/gcc/tcc70xx-freertos-debug/obj/FreeRTOS_DNS.o
                                                  ./../../../build/tcc70xx/gcc/tcc70xx-freertos-debug/obj/FreeRTOS_UDP_IP.o
ulPortInterruptNesting                            ./../../../build/tcc70xx/gcc/tcc70xx-freertos-debug/obj/port.o
                                                  ./../../../build/tcc70xx/gcc/tcc70xx-freertos-debug/obj/portASM.o
ulPortSetInterruptMask                            ./../../../build/tcc70xx/gcc/tcc70xx-freertos-debug/obj/port.o
                                                  ./../../../build/tcc70xx/gcc/tcc70xx-freertos-debug/obj/BufferAllocation_1.o
                                                  ./../../../build/tcc70xx/gcc/tcc70xx-freertos-debug/obj/stream_buffer.o
                                                  ./../../../build/tcc70xx/gcc/tcc70xx-freertos-debug/obj/event_groups.o
                                                  ./../../../build/tcc70xx/gcc/tcc70xx-freertos-debug/obj/queue.o
                                                  ./../../../build/tcc70xx/gcc/tcc70xx-freertos-debug/obj/tasks.o
ulPortTaskHasFPUContext                           ./../../../build/tcc70xx/gcc/tcc70xx-freertos-debug/obj/port.o
                                                  ./../../../build/tcc70xx/gcc/tcc70xx-freertos-debug/obj/portASM.o
ulPortYieldRequired                               ./../../../build/tcc70xx/gcc/tcc70xx-freertos-debug/obj/port.o
                                                  ./../../../build/tcc70xx/gcc/tcc70xx-freertos-debug/obj/portASM.o
                                                  ./../../../build/tcc70xx/gcc/tcc70xx-freertos-debug/obj/sal_freertos_impl.o
ulTCPWindowTxAck                                  ./../../../build/tcc70xx/gcc/tcc70xx-freertos-debug/obj/FreeRTOS_TCP_WIN.o
                                                  ./../../../build/tcc70xx/gcc/tcc70xx-freertos-debug/obj/FreeRTOS_TCP_IP.o
ulTCPWindowTxGet                                  ./../../../build/tcc70xx/gcc/tcc70xx-freertos-debug/obj/FreeRTOS_TCP_WIN.o
                                                  ./../../../build/tcc70xx/gcc/tcc70xx-freertos-debug/obj/FreeRTOS_TCP_IP.o
ulTCPWindowTxSack                                 ./../../../build/tcc70xx/gcc/tcc70xx-freertos-debug/obj/FreeRTOS_TCP_WIN.o
                                                  ./../../../build/tcc70xx/gcc/tcc70xx-freertos-debug/obj/FreeRTOS_TCP_IP.o
ulTaskNotifyTake                                  ./../../../build/tcc70xx/gcc/tcc70xx-freertos-debug/obj/tasks.o
                                                  ./../../../build/tcc70xx/gcc/tcc70xx-freertos-debug/obj/NetworkInterface.o
ulTaskNotifyValueClear                            ./../../../build/tcc70xx/gcc/tcc70xx-freertos-debug/obj/tasks.o
ungetc                                            /opt/gcc-linaro-7.2.1-2017.11-x86_64_arm-eabi/arm-eabi/libc/usr/lib/libc.a(lib_a-ungetc.o)
usGenerateChecksum                                ./../../../build/tcc70xx/gcc/tcc70xx-freertos-debug/obj/FreeRTOS_IP.o
                                                  ./../../../build/tcc70xx/gcc/tcc70xx-freertos-debug/obj/FreeRTOS_UDP_IP.o
                                                  ./../../../build/tcc70xx/gcc/tcc70xx-freertos-debug/obj/FreeRTOS_TCP_IP.o
                                                  ./../../../build/tcc70xx/gcc/tcc70xx-freertos-debug/obj/FreeRTOS_DNS.o
usGenerateProtocolChecksum                        ./../../../build/tcc70xx/gcc/tcc70xx-freertos-debug/obj/FreeRTOS_IP.o
                                                  ./../../../build/tcc70xx/gcc/tcc70xx-freertos-debug/obj/FreeRTOS_UDP_IP.o
                                                  ./../../../build/tcc70xx/gcc/tcc70xx-freertos-debug/obj/FreeRTOS_TCP_IP.o
                                                  ./../../../build/tcc70xx/gcc/tcc70xx-freertos-debug/obj/FreeRTOS_DNS.o
usPacketIdentifier                                ./../../../build/tcc70xx/gcc/tcc70xx-freertos-debug/obj/FreeRTOS_IP.o
                                                  ./../../../build/tcc70xx/gcc/tcc70xx-freertos-debug/obj/FreeRTOS_TCP_IP.o
                                                  ./../../../build/tcc70xx/gcc/tcc70xx-freertos-debug/obj/FreeRTOS_DNS.o
uxGetMinimumFreeNetworkBuffers                    ./../../../build/tcc70xx/gcc/tcc70xx-freertos-debug/obj/BufferAllocation_1.o
uxGetNumberOfFreeNetworkBuffers                   ./../../../build/tcc70xx/gcc/tcc70xx-freertos-debug/obj/BufferAllocation_1.o
uxListRemove                                      ./../../../build/tcc70xx/gcc/tcc70xx-freertos-debug/obj/list.o
                                                  ./../../../build/tcc70xx/gcc/tcc70xx-freertos-debug/obj/BufferAllocation_1.o
                                                  ./../../../build/tcc70xx/gcc/tcc70xx-freertos-debug/obj/FreeRTOS_TCP_WIN.o
                                                  ./../../../build/tcc70xx/gcc/tcc70xx-freertos-debug/obj/FreeRTOS_Sockets.o
                                                  ./../../../build/tcc70xx/gcc/tcc70xx-freertos-debug/obj/timers.o
                                                  ./../../../build/tcc70xx/gcc/tcc70xx-freertos-debug/obj/tasks.o
                                                  ./../../../build/tcc70xx/gcc/tcc70xx-freertos-debug/obj/iperf_task_v3_0d.o
uxQueueMessagesWaiting                            ./../../../build/tcc70xx/gcc/tcc70xx-freertos-debug/obj/queue.o
                                                  ./../../../build/tcc70xx/gcc/tcc70xx-freertos-debug/obj/FreeRTOS_IP.o
uxQueueMessagesWaitingFromISR                     ./../../../build/tcc70xx/gcc/tcc70xx-freertos-debug/obj/queue.o
                                                  ./../../../build/tcc70xx/gcc/tcc70xx-freertos-debug/obj/BufferAllocation_1.o
uxQueueSpacesAvailable                            ./../../../build/tcc70xx/gcc/tcc70xx-freertos-debug/obj/queue.o
uxRand                                            ./../../../build/tcc70xx/gcc/tcc70xx-freertos-debug/obj/FreeRTOS_Port.o
uxStreamBufferAdd                                 ./../../../build/tcc70xx/gcc/tcc70xx-freertos-debug/obj/FreeRTOS_Stream_Buffer.o
                                                  ./../../../build/tcc70xx/gcc/tcc70xx-freertos-debug/obj/FreeRTOS_Sockets.o
uxStreamBufferGet                                 ./../../../build/tcc70xx/gcc/tcc70xx-freertos-debug/obj/FreeRTOS_Stream_Buffer.o
                                                  ./../../../build/tcc70xx/gcc/tcc70xx-freertos-debug/obj/FreeRTOS_TCP_IP.o
                                                  ./../../../build/tcc70xx/gcc/tcc70xx-freertos-debug/obj/FreeRTOS_Sockets.o
uxTaskGetNumberOfTasks                            ./../../../build/tcc70xx/gcc/tcc70xx-freertos-debug/obj/tasks.o
uxTaskPriorityGet                                 ./../../../build/tcc70xx/gcc/tcc70xx-freertos-debug/obj/tasks.o
uxTaskPriorityGetFromISR                          ./../../../build/tcc70xx/gcc/tcc70xx-freertos-debug/obj/tasks.o
uxTaskResetEventItemValue                         ./../../../build/tcc70xx/gcc/tcc70xx-freertos-debug/obj/tasks.o
                                                  ./../../../build/tcc70xx/gcc/tcc70xx-freertos-debug/obj/event_groups.o
uxTimerGetReloadMode                              ./../../../build/tcc70xx/gcc/tcc70xx-freertos-debug/obj/timers.o
vARPAgeCache                                      ./../../../build/tcc70xx/gcc/tcc70xx-freertos-debug/obj/FreeRTOS_ARP.o
                                                  ./../../../build/tcc70xx/gcc/tcc70xx-freertos-debug/obj/FreeRTOS_IP.o
vARPGenerateRequestPacket                         ./../../../build/tcc70xx/gcc/tcc70xx-freertos-debug/obj/FreeRTOS_ARP.o
                                                  ./../../../build/tcc70xx/gcc/tcc70xx-freertos-debug/obj/FreeRTOS_UDP_IP.o
vARPRefreshCacheEntry                             ./../../../build/tcc70xx/gcc/tcc70xx-freertos-debug/obj/FreeRTOS_ARP.o
                                                  ./../../../build/tcc70xx/gcc/tcc70xx-freertos-debug/obj/FreeRTOS_UDP_IP.o
                                                  ./../../../build/tcc70xx/gcc/tcc70xx-freertos-debug/obj/FreeRTOS_IP.o
vARPSendGratuitous                                ./../../../build/tcc70xx/gcc/tcc70xx-freertos-debug/obj/FreeRTOS_ARP.o
vApplicationFPUSafeIRQHandler                     ./../../../build/tcc70xx/gcc/tcc70xx-freertos-debug/obj/port.o
                                                  ./../../../build/tcc70xx/gcc/tcc70xx-freertos-debug/obj/portASM.o
vApplicationGetIdleTaskMemory                     ./../../../build/tcc70xx/gcc/tcc70xx-freertos-debug/obj/port.o
                                                  ./../../../build/tcc70xx/gcc/tcc70xx-freertos-debug/obj/tasks.o
vApplicationGetTimerTaskMemory                    ./../../../build/tcc70xx/gcc/tcc70xx-freertos-debug/obj/port.o
                                                  ./../../../build/tcc70xx/gcc/tcc70xx-freertos-debug/obj/timers.o
vApplicationIRQHandler                            ./../../../build/tcc70xx/gcc/tcc70xx-freertos-debug/obj/portASM.o
vApplicationStackOverflowHook                     ./../../../build/tcc70xx/gcc/tcc70xx-freertos-debug/obj/port.o
                                                  ./../../../build/tcc70xx/gcc/tcc70xx-freertos-debug/obj/tasks.o
vClearTickInterrupt                               ./../../../build/tcc70xx/gcc/tcc70xx-freertos-debug/obj/port.o
vConfigureTickInterrupt                           ./../../../build/tcc70xx/gcc/tcc70xx-freertos-debug/obj/port.o
vEventGroupClearBitsCallback                      ./../../../build/tcc70xx/gcc/tcc70xx-freertos-debug/obj/event_groups.o
                                                  ./../../../build/tcc70xx/gcc/tcc70xx-freertos-debug/obj/sal_freertos_impl.o
vEventGroupDelete                                 ./../../../build/tcc70xx/gcc/tcc70xx-freertos-debug/obj/event_groups.o
                                                  ./../../../build/tcc70xx/gcc/tcc70xx-freertos-debug/obj/FreeRTOS_Sockets.o
vEventGroupSetBitsCallback                        ./../../../build/tcc70xx/gcc/tcc70xx-freertos-debug/obj/event_groups.o
                                                  ./../../../build/tcc70xx/gcc/tcc70xx-freertos-debug/obj/sal_freertos_impl.o
vIPNetworkUpCalls                                 ./../../../build/tcc70xx/gcc/tcc70xx-freertos-debug/obj/FreeRTOS_IP.o
vIPerfInstall                                     ./../../../build/tcc70xx/gcc/tcc70xx-freertos-debug/obj/iperf_task_v3_0d.o
                                                  ./../../../build/tcc70xx/gcc/tcc70xx-freertos-debug/obj/eth_test.o
vIPerfTask                                        ./../../../build/tcc70xx/gcc/tcc70xx-freertos-debug/obj/iperf_task_v3_0d.o
vInitialiseTimerForRunTimeStats                   ./../../../build/tcc70xx/gcc/tcc70xx-freertos-debug/obj/port.o
                                                  ./../../../build/tcc70xx/gcc/tcc70xx-freertos-debug/obj/tasks.o
vListInitialise                                   ./../../../build/tcc70xx/gcc/tcc70xx-freertos-debug/obj/list.o
                                                  ./../../../build/tcc70xx/gcc/tcc70xx-freertos-debug/obj/BufferAllocation_1.o
                                                  ./../../../build/tcc70xx/gcc/tcc70xx-freertos-debug/obj/FreeRTOS_TCP_WIN.o
                                                  ./../../../build/tcc70xx/gcc/tcc70xx-freertos-debug/obj/FreeRTOS_Sockets.o
                                                  ./../../../build/tcc70xx/gcc/tcc70xx-freertos-debug/obj/timers.o
                                                  ./../../../build/tcc70xx/gcc/tcc70xx-freertos-debug/obj/event_groups.o
                                                  ./../../../build/tcc70xx/gcc/tcc70xx-freertos-debug/obj/queue.o
                                                  ./../../../build/tcc70xx/gcc/tcc70xx-freertos-debug/obj/tasks.o
                                                  ./../../../build/tcc70xx/gcc/tcc70xx-freertos-debug/obj/iperf_task_v3_0d.o
vListInitialiseItem                               ./../../../build/tcc70xx/gcc/tcc70xx-freertos-debug/obj/list.o
                                                  ./../../../build/tcc70xx/gcc/tcc70xx-freertos-debug/obj/BufferAllocation_1.o
                                                  ./../../../build/tcc70xx/gcc/tcc70xx-freertos-debug/obj/FreeRTOS_Sockets.o
                                                  ./../../../build/tcc70xx/gcc/tcc70xx-freertos-debug/obj/timers.o
                                                  ./../../../build/tcc70xx/gcc/tcc70xx-freertos-debug/obj/tasks.o
vListInsert                                       ./../../../build/tcc70xx/gcc/tcc70xx-freertos-debug/obj/list.o
                                                  ./../../../build/tcc70xx/gcc/tcc70xx-freertos-debug/obj/BufferAllocation_1.o
                                                  ./../../../build/tcc70xx/gcc/tcc70xx-freertos-debug/obj/timers.o
                                                  ./../../../build/tcc70xx/gcc/tcc70xx-freertos-debug/obj/tasks.o
vListInsertEnd                                    ./../../../build/tcc70xx/gcc/tcc70xx-freertos-debug/obj/list.o
                                                  ./../../../build/tcc70xx/gcc/tcc70xx-freertos-debug/obj/BufferAllocation_1.o
                                                  ./../../../build/tcc70xx/gcc/tcc70xx-freertos-debug/obj/FreeRTOS_UDP_IP.o
                                                  ./../../../build/tcc70xx/gcc/tcc70xx-freertos-debug/obj/FreeRTOS_Sockets.o
                                                  ./../../../build/tcc70xx/gcc/tcc70xx-freertos-debug/obj/tasks.o
vListInsertGeneric                                ./../../../build/tcc70xx/gcc/tcc70xx-freertos-debug/obj/FreeRTOS_TCP_WIN.o
                                                  ./../../../build/tcc70xx/gcc/tcc70xx-freertos-debug/obj/iperf_task_v3_0d.o
vNetworkBufferReleaseFromISR                      ./../../../build/tcc70xx/gcc/tcc70xx-freertos-debug/obj/BufferAllocation_1.o
vNetworkInterfaceAllocateRAMToBuffers             ./../../../build/tcc70xx/gcc/tcc70xx-freertos-debug/obj/NetworkInterface.o
                                                  ./../../../build/tcc70xx/gcc/tcc70xx-freertos-debug/obj/BufferAllocation_1.o
vNetworkSocketsInit                               ./../../../build/tcc70xx/gcc/tcc70xx-freertos-debug/obj/FreeRTOS_Sockets.o
                                                  ./../../../build/tcc70xx/gcc/tcc70xx-freertos-debug/obj/FreeRTOS_IP.o
vPortClearInterruptMask                           ./../../../build/tcc70xx/gcc/tcc70xx-freertos-debug/obj/port.o
                                                  ./../../../build/tcc70xx/gcc/tcc70xx-freertos-debug/obj/BufferAllocation_1.o
                                                  ./../../../build/tcc70xx/gcc/tcc70xx-freertos-debug/obj/stream_buffer.o
                                                  ./../../../build/tcc70xx/gcc/tcc70xx-freertos-debug/obj/event_groups.o
                                                  ./../../../build/tcc70xx/gcc/tcc70xx-freertos-debug/obj/queue.o
                                                  ./../../../build/tcc70xx/gcc/tcc70xx-freertos-debug/obj/tasks.o
vPortDefineHeapRegions                            ./../../../build/tcc70xx/gcc/tcc70xx-freertos-debug/obj/heap_5.o
                                                  ./../../../build/tcc70xx/gcc/tcc70xx-freertos-debug/obj/port.o
vPortEndScheduler                                 ./../../../build/tcc70xx/gcc/tcc70xx-freertos-debug/obj/port.o
                                                  ./../../../build/tcc70xx/gcc/tcc70xx-freertos-debug/obj/tasks.o
vPortEnterCritical                                ./../../../build/tcc70xx/gcc/tcc70xx-freertos-debug/obj/port.o
                                                  ./../../../build/tcc70xx/gcc/tcc70xx-freertos-debug/obj/BufferAllocation_1.o
                                                  ./../../../build/tcc70xx/gcc/tcc70xx-freertos-debug/obj/FreeRTOS_UDP_IP.o
                                                  ./../../../build/tcc70xx/gcc/tcc70xx-freertos-debug/obj/FreeRTOS_Sockets.o
                                                  ./../../../build/tcc70xx/gcc/tcc70xx-freertos-debug/obj/heap_5.o
                                                  ./../../../build/tcc70xx/gcc/tcc70xx-freertos-debug/obj/stream_buffer.o
                                                  ./../../../build/tcc70xx/gcc/tcc70xx-freertos-debug/obj/timers.o
                                                  ./../../../build/tcc70xx/gcc/tcc70xx-freertos-debug/obj/event_groups.o
                                                  ./../../../build/tcc70xx/gcc/tcc70xx-freertos-debug/obj/queue.o
                                                  ./../../../build/tcc70xx/gcc/tcc70xx-freertos-debug/obj/tasks.o
vPortExitCritical                                 ./../../../build/tcc70xx/gcc/tcc70xx-freertos-debug/obj/port.o
                                                  ./../../../build/tcc70xx/gcc/tcc70xx-freertos-debug/obj/BufferAllocation_1.o
                                                  ./../../../build/tcc70xx/gcc/tcc70xx-freertos-debug/obj/FreeRTOS_UDP_IP.o
                                                  ./../../../build/tcc70xx/gcc/tcc70xx-freertos-debug/obj/FreeRTOS_Sockets.o
                                                  ./../../../build/tcc70xx/gcc/tcc70xx-freertos-debug/obj/heap_5.o
                                                  ./../../../build/tcc70xx/gcc/tcc70xx-freertos-debug/obj/stream_buffer.o
                                                  ./../../../build/tcc70xx/gcc/tcc70xx-freertos-debug/obj/timers.o
                                                  ./../../../build/tcc70xx/gcc/tcc70xx-freertos-debug/obj/event_groups.o
                                                  ./../../../build/tcc70xx/gcc/tcc70xx-freertos-debug/obj/queue.o
                                                  ./../../../build/tcc70xx/gcc/tcc70xx-freertos-debug/obj/tasks.o
vPortFree                                         ./../../../build/tcc70xx/gcc/tcc70xx-freertos-debug/obj/heap_5.o
                                                  ./../../../build/tcc70xx/gcc/tcc70xx-freertos-debug/obj/FreeRTOS_TCP_WIN.o
                                                  ./../../../build/tcc70xx/gcc/tcc70xx-freertos-debug/obj/FreeRTOS_Sockets.o
                                                  ./../../../build/tcc70xx/gcc/tcc70xx-freertos-debug/obj/stream_buffer.o
                                                  ./../../../build/tcc70xx/gcc/tcc70xx-freertos-debug/obj/timers.o
                                                  ./../../../build/tcc70xx/gcc/tcc70xx-freertos-debug/obj/event_groups.o
                                                  ./../../../build/tcc70xx/gcc/tcc70xx-freertos-debug/obj/queue.o
                                                  ./../../../build/tcc70xx/gcc/tcc70xx-freertos-debug/obj/tasks.o
                                                  ./../../../build/tcc70xx/gcc/tcc70xx-freertos-debug/obj/iperf_task_v3_0d.o
vPortGetHeapStats                                 ./../../../build/tcc70xx/gcc/tcc70xx-freertos-debug/obj/heap_5.o
vPortRestoreTaskContext                           ./../../../build/tcc70xx/gcc/tcc70xx-freertos-debug/obj/portASM.o
                                                  ./../../../build/tcc70xx/gcc/tcc70xx-freertos-debug/obj/port.o
vPortTaskUsesFPU                                  ./../../../build/tcc70xx/gcc/tcc70xx-freertos-debug/obj/port.o
vPortValidateInterruptPriority                    ./../../../build/tcc70xx/gcc/tcc70xx-freertos-debug/obj/port.o
                                                  ./../../../build/tcc70xx/gcc/tcc70xx-freertos-debug/obj/queue.o
                                                  ./../../../build/tcc70xx/gcc/tcc70xx-freertos-debug/obj/tasks.o
vProcessGeneratedUDPPacket                        ./../../../build/tcc70xx/gcc/tcc70xx-freertos-debug/obj/FreeRTOS_UDP_IP.o
                                                  ./../../../build/tcc70xx/gcc/tcc70xx-freertos-debug/obj/FreeRTOS_IP.o
vQueueAddToRegistry                               ./../../../build/tcc70xx/gcc/tcc70xx-freertos-debug/obj/queue.o
                                                  ./../../../build/tcc70xx/gcc/tcc70xx-freertos-debug/obj/FreeRTOS_IP.o
                                                  ./../../../build/tcc70xx/gcc/tcc70xx-freertos-debug/obj/timers.o
vQueueDelete                                      ./../../../build/tcc70xx/gcc/tcc70xx-freertos-debug/obj/queue.o
                                                  ./../../../build/tcc70xx/gcc/tcc70xx-freertos-debug/obj/FreeRTOS_IP.o
vQueueUnregisterQueue                             ./../../../build/tcc70xx/gcc/tcc70xx-freertos-debug/obj/queue.o
vQueueWaitForMessageRestricted                    ./../../../build/tcc70xx/gcc/tcc70xx-freertos-debug/obj/queue.o
                                                  ./../../../build/tcc70xx/gcc/tcc70xx-freertos-debug/obj/timers.o
vReleaseNetworkBufferAndDescriptor                ./../../../build/tcc70xx/gcc/tcc70xx-freertos-debug/obj/BufferAllocation_1.o
                                                  ./../../../build/tcc70xx/gcc/tcc70xx-freertos-debug/obj/NetworkInterface.o
                                                  ./../../../build/tcc70xx/gcc/tcc70xx-freertos-debug/obj/FreeRTOS_UDP_IP.o
                                                  ./../../../build/tcc70xx/gcc/tcc70xx-freertos-debug/obj/FreeRTOS_TCP_IP.o
                                                  ./../../../build/tcc70xx/gcc/tcc70xx-freertos-debug/obj/FreeRTOS_Sockets.o
                                                  ./../../../build/tcc70xx/gcc/tcc70xx-freertos-debug/obj/FreeRTOS_IP.o
                                                  ./../../../build/tcc70xx/gcc/tcc70xx-freertos-debug/obj/FreeRTOS_DNS.o
                                                  ./../../../build/tcc70xx/gcc/tcc70xx-freertos-debug/obj/FreeRTOS_ARP.o
vReturnEthernetFrame                              ./../../../build/tcc70xx/gcc/tcc70xx-freertos-debug/obj/FreeRTOS_IP.o
                                                  ./../../../build/tcc70xx/gcc/tcc70xx-freertos-debug/obj/FreeRTOS_DNS.o
vSocketBind                                       ./../../../build/tcc70xx/gcc/tcc70xx-freertos-debug/obj/FreeRTOS_Sockets.o
                                                  ./../../../build/tcc70xx/gcc/tcc70xx-freertos-debug/obj/FreeRTOS_TCP_IP.o
                                                  ./../../../build/tcc70xx/gcc/tcc70xx-freertos-debug/obj/FreeRTOS_IP.o
vSocketClose                                      ./../../../build/tcc70xx/gcc/tcc70xx-freertos-debug/obj/FreeRTOS_Sockets.o
                                                  ./../../../build/tcc70xx/gcc/tcc70xx-freertos-debug/obj/FreeRTOS_TCP_IP.o
                                                  ./../../../build/tcc70xx/gcc/tcc70xx-freertos-debug/obj/FreeRTOS_IP.o
vSocketSelect                                     ./../../../build/tcc70xx/gcc/tcc70xx-freertos-debug/obj/FreeRTOS_Sockets.o
                                                  ./../../../build/tcc70xx/gcc/tcc70xx-freertos-debug/obj/FreeRTOS_IP.o
vSocketWakeUpUser                                 ./../../../build/tcc70xx/gcc/tcc70xx-freertos-debug/obj/FreeRTOS_Sockets.o
                                                  ./../../../build/tcc70xx/gcc/tcc70xx-freertos-debug/obj/FreeRTOS_TCP_IP.o
                                                  ./../../../build/tcc70xx/gcc/tcc70xx-freertos-debug/obj/FreeRTOS_IP.o
vStreamBufferDelete                               ./../../../build/tcc70xx/gcc/tcc70xx-freertos-debug/obj/stream_buffer.o
vTCPSegmentCleanup                                ./../../../build/tcc70xx/gcc/tcc70xx-freertos-debug/obj/FreeRTOS_TCP_WIN.o
vTCPStateChange                                   ./../../../build/tcc70xx/gcc/tcc70xx-freertos-debug/obj/FreeRTOS_TCP_IP.o
                                                  ./../../../build/tcc70xx/gcc/tcc70xx-freertos-debug/obj/FreeRTOS_Sockets.o
vTCPWindowCreate                                  ./../../../build/tcc70xx/gcc/tcc70xx-freertos-debug/obj/FreeRTOS_TCP_WIN.o
                                                  ./../../../build/tcc70xx/gcc/tcc70xx-freertos-debug/obj/FreeRTOS_TCP_IP.o
vTCPWindowDestroy                                 ./../../../build/tcc70xx/gcc/tcc70xx-freertos-debug/obj/FreeRTOS_TCP_WIN.o
                                                  ./../../../build/tcc70xx/gcc/tcc70xx-freertos-debug/obj/FreeRTOS_Sockets.o
vTCPWindowInit                                    ./../../../build/tcc70xx/gcc/tcc70xx-freertos-debug/obj/FreeRTOS_TCP_WIN.o
                                                  ./../../../build/tcc70xx/gcc/tcc70xx-freertos-debug/obj/FreeRTOS_TCP_IP.o
vTaskDelay                                        ./../../../build/tcc70xx/gcc/tcc70xx-freertos-debug/obj/tasks.o
                                                  ./../../../build/tcc70xx/gcc/tcc70xx-freertos-debug/obj/sal_freertos_impl.o
                                                  ./../../../build/tcc70xx/gcc/tcc70xx-freertos-debug/obj/NetworkInterface.o
                                                  ./../../../build/tcc70xx/gcc/tcc70xx-freertos-debug/obj/FreeRTOS_IP.o
                                                  ./../../../build/tcc70xx/gcc/tcc70xx-freertos-debug/obj/eth.o
vTaskDelayUntil                                   ./../../../build/tcc70xx/gcc/tcc70xx-freertos-debug/obj/tasks.o
vTaskDelete                                       ./../../../build/tcc70xx/gcc/tcc70xx-freertos-debug/obj/tasks.o
vTaskEndScheduler                                 ./../../../build/tcc70xx/gcc/tcc70xx-freertos-debug/obj/tasks.o
vTaskInternalSetTimeOutState                      ./../../../build/tcc70xx/gcc/tcc70xx-freertos-debug/obj/tasks.o
                                                  ./../../../build/tcc70xx/gcc/tcc70xx-freertos-debug/obj/queue.o
vTaskMissedYield                                  ./../../../build/tcc70xx/gcc/tcc70xx-freertos-debug/obj/tasks.o
                                                  ./../../../build/tcc70xx/gcc/tcc70xx-freertos-debug/obj/queue.o
vTaskNotifyGiveFromISR                            ./../../../build/tcc70xx/gcc/tcc70xx-freertos-debug/obj/tasks.o
                                                  ./../../../build/tcc70xx/gcc/tcc70xx-freertos-debug/obj/eth.o
vTaskPlaceOnEventList                             ./../../../build/tcc70xx/gcc/tcc70xx-freertos-debug/obj/tasks.o
                                                  ./../../../build/tcc70xx/gcc/tcc70xx-freertos-debug/obj/queue.o
vTaskPlaceOnEventListRestricted                   ./../../../build/tcc70xx/gcc/tcc70xx-freertos-debug/obj/tasks.o
                                                  ./../../../build/tcc70xx/gcc/tcc70xx-freertos-debug/obj/queue.o
vTaskPlaceOnUnorderedEventList                    ./../../../build/tcc70xx/gcc/tcc70xx-freertos-debug/obj/tasks.o
                                                  ./../../../build/tcc70xx/gcc/tcc70xx-freertos-debug/obj/event_groups.o
vTaskPriorityDisinheritAfterTimeout               ./../../../build/tcc70xx/gcc/tcc70xx-freertos-debug/obj/tasks.o
                                                  ./../../../build/tcc70xx/gcc/tcc70xx-freertos-debug/obj/queue.o
vTaskPrioritySet                                  ./../../../build/tcc70xx/gcc/tcc70xx-freertos-debug/obj/tasks.o
vTaskRemoveFromUnorderedEventList                 ./../../../build/tcc70xx/gcc/tcc70xx-freertos-debug/obj/tasks.o
                                                  ./../../../build/tcc70xx/gcc/tcc70xx-freertos-debug/obj/event_groups.o
vTaskResume                                       ./../../../build/tcc70xx/gcc/tcc70xx-freertos-debug/obj/tasks.o
vTaskSetTimeOutState                              ./../../../build/tcc70xx/gcc/tcc70xx-freertos-debug/obj/tasks.o
                                                  ./../../../build/tcc70xx/gcc/tcc70xx-freertos-debug/obj/FreeRTOS_Sockets.o
                                                  ./../../../build/tcc70xx/gcc/tcc70xx-freertos-debug/obj/FreeRTOS_IP.o
                                                  ./../../../build/tcc70xx/gcc/tcc70xx-freertos-debug/obj/stream_buffer.o
                                                  ./../../../build/tcc70xx/gcc/tcc70xx-freertos-debug/obj/iperf_task_v3_0d.o
vTaskStartScheduler                               ./../../../build/tcc70xx/gcc/tcc70xx-freertos-debug/obj/tasks.o
                                                  ./../../../build/tcc70xx/gcc/tcc70xx-freertos-debug/obj/sal_freertos_impl.o
vTaskSuspend                                      ./../../../build/tcc70xx/gcc/tcc70xx-freertos-debug/obj/tasks.o
vTaskSuspendAll                                   ./../../../build/tcc70xx/gcc/tcc70xx-freertos-debug/obj/tasks.o
                                                  ./../../../build/tcc70xx/gcc/tcc70xx-freertos-debug/obj/FreeRTOS_UDP_IP.o
                                                  ./../../../build/tcc70xx/gcc/tcc70xx-freertos-debug/obj/FreeRTOS_Sockets.o
                                                  ./../../../build/tcc70xx/gcc/tcc70xx-freertos-debug/obj/heap_5.o
                                                  ./../../../build/tcc70xx/gcc/tcc70xx-freertos-debug/obj/stream_buffer.o
                                                  ./../../../build/tcc70xx/gcc/tcc70xx-freertos-debug/obj/timers.o
                                                  ./../../../build/tcc70xx/gcc/tcc70xx-freertos-debug/obj/event_groups.o
                                                  ./../../../build/tcc70xx/gcc/tcc70xx-freertos-debug/obj/queue.o
vTaskSwitchContext                                ./../../../build/tcc70xx/gcc/tcc70xx-freertos-debug/obj/tasks.o
                                                  ./../../../build/tcc70xx/gcc/tcc70xx-freertos-debug/obj/portASM.o
vTimerSetReloadMode                               ./../../../build/tcc70xx/gcc/tcc70xx-freertos-debug/obj/timers.o
vTimerSetTimerID                                  ./../../../build/tcc70xx/gcc/tcc70xx-freertos-debug/obj/timers.o
vfp_init                                          ./../../../build/tcc70xx/gcc/tcc70xx-freertos-debug/obj/vfp_init.o
                                                  ./../../../build/tcc70xx/gcc/tcc70xx-freertos-debug/obj/startup.o
volumeSteps                                       ./../../../build/tcc70xx/gcc/tcc70xx-freertos-debug/obj/wm8904.o
wcrtomb                                           /opt/gcc-linaro-7.2.1-2017.11-x86_64_arm-eabi/arm-eabi/libc/usr/lib/libc.a(lib_a-wcrtomb.o)
wcsnrtombs                                        /opt/gcc-linaro-7.2.1-2017.11-x86_64_arm-eabi/arm-eabi/libc/usr/lib/libc.a(lib_a-wcsnrtombs.o)
wcsrtombs                                         /opt/gcc-linaro-7.2.1-2017.11-x86_64_arm-eabi/arm-eabi/libc/usr/lib/libc.a(lib_a-wcsrtombs.o)
wr_reg                                            ./../../../build/tcc70xx/gcc/tcc70xx-freertos-debug/obj/gpio_test.o
xApplicationDNSQueryHook                          ./../../../build/tcc70xx/gcc/tcc70xx-freertos-debug/obj/FreeRTOS_Port.o
                                                  ./../../../build/tcc70xx/gcc/tcc70xx-freertos-debug/obj/FreeRTOS_DNS.o
xApplicationGetRandomNumber                       ./../../../build/tcc70xx/gcc/tcc70xx-freertos-debug/obj/FreeRTOS_Port.o
                                                  ./../../../build/tcc70xx/gcc/tcc70xx-freertos-debug/obj/FreeRTOS_Sockets.o
                                                  ./../../../build/tcc70xx/gcc/tcc70xx-freertos-debug/obj/FreeRTOS_DNS.o
xBoundTCPSocketsList                              ./../../../build/tcc70xx/gcc/tcc70xx-freertos-debug/obj/FreeRTOS_Sockets.o
                                                  ./../../../build/tcc70xx/gcc/tcc70xx-freertos-debug/obj/FreeRTOS_TCP_IP.o
xBoundUDPSocketsList                              ./../../../build/tcc70xx/gcc/tcc70xx-freertos-debug/obj/FreeRTOS_Sockets.o
xBroadcastMACAddress                              ./../../../build/tcc70xx/gcc/tcc70xx-freertos-debug/obj/FreeRTOS_IP.o
                                                  ./../../../build/tcc70xx/gcc/tcc70xx-freertos-debug/obj/FreeRTOS_ARP.o
xBufferAllocFixedSize                             ./../../../build/tcc70xx/gcc/tcc70xx-freertos-debug/obj/BufferAllocation_1.o
                                                  ./../../../build/tcc70xx/gcc/tcc70xx-freertos-debug/obj/FreeRTOS_TCP_IP.o
                                                  ./../../../build/tcc70xx/gcc/tcc70xx-freertos-debug/obj/FreeRTOS_DNS.o
xDefaultAddressing                                ./../../../build/tcc70xx/gcc/tcc70xx-freertos-debug/obj/FreeRTOS_IP.o
xDefaultPartUDPPacketHeader                       ./../../../build/tcc70xx/gcc/tcc70xx-freertos-debug/obj/FreeRTOS_UDP_IP.o
                                                  ./../../../build/tcc70xx/gcc/tcc70xx-freertos-debug/obj/NetworkInterface.o
                                                  ./../../../build/tcc70xx/gcc/tcc70xx-freertos-debug/obj/FreeRTOS_TCP_IP.o
                                                  ./../../../build/tcc70xx/gcc/tcc70xx-freertos-debug/obj/FreeRTOS_Sockets.o
                                                  ./../../../build/tcc70xx/gcc/tcc70xx-freertos-debug/obj/FreeRTOS_IP.o
                                                  ./../../../build/tcc70xx/gcc/tcc70xx-freertos-debug/obj/FreeRTOS_DNS.o
                                                  ./../../../build/tcc70xx/gcc/tcc70xx-freertos-debug/obj/FreeRTOS_ARP.o
xEventGroupClearBits                              ./../../../build/tcc70xx/gcc/tcc70xx-freertos-debug/obj/event_groups.o
                                                  ./../../../build/tcc70xx/gcc/tcc70xx-freertos-debug/obj/sal_freertos_impl.o
                                                  ./../../../build/tcc70xx/gcc/tcc70xx-freertos-debug/obj/FreeRTOS_Sockets.o
xEventGroupCreate                                 ./../../../build/tcc70xx/gcc/tcc70xx-freertos-debug/obj/event_groups.o
                                                  ./../../../build/tcc70xx/gcc/tcc70xx-freertos-debug/obj/FreeRTOS_Sockets.o
xEventGroupCreateStatic                           ./../../../build/tcc70xx/gcc/tcc70xx-freertos-debug/obj/event_groups.o
                                                  ./../../../build/tcc70xx/gcc/tcc70xx-freertos-debug/obj/sal_freertos_impl.o
xEventGroupGetBitsFromISR                         ./../../../build/tcc70xx/gcc/tcc70xx-freertos-debug/obj/event_groups.o
xEventGroupSetBits                                ./../../../build/tcc70xx/gcc/tcc70xx-freertos-debug/obj/event_groups.o
                                                  ./../../../build/tcc70xx/gcc/tcc70xx-freertos-debug/obj/sal_freertos_impl.o
                                                  ./../../../build/tcc70xx/gcc/tcc70xx-freertos-debug/obj/FreeRTOS_UDP_IP.o
                                                  ./../../../build/tcc70xx/gcc/tcc70xx-freertos-debug/obj/FreeRTOS_Sockets.o
xEventGroupSync                                   ./../../../build/tcc70xx/gcc/tcc70xx-freertos-debug/obj/event_groups.o
xEventGroupWaitBits                               ./../../../build/tcc70xx/gcc/tcc70xx-freertos-debug/obj/event_groups.o
                                                  ./../../../build/tcc70xx/gcc/tcc70xx-freertos-debug/obj/sal_freertos_impl.o
                                                  ./../../../build/tcc70xx/gcc/tcc70xx-freertos-debug/obj/FreeRTOS_Sockets.o
xGetPhyLinkStatus                                 ./../../../build/tcc70xx/gcc/tcc70xx-freertos-debug/obj/NetworkInterface.o
xIPIsNetworkTaskReady                             ./../../../build/tcc70xx/gcc/tcc70xx-freertos-debug/obj/FreeRTOS_IP.o
                                                  ./../../../build/tcc70xx/gcc/tcc70xx-freertos-debug/obj/FreeRTOS_Sockets.o
                                                  ./../../../build/tcc70xx/gcc/tcc70xx-freertos-debug/obj/eth.o
xIsCallingFromIPTask                              ./../../../build/tcc70xx/gcc/tcc70xx-freertos-debug/obj/FreeRTOS_IP.o
                                                  ./../../../build/tcc70xx/gcc/tcc70xx-freertos-debug/obj/FreeRTOS_Sockets.o
                                                  ./../../../build/tcc70xx/gcc/tcc70xx-freertos-debug/obj/FreeRTOS_ARP.o
xLLMNR_MacAdress                                  ./../../../build/tcc70xx/gcc/tcc70xx-freertos-debug/obj/FreeRTOS_DNS.o
                                                  ./../../../build/tcc70xx/gcc/tcc70xx-freertos-debug/obj/FreeRTOS_IP.o
                                                  ./../../../build/tcc70xx/gcc/tcc70xx-freertos-debug/obj/FreeRTOS_ARP.o
xLogToFile                                        ./../../../build/tcc70xx/gcc/tcc70xx-freertos-debug/obj/FreeRTOS_Port.o
xLogToStdout                                      ./../../../build/tcc70xx/gcc/tcc70xx-freertos-debug/obj/FreeRTOS_Port.o
xLogToUDP                                         ./../../../build/tcc70xx/gcc/tcc70xx-freertos-debug/obj/FreeRTOS_Port.o
xNetworkAddressing                                ./../../../build/tcc70xx/gcc/tcc70xx-freertos-debug/obj/FreeRTOS_IP.o
                                                  ./../../../build/tcc70xx/gcc/tcc70xx-freertos-debug/obj/FreeRTOS_TCP_IP.o
                                                  ./../../../build/tcc70xx/gcc/tcc70xx-freertos-debug/obj/FreeRTOS_ARP.o
xNetworkBuffersInitialise                         ./../../../build/tcc70xx/gcc/tcc70xx-freertos-debug/obj/BufferAllocation_1.o
                                                  ./../../../build/tcc70xx/gcc/tcc70xx-freertos-debug/obj/FreeRTOS_IP.o
                                                  ./../../../build/tcc70xx/gcc/tcc70xx-freertos-debug/obj/eth.o
xNetworkEventQueue                                ./../../../build/tcc70xx/gcc/tcc70xx-freertos-debug/obj/FreeRTOS_IP.o
xNetworkInterfaceInitialise                       ./../../../build/tcc70xx/gcc/tcc70xx-freertos-debug/obj/NetworkInterface.o
                                                  ./../../../build/tcc70xx/gcc/tcc70xx-freertos-debug/obj/FreeRTOS_IP.o
xNetworkInterfaceOutput                           ./../../../build/tcc70xx/gcc/tcc70xx-freertos-debug/obj/NetworkInterface.o
                                                  ./../../../build/tcc70xx/gcc/tcc70xx-freertos-debug/obj/FreeRTOS_UDP_IP.o
                                                  ./../../../build/tcc70xx/gcc/tcc70xx-freertos-debug/obj/FreeRTOS_TCP_IP.o
                                                  ./../../../build/tcc70xx/gcc/tcc70xx-freertos-debug/obj/FreeRTOS_IP.o
                                                  ./../../../build/tcc70xx/gcc/tcc70xx-freertos-debug/obj/FreeRTOS_ARP.o
xPortGetFreeHeapSize                              ./../../../build/tcc70xx/gcc/tcc70xx-freertos-debug/obj/heap_5.o
xPortGetInterruptNestingCount                     ./../../../build/tcc70xx/gcc/tcc70xx-freertos-debug/obj/port.o
                                                  ./../../../build/tcc70xx/gcc/tcc70xx-freertos-debug/obj/sal_freertos_impl.o
xPortGetMinimumEverFreeHeapSize                   ./../../../build/tcc70xx/gcc/tcc70xx-freertos-debug/obj/heap_5.o
xPortStartScheduler                               ./../../../build/tcc70xx/gcc/tcc70xx-freertos-debug/obj/port.o
                                                  ./../../../build/tcc70xx/gcc/tcc70xx-freertos-debug/obj/tasks.o
xProcessReceivedTCPPacket                         ./../../../build/tcc70xx/gcc/tcc70xx-freertos-debug/obj/FreeRTOS_TCP_IP.o
                                                  ./../../../build/tcc70xx/gcc/tcc70xx-freertos-debug/obj/FreeRTOS_IP.o
xProcessReceivedUDPPacket                         ./../../../build/tcc70xx/gcc/tcc70xx-freertos-debug/obj/FreeRTOS_UDP_IP.o
                                                  ./../../../build/tcc70xx/gcc/tcc70xx-freertos-debug/obj/FreeRTOS_IP.o
xQueueAddToSet                                    ./../../../build/tcc70xx/gcc/tcc70xx-freertos-debug/obj/queue.o
xQueueCreateCountingSemaphore                     ./../../../build/tcc70xx/gcc/tcc70xx-freertos-debug/obj/queue.o
                                                  ./../../../build/tcc70xx/gcc/tcc70xx-freertos-debug/obj/BufferAllocation_1.o
xQueueCreateCountingSemaphoreStatic               ./../../../build/tcc70xx/gcc/tcc70xx-freertos-debug/obj/queue.o
xQueueCreateMutex                                 ./../../../build/tcc70xx/gcc/tcc70xx-freertos-debug/obj/queue.o
xQueueCreateMutexStatic                           ./../../../build/tcc70xx/gcc/tcc70xx-freertos-debug/obj/queue.o
xQueueCreateSet                                   ./../../../build/tcc70xx/gcc/tcc70xx-freertos-debug/obj/queue.o
xQueueGenericCreate                               ./../../../build/tcc70xx/gcc/tcc70xx-freertos-debug/obj/queue.o
                                                  ./../../../build/tcc70xx/gcc/tcc70xx-freertos-debug/obj/FreeRTOS_IP.o
xQueueGenericCreateStatic                         ./../../../build/tcc70xx/gcc/tcc70xx-freertos-debug/obj/queue.o
                                                  ./../../../build/tcc70xx/gcc/tcc70xx-freertos-debug/obj/sal_freertos_impl.o
                                                  ./../../../build/tcc70xx/gcc/tcc70xx-freertos-debug/obj/timers.o
xQueueGenericReset                                ./../../../build/tcc70xx/gcc/tcc70xx-freertos-debug/obj/queue.o
xQueueGenericSend                                 ./../../../build/tcc70xx/gcc/tcc70xx-freertos-debug/obj/queue.o
                                                  ./../../../build/tcc70xx/gcc/tcc70xx-freertos-debug/obj/sal_freertos_impl.o
                                                  ./../../../build/tcc70xx/gcc/tcc70xx-freertos-debug/obj/BufferAllocation_1.o
                                                  ./../../../build/tcc70xx/gcc/tcc70xx-freertos-debug/obj/FreeRTOS_IP.o
                                                  ./../../../build/tcc70xx/gcc/tcc70xx-freertos-debug/obj/timers.o
xQueueGenericSendFromISR                          ./../../../build/tcc70xx/gcc/tcc70xx-freertos-debug/obj/queue.o
                                                  ./../../../build/tcc70xx/gcc/tcc70xx-freertos-debug/obj/sal_freertos_impl.o
                                                  ./../../../build/tcc70xx/gcc/tcc70xx-freertos-debug/obj/FreeRTOS_IP.o
                                                  ./../../../build/tcc70xx/gcc/tcc70xx-freertos-debug/obj/timers.o
xQueueGetMutexHolder                              ./../../../build/tcc70xx/gcc/tcc70xx-freertos-debug/obj/queue.o
xQueueGetMutexHolderFromISR                       ./../../../build/tcc70xx/gcc/tcc70xx-freertos-debug/obj/queue.o
xQueueGiveFromISR                                 ./../../../build/tcc70xx/gcc/tcc70xx-freertos-debug/obj/queue.o
                                                  ./../../../build/tcc70xx/gcc/tcc70xx-freertos-debug/obj/sal_freertos_impl.o
                                                  ./../../../build/tcc70xx/gcc/tcc70xx-freertos-debug/obj/BufferAllocation_1.o
xQueueGiveMutexRecursive                          ./../../../build/tcc70xx/gcc/tcc70xx-freertos-debug/obj/queue.o
xQueueIsQueueEmptyFromISR                         ./../../../build/tcc70xx/gcc/tcc70xx-freertos-debug/obj/queue.o
xQueueIsQueueFullFromISR                          ./../../../build/tcc70xx/gcc/tcc70xx-freertos-debug/obj/queue.o
xQueuePeek                                        ./../../../build/tcc70xx/gcc/tcc70xx-freertos-debug/obj/queue.o
xQueuePeekFromISR                                 ./../../../build/tcc70xx/gcc/tcc70xx-freertos-debug/obj/queue.o
xQueueReceive                                     ./../../../build/tcc70xx/gcc/tcc70xx-freertos-debug/obj/queue.o
                                                  ./../../../build/tcc70xx/gcc/tcc70xx-freertos-debug/obj/sal_freertos_impl.o
                                                  ./../../../build/tcc70xx/gcc/tcc70xx-freertos-debug/obj/FreeRTOS_IP.o
                                                  ./../../../build/tcc70xx/gcc/tcc70xx-freertos-debug/obj/timers.o
xQueueReceiveFromISR                              ./../../../build/tcc70xx/gcc/tcc70xx-freertos-debug/obj/queue.o
                                                  ./../../../build/tcc70xx/gcc/tcc70xx-freertos-debug/obj/sal_freertos_impl.o
                                                  ./../../../build/tcc70xx/gcc/tcc70xx-freertos-debug/obj/BufferAllocation_1.o
xQueueRegistry                                    ./../../../build/tcc70xx/gcc/tcc70xx-freertos-debug/obj/queue.o
xQueueRemoveFromSet                               ./../../../build/tcc70xx/gcc/tcc70xx-freertos-debug/obj/queue.o
xQueueSelectFromSet                               ./../../../build/tcc70xx/gcc/tcc70xx-freertos-debug/obj/queue.o
xQueueSelectFromSetFromISR                        ./../../../build/tcc70xx/gcc/tcc70xx-freertos-debug/obj/queue.o
xQueueSemaphoreTake                               ./../../../build/tcc70xx/gcc/tcc70xx-freertos-debug/obj/queue.o
                                                  ./../../../build/tcc70xx/gcc/tcc70xx-freertos-debug/obj/sal_freertos_impl.o
                                                  ./../../../build/tcc70xx/gcc/tcc70xx-freertos-debug/obj/BufferAllocation_1.o
xQueueTakeMutexRecursive                          ./../../../build/tcc70xx/gcc/tcc70xx-freertos-debug/obj/queue.o
xSendEventStructToIPTask                          ./../../../build/tcc70xx/gcc/tcc70xx-freertos-debug/obj/FreeRTOS_IP.o
                                                  ./../../../build/tcc70xx/gcc/tcc70xx-freertos-debug/obj/NetworkInterface.o
                                                  ./../../../build/tcc70xx/gcc/tcc70xx-freertos-debug/obj/FreeRTOS_Sockets.o
                                                  ./../../../build/tcc70xx/gcc/tcc70xx-freertos-debug/obj/FreeRTOS_ARP.o
xSendEventToIPTask                                ./../../../build/tcc70xx/gcc/tcc70xx-freertos-debug/obj/FreeRTOS_IP.o
                                                  ./../../../build/tcc70xx/gcc/tcc70xx-freertos-debug/obj/FreeRTOS_Sockets.o
                                                  ./../../../build/tcc70xx/gcc/tcc70xx-freertos-debug/obj/FreeRTOS_ARP.o
xStreamBufferBytesAvailable                       ./../../../build/tcc70xx/gcc/tcc70xx-freertos-debug/obj/stream_buffer.o
xStreamBufferGenericCreate                        ./../../../build/tcc70xx/gcc/tcc70xx-freertos-debug/obj/stream_buffer.o
xStreamBufferGenericCreateStatic                  ./../../../build/tcc70xx/gcc/tcc70xx-freertos-debug/obj/stream_buffer.o
xStreamBufferIsEmpty                              ./../../../build/tcc70xx/gcc/tcc70xx-freertos-debug/obj/stream_buffer.o
xStreamBufferIsFull                               ./../../../build/tcc70xx/gcc/tcc70xx-freertos-debug/obj/stream_buffer.o
xStreamBufferNextMessageLengthBytes               ./../../../build/tcc70xx/gcc/tcc70xx-freertos-debug/obj/stream_buffer.o
xStreamBufferReceive                              ./../../../build/tcc70xx/gcc/tcc70xx-freertos-debug/obj/stream_buffer.o
xStreamBufferReceiveCompletedFromISR              ./../../../build/tcc70xx/gcc/tcc70xx-freertos-debug/obj/stream_buffer.o
xStreamBufferReceiveFromISR                       ./../../../build/tcc70xx/gcc/tcc70xx-freertos-debug/obj/stream_buffer.o
xStreamBufferReset                                ./../../../build/tcc70xx/gcc/tcc70xx-freertos-debug/obj/stream_buffer.o
xStreamBufferSend                                 ./../../../build/tcc70xx/gcc/tcc70xx-freertos-debug/obj/stream_buffer.o
xStreamBufferSendCompletedFromISR                 ./../../../build/tcc70xx/gcc/tcc70xx-freertos-debug/obj/stream_buffer.o
xStreamBufferSendFromISR                          ./../../../build/tcc70xx/gcc/tcc70xx-freertos-debug/obj/stream_buffer.o
xStreamBufferSetTriggerLevel                      ./../../../build/tcc70xx/gcc/tcc70xx-freertos-debug/obj/stream_buffer.o
xStreamBufferSpacesAvailable                      ./../../../build/tcc70xx/gcc/tcc70xx-freertos-debug/obj/stream_buffer.o
xTCPCheckNewClient                                ./../../../build/tcc70xx/gcc/tcc70xx-freertos-debug/obj/FreeRTOS_TCP_IP.o
                                                  ./../../../build/tcc70xx/gcc/tcc70xx-freertos-debug/obj/FreeRTOS_IP.o
xTCPSocketCheck                                   ./../../../build/tcc70xx/gcc/tcc70xx-freertos-debug/obj/FreeRTOS_TCP_IP.o
                                                  ./../../../build/tcc70xx/gcc/tcc70xx-freertos-debug/obj/FreeRTOS_Sockets.o
xTCPTimerCheck                                    ./../../../build/tcc70xx/gcc/tcc70xx-freertos-debug/obj/FreeRTOS_Sockets.o
                                                  ./../../../build/tcc70xx/gcc/tcc70xx-freertos-debug/obj/FreeRTOS_IP.o
xTCPWindowLoggingLevel                            ./../../../build/tcc70xx/gcc/tcc70xx-freertos-debug/obj/FreeRTOS_TCP_WIN.o
                                                  ./../../../build/tcc70xx/gcc/tcc70xx-freertos-debug/obj/FreeRTOS_TCP_IP.o
xTCPWindowRxEmpty                                 ./../../../build/tcc70xx/gcc/tcc70xx-freertos-debug/obj/FreeRTOS_TCP_WIN.o
                                                  ./../../../build/tcc70xx/gcc/tcc70xx-freertos-debug/obj/FreeRTOS_TCP_IP.o
xTCPWindowTxDone                                  ./../../../build/tcc70xx/gcc/tcc70xx-freertos-debug/obj/FreeRTOS_TCP_WIN.o
                                                  ./../../../build/tcc70xx/gcc/tcc70xx-freertos-debug/obj/FreeRTOS_TCP_IP.o
xTCPWindowTxHasData                               ./../../../build/tcc70xx/gcc/tcc70xx-freertos-debug/obj/FreeRTOS_TCP_WIN.o
                                                  ./../../../build/tcc70xx/gcc/tcc70xx-freertos-debug/obj/FreeRTOS_TCP_IP.o
xTask                                             ./../../../build/tcc70xx/gcc/tcc70xx-freertos-debug/obj/NetworkInterface.o
xTaskAbortDelay                                   ./../../../build/tcc70xx/gcc/tcc70xx-freertos-debug/obj/tasks.o
xTaskCatchUpTicks                                 ./../../../build/tcc70xx/gcc/tcc70xx-freertos-debug/obj/tasks.o
xTaskCheckForTimeOut                              ./../../../build/tcc70xx/gcc/tcc70xx-freertos-debug/obj/tasks.o
                                                  ./../../../build/tcc70xx/gcc/tcc70xx-freertos-debug/obj/FreeRTOS_Sockets.o
                                                  ./../../../build/tcc70xx/gcc/tcc70xx-freertos-debug/obj/FreeRTOS_IP.o
                                                  ./../../../build/tcc70xx/gcc/tcc70xx-freertos-debug/obj/stream_buffer.o
                                                  ./../../../build/tcc70xx/gcc/tcc70xx-freertos-debug/obj/queue.o
                                                  ./../../../build/tcc70xx/gcc/tcc70xx-freertos-debug/obj/iperf_task_v3_0d.o
xTaskCreate                                       ./../../../build/tcc70xx/gcc/tcc70xx-freertos-debug/obj/tasks.o
                                                  ./../../../build/tcc70xx/gcc/tcc70xx-freertos-debug/obj/NetworkInterface.o
                                                  ./../../../build/tcc70xx/gcc/tcc70xx-freertos-debug/obj/FreeRTOS_IP.o
                                                  ./../../../build/tcc70xx/gcc/tcc70xx-freertos-debug/obj/iperf_task_v3_0d.o
xTaskCreateStatic                                 ./../../../build/tcc70xx/gcc/tcc70xx-freertos-debug/obj/tasks.o
                                                  ./../../../build/tcc70xx/gcc/tcc70xx-freertos-debug/obj/sal_freertos_impl.o
                                                  ./../../../build/tcc70xx/gcc/tcc70xx-freertos-debug/obj/timers.o
xTaskGenericNotify                                ./../../../build/tcc70xx/gcc/tcc70xx-freertos-debug/obj/tasks.o
                                                  ./../../../build/tcc70xx/gcc/tcc70xx-freertos-debug/obj/stream_buffer.o
xTaskGenericNotifyFromISR                         ./../../../build/tcc70xx/gcc/tcc70xx-freertos-debug/obj/tasks.o
                                                  ./../../../build/tcc70xx/gcc/tcc70xx-freertos-debug/obj/stream_buffer.o
xTaskGetCurrentTaskHandle                         ./../../../build/tcc70xx/gcc/tcc70xx-freertos-debug/obj/tasks.o
                                                  ./../../../build/tcc70xx/gcc/tcc70xx-freertos-debug/obj/FreeRTOS_IP.o
                                                  ./../../../build/tcc70xx/gcc/tcc70xx-freertos-debug/obj/stream_buffer.o
                                                  ./../../../build/tcc70xx/gcc/tcc70xx-freertos-debug/obj/queue.o
xTaskGetHandle                                    ./../../../build/tcc70xx/gcc/tcc70xx-freertos-debug/obj/tasks.o
xTaskGetSchedulerState                            ./../../../build/tcc70xx/gcc/tcc70xx-freertos-debug/obj/tasks.o
                                                  ./../../../build/tcc70xx/gcc/tcc70xx-freertos-debug/obj/timers.o
                                                  ./../../../build/tcc70xx/gcc/tcc70xx-freertos-debug/obj/event_groups.o
                                                  ./../../../build/tcc70xx/gcc/tcc70xx-freertos-debug/obj/queue.o
xTaskGetTickCount                                 ./../../../build/tcc70xx/gcc/tcc70xx-freertos-debug/obj/tasks.o
                                                  ./../../../build/tcc70xx/gcc/tcc70xx-freertos-debug/obj/sal_freertos_impl.o
                                                  ./../../../build/tcc70xx/gcc/tcc70xx-freertos-debug/obj/FreeRTOS_TCP_WIN.o
                                                  ./../../../build/tcc70xx/gcc/tcc70xx-freertos-debug/obj/FreeRTOS_TCP_IP.o
                                                  ./../../../build/tcc70xx/gcc/tcc70xx-freertos-debug/obj/FreeRTOS_Sockets.o
                                                  ./../../../build/tcc70xx/gcc/tcc70xx-freertos-debug/obj/FreeRTOS_DNS.o
                                                  ./../../../build/tcc70xx/gcc/tcc70xx-freertos-debug/obj/FreeRTOS_ARP.o
                                                  ./../../../build/tcc70xx/gcc/tcc70xx-freertos-debug/obj/timers.o
xTaskGetTickCountFromISR                          ./../../../build/tcc70xx/gcc/tcc70xx-freertos-debug/obj/tasks.o
                                                  ./../../../build/tcc70xx/gcc/tcc70xx-freertos-debug/obj/sal_freertos_impl.o
xTaskIncrementTick                                ./../../../build/tcc70xx/gcc/tcc70xx-freertos-debug/obj/tasks.o
                                                  ./../../../build/tcc70xx/gcc/tcc70xx-freertos-debug/obj/port.o
xTaskNotifyStateClear                             ./../../../build/tcc70xx/gcc/tcc70xx-freertos-debug/obj/tasks.o
                                                  ./../../../build/tcc70xx/gcc/tcc70xx-freertos-debug/obj/stream_buffer.o
xTaskNotifyWait                                   ./../../../build/tcc70xx/gcc/tcc70xx-freertos-debug/obj/tasks.o
                                                  ./../../../build/tcc70xx/gcc/tcc70xx-freertos-debug/obj/stream_buffer.o
xTaskPriorityDisinherit                           ./../../../build/tcc70xx/gcc/tcc70xx-freertos-debug/obj/tasks.o
                                                  ./../../../build/tcc70xx/gcc/tcc70xx-freertos-debug/obj/queue.o
xTaskPriorityInherit                              ./../../../build/tcc70xx/gcc/tcc70xx-freertos-debug/obj/tasks.o
                                                  ./../../../build/tcc70xx/gcc/tcc70xx-freertos-debug/obj/queue.o
xTaskRemoveFromEventList                          ./../../../build/tcc70xx/gcc/tcc70xx-freertos-debug/obj/tasks.o
                                                  ./../../../build/tcc70xx/gcc/tcc70xx-freertos-debug/obj/queue.o
xTaskResumeAll                                    ./../../../build/tcc70xx/gcc/tcc70xx-freertos-debug/obj/tasks.o
                                                  ./../../../build/tcc70xx/gcc/tcc70xx-freertos-debug/obj/FreeRTOS_UDP_IP.o
                                                  ./../../../build/tcc70xx/gcc/tcc70xx-freertos-debug/obj/FreeRTOS_Sockets.o
                                                  ./../../../build/tcc70xx/gcc/tcc70xx-freertos-debug/obj/heap_5.o
                                                  ./../../../build/tcc70xx/gcc/tcc70xx-freertos-debug/obj/stream_buffer.o
                                                  ./../../../build/tcc70xx/gcc/tcc70xx-freertos-debug/obj/timers.o
                                                  ./../../../build/tcc70xx/gcc/tcc70xx-freertos-debug/obj/event_groups.o
                                                  ./../../../build/tcc70xx/gcc/tcc70xx-freertos-debug/obj/queue.o
xTaskResumeFromISR                                ./../../../build/tcc70xx/gcc/tcc70xx-freertos-debug/obj/tasks.o
xTimerCreate                                      ./../../../build/tcc70xx/gcc/tcc70xx-freertos-debug/obj/timers.o
xTimerCreateStatic                                ./../../../build/tcc70xx/gcc/tcc70xx-freertos-debug/obj/timers.o
xTimerCreateTimerTask                             ./../../../build/tcc70xx/gcc/tcc70xx-freertos-debug/obj/timers.o
                                                  ./../../../build/tcc70xx/gcc/tcc70xx-freertos-debug/obj/tasks.o
xTimerGenericCommand                              ./../../../build/tcc70xx/gcc/tcc70xx-freertos-debug/obj/timers.o
xTimerGetExpiryTime                               ./../../../build/tcc70xx/gcc/tcc70xx-freertos-debug/obj/timers.o
xTimerGetPeriod                                   ./../../../build/tcc70xx/gcc/tcc70xx-freertos-debug/obj/timers.o
xTimerGetTimerDaemonTaskHandle                    ./../../../build/tcc70xx/gcc/tcc70xx-freertos-debug/obj/timers.o
xTimerIsTimerActive                               ./../../../build/tcc70xx/gcc/tcc70xx-freertos-debug/obj/timers.o
xTimerPendFunctionCall                            ./../../../build/tcc70xx/gcc/tcc70xx-freertos-debug/obj/timers.o
xTimerPendFunctionCallFromISR                     ./../../../build/tcc70xx/gcc/tcc70xx-freertos-debug/obj/timers.o
                                                  ./../../../build/tcc70xx/gcc/tcc70xx-freertos-debug/obj/sal_freertos_impl.o
